ARM GAS  C:\Users\merlin\AppData\Local\Temp\ccDtQv4x.s 			page 1


   1              		.cpu cortex-m0
   2              		.fpu softvfp
   3              		.eabi_attribute 20, 1
   4              		.eabi_attribute 21, 1
   5              		.eabi_attribute 23, 3
   6              		.eabi_attribute 24, 1
   7              		.eabi_attribute 25, 1
   8              		.eabi_attribute 26, 1
   9              		.eabi_attribute 30, 6
  10              		.eabi_attribute 34, 0
  11              		.eabi_attribute 18, 4
  12              		.code	16
  13              		.file	"main.c"
  14              		.text
  15              	.Ltext0:
  16              		.cfi_sections	.debug_frame
  17              		.section	.text.StackEventHandler,"ax",%progbits
  18              		.align	2
  19              		.global	StackEventHandler
  20              		.code	16
  21              		.thumb_func
  22              		.type	StackEventHandler, %function
  23              	StackEventHandler:
  24              	.LFB37:
  25              		.file 1 ".\\main.c"
   1:.\main.c      **** /*******************************************************************************
   2:.\main.c      **** * File Name: main.c
   3:.\main.c      **** *
   4:.\main.c      **** * Version: 1.0
   5:.\main.c      **** *
   6:.\main.c      **** * Description:
   7:.\main.c      **** *  This is source code for the PSoC 4 BLE Find Me Profile Target example project.
   8:.\main.c      **** *
   9:.\main.c      **** * Note:
  10:.\main.c      **** *
  11:.\main.c      **** * Owners:
  12:.\main.c      **** *  OLEG@CYPRESS.COM, KRIS@CYPRESS.COM
  13:.\main.c      **** *
  14:.\main.c      **** * Related Document:
  15:.\main.c      **** *
  16:.\main.c      **** * Hardware Dependency:
  17:.\main.c      **** *  1. PSoC 4 BLE device
  18:.\main.c      **** *  2. CY8CKIT-042 BLE Pioneer Kit
  19:.\main.c      **** *
  20:.\main.c      **** * Code Tested With:
  21:.\main.c      **** *  1. PSoC Creator 3.1
  22:.\main.c      **** *  2. ARM CM3-RVDS
  23:.\main.c      **** *  3. ARM CM3-GCC
  24:.\main.c      **** *  4. ARM CM3-MDK
  25:.\main.c      **** *
  26:.\main.c      **** ********************************************************************************
  27:.\main.c      **** * Copyright 2015, Cypress Semiconductor Corporation.  All rights reserved.
  28:.\main.c      **** * You may use this file only in accordance with the license, terms, conditions,
  29:.\main.c      **** * disclaimers, and limitations in the end user license agreement accompanying
  30:.\main.c      **** * the software package with which this file was provided.
  31:.\main.c      **** *******************************************************************************/
  32:.\main.c      **** 
ARM GAS  C:\Users\merlin\AppData\Local\Temp\ccDtQv4x.s 			page 2


  33:.\main.c      **** #include <project.h>
  34:.\main.c      **** #include "ias.h"
  35:.\main.c      **** #include "common.h"
  36:.\main.c      **** #include "main.h"
  37:.\main.c      **** 
  38:.\main.c      **** 
  39:.\main.c      **** /*******************************************************************************
  40:.\main.c      **** * Function Name: StackEventHandler
  41:.\main.c      **** ********************************************************************************
  42:.\main.c      **** *
  43:.\main.c      **** * Summary:
  44:.\main.c      **** *  This is an event callback function to receive events from the BLE Component.
  45:.\main.c      **** *
  46:.\main.c      **** * Parameters:
  47:.\main.c      **** *  uint8 event:       Event from the CYBLE component
  48:.\main.c      **** *  void* eventParams: A structure instance for corresponding event type. The
  49:.\main.c      **** *                     list of event structure is described in the component
  50:.\main.c      **** *                     datasheet.
  51:.\main.c      **** *
  52:.\main.c      **** * Return:
  53:.\main.c      **** *  None
  54:.\main.c      **** *
  55:.\main.c      **** *******************************************************************************/
  56:.\main.c      **** void StackEventHandler(uint32 event, void *eventParam)
  57:.\main.c      **** {
  26              		.loc 1 57 0
  27              		.cfi_startproc
  28 0000 80B5     		push	{r7, lr}
  29              		.cfi_def_cfa_offset 8
  30              		.cfi_offset 7, -8
  31              		.cfi_offset 14, -4
  32 0002 82B0     		sub	sp, sp, #8
  33              		.cfi_def_cfa_offset 16
  34 0004 00AF     		add	r7, sp, #0
  35              		.cfi_def_cfa_register 7
  36 0006 7860     		str	r0, [r7, #4]
  37 0008 3960     		str	r1, [r7]
  58:.\main.c      ****     switch(event)
  38              		.loc 1 58 0
  39 000a 7B68     		ldr	r3, [r7, #4]
  40 000c 262B     		cmp	r3, #38
  41 000e 36D0     		beq	.L3
  42 0010 11D8     		bhi	.L4
  43 0012 212B     		cmp	r3, #33
  44 0014 44D0     		beq	.L25
  45 0016 06D8     		bhi	.L6
  46 0018 032B     		cmp	r3, #3
  47 001a 43D0     		beq	.L26
  48 001c 042B     		cmp	r3, #4
  49 001e 43D0     		beq	.L27
  50 0020 012B     		cmp	r3, #1
  51 0022 1BD0     		beq	.L9
  59:.\main.c      ****     {
  60:.\main.c      ****         /* Mandatory events to be handled by Find Me Target design */
  61:.\main.c      ****         case CYBLE_EVT_STACK_ON:
  62:.\main.c      ****         case CYBLE_EVT_GAP_DEVICE_DISCONNECTED:
  63:.\main.c      ****             /* Start BLE advertisement for 30 seconds and update link
ARM GAS  C:\Users\merlin\AppData\Local\Temp\ccDtQv4x.s 			page 3


  64:.\main.c      ****              * status on LEDs */
  65:.\main.c      ****             CyBle_GappStartAdvertisement(CYBLE_ADVERTISING_FAST);
  66:.\main.c      ****             Advertising_LED_Write(LED_ON);
  67:.\main.c      ****             alertLevel = NO_ALERT;
  68:.\main.c      ****             break;
  69:.\main.c      **** 
  70:.\main.c      ****         case CYBLE_EVT_GAP_DEVICE_CONNECTED:
  71:.\main.c      ****             /* BLE link is established */
  72:.\main.c      ****             Advertising_LED_Write(LED_OFF);
  73:.\main.c      ****             Disconnect_LED_Write(LED_OFF);
  74:.\main.c      ****             break;
  75:.\main.c      **** 
  76:.\main.c      ****         case CYBLE_EVT_GAPP_ADVERTISEMENT_START_STOP:
  77:.\main.c      ****             if(CyBle_GetState() == CYBLE_STATE_DISCONNECTED)
  78:.\main.c      ****             {
  79:.\main.c      ****                 /* Advertisement event timed out, go to low power
  80:.\main.c      ****                  * mode (Stop mode) and wait for device reset
  81:.\main.c      ****                  * event to wake up the device again */
  82:.\main.c      ****                 Advertising_LED_Write(LED_OFF);
  83:.\main.c      ****                 Disconnect_LED_Write(LED_ON);
  84:.\main.c      ****                 CySysPmSetWakeupPolarity(CY_PM_STOP_WAKEUP_ACTIVE_HIGH);
  85:.\main.c      ****                 CySysPmStop();
  86:.\main.c      ****                
  87:.\main.c      ****                 /* Code execution will not reach here */
  88:.\main.c      ****             }
  89:.\main.c      ****             break;
  90:.\main.c      **** 
  91:.\main.c      ****         /* Other events that are generated by the BLE Component that
  92:.\main.c      ****          * are not required for functioning of this design */
  93:.\main.c      ****         /**********************************************************
  94:.\main.c      ****         *                       General Events
  95:.\main.c      ****         ***********************************************************/
  96:.\main.c      ****         case CYBLE_EVT_HARDWARE_ERROR:    /* This event indicates that some internal HW error has o
  97:.\main.c      ****             break;
  98:.\main.c      **** 
  99:.\main.c      ****         case CYBLE_EVT_HCI_STATUS:
 100:.\main.c      ****             break;
 101:.\main.c      **** 
 102:.\main.c      ****         /**********************************************************
 103:.\main.c      ****         *                       GAP Events
 104:.\main.c      ****         ***********************************************************/
 105:.\main.c      ****         case CYBLE_EVT_GAP_AUTH_REQ:
 106:.\main.c      ****             break;
 107:.\main.c      **** 
 108:.\main.c      ****         case CYBLE_EVT_GAP_PASSKEY_ENTRY_REQUEST:
 109:.\main.c      ****             break;
 110:.\main.c      **** 
 111:.\main.c      ****         case CYBLE_EVT_GAP_PASSKEY_DISPLAY_REQUEST:
 112:.\main.c      ****             break;
 113:.\main.c      **** 
 114:.\main.c      ****         case CYBLE_EVT_GAP_AUTH_COMPLETE:
 115:.\main.c      **** 
 116:.\main.c      ****             break;
 117:.\main.c      ****         case CYBLE_EVT_GAP_AUTH_FAILED:
 118:.\main.c      **** 
 119:.\main.c      ****             break;
 120:.\main.c      **** 
ARM GAS  C:\Users\merlin\AppData\Local\Temp\ccDtQv4x.s 			page 4


 121:.\main.c      ****         case CYBLE_EVT_GAP_ENCRYPT_CHANGE:
 122:.\main.c      ****             break;
 123:.\main.c      **** 
 124:.\main.c      ****         case CYBLE_EVT_GAPC_CONNECTION_UPDATE_COMPLETE:
 125:.\main.c      ****             break;
 126:.\main.c      **** 
 127:.\main.c      ****         /**********************************************************
 128:.\main.c      ****         *                       GATT Events
 129:.\main.c      ****         ***********************************************************/
 130:.\main.c      ****         case CYBLE_EVT_GATT_CONNECT_IND:
 131:.\main.c      ****             break;
 132:.\main.c      **** 
 133:.\main.c      ****         case CYBLE_EVT_GATT_DISCONNECT_IND:
 134:.\main.c      ****             break;
 135:.\main.c      **** 
 136:.\main.c      ****         case CYBLE_EVT_GATTS_XCNHG_MTU_REQ:
 137:.\main.c      ****             break;
 138:.\main.c      **** 
 139:.\main.c      ****         case CYBLE_EVT_GATTS_READ_CHAR_VAL_ACCESS_REQ:
 140:.\main.c      ****             break;
 141:.\main.c      **** 
 142:.\main.c      ****         /**********************************************************
 143:.\main.c      ****         *                       Other Events
 144:.\main.c      ****         ***********************************************************/
 145:.\main.c      ****         case CYBLE_EVT_PENDING_FLASH_WRITE:
 146:.\main.c      ****             break;
 147:.\main.c      **** 
 148:.\main.c      ****         default:
 149:.\main.c      ****             break;
  52              		.loc 1 149 0
  53 0024 57E0     		b	.L1
  54              	.L6:
  58:.\main.c      ****     switch(event)
  55              		.loc 1 58 0
  56 0026 232B     		cmp	r3, #35
  57 0028 40D0     		beq	.L28
  58 002a 41D3     		bcc	.L29
  59 002c 242B     		cmp	r3, #36
  60 002e 41D0     		beq	.L30
  61 0030 252B     		cmp	r3, #37
  62 0032 41D0     		beq	.L31
  63              		.loc 1 149 0
  64 0034 4FE0     		b	.L1
  65              	.L4:
  58:.\main.c      ****     switch(event)
  66              		.loc 1 58 0
  67 0036 412B     		cmp	r3, #65
  68 0038 40D0     		beq	.L32
  69 003a 07D8     		bhi	.L15
  70 003c 282B     		cmp	r3, #40
  71 003e 0DD0     		beq	.L9
  72 0040 16D3     		bcc	.L16
  73 0042 292B     		cmp	r3, #41
  74 0044 3CD0     		beq	.L33
  75 0046 2A2B     		cmp	r3, #42
  76 0048 3CD0     		beq	.L34
  77              		.loc 1 149 0
ARM GAS  C:\Users\merlin\AppData\Local\Temp\ccDtQv4x.s 			page 5


  78 004a 44E0     		b	.L1
  79              	.L15:
  58:.\main.c      ****     switch(event)
  80              		.loc 1 58 0
  81 004c 432B     		cmp	r3, #67
  82 004e 3BD0     		beq	.L35
  83 0050 3CD3     		bcc	.L36
  84 0052 572B     		cmp	r3, #87
  85 0054 3CD0     		beq	.L37
  86 0056 FA2B     		cmp	r3, #250
  87 0058 3CD0     		beq	.L38
  88              		.loc 1 149 0
  89 005a 3CE0     		b	.L1
  90              	.L9:
  65:.\main.c      ****             Advertising_LED_Write(LED_ON);
  91              		.loc 1 65 0
  92 005c 0020     		mov	r0, #0
  93 005e FFF7FEFF 		bl	CyBle_GappStartAdvertisement
  66:.\main.c      ****             alertLevel = NO_ALERT;
  94              		.loc 1 66 0
  95 0062 0020     		mov	r0, #0
  96 0064 FFF7FEFF 		bl	Advertising_LED_Write
  67:.\main.c      ****             break;
  97              		.loc 1 67 0
  98 0068 1C4B     		ldr	r3, .L39
  99 006a 0022     		mov	r2, #0
 100 006c 1A70     		strb	r2, [r3]
  68:.\main.c      **** 
 101              		.loc 1 68 0
 102 006e 32E0     		b	.L1
 103              	.L16:
  72:.\main.c      ****             Disconnect_LED_Write(LED_OFF);
 104              		.loc 1 72 0
 105 0070 0120     		mov	r0, #1
 106 0072 FFF7FEFF 		bl	Advertising_LED_Write
  73:.\main.c      ****             break;
 107              		.loc 1 73 0
 108 0076 0120     		mov	r0, #1
 109 0078 FFF7FEFF 		bl	Disconnect_LED_Write
  74:.\main.c      **** 
 110              		.loc 1 74 0
 111 007c 2BE0     		b	.L1
 112              	.L3:
  77:.\main.c      ****             {
 113              		.loc 1 77 0
 114 007e 184B     		ldr	r3, .L39+4
 115 0080 1B78     		ldrb	r3, [r3]
 116 0082 042B     		cmp	r3, #4
 117 0084 0BD1     		bne	.L24
  82:.\main.c      ****                 Disconnect_LED_Write(LED_ON);
 118              		.loc 1 82 0
 119 0086 0120     		mov	r0, #1
 120 0088 FFF7FEFF 		bl	Advertising_LED_Write
  83:.\main.c      ****                 CySysPmSetWakeupPolarity(CY_PM_STOP_WAKEUP_ACTIVE_HIGH);
 121              		.loc 1 83 0
 122 008c 0020     		mov	r0, #0
 123 008e FFF7FEFF 		bl	Disconnect_LED_Write
ARM GAS  C:\Users\merlin\AppData\Local\Temp\ccDtQv4x.s 			page 6


  84:.\main.c      ****                 CySysPmStop();
 124              		.loc 1 84 0
 125 0092 0120     		mov	r0, #1
 126 0094 FFF7FEFF 		bl	CySysPmSetWakeupPolarity
  85:.\main.c      ****                
 127              		.loc 1 85 0
 128 0098 FFF7FEFF 		bl	CySysPmStop
  89:.\main.c      **** 
 129              		.loc 1 89 0
 130 009c 1BE0     		b	.L1
 131              	.L24:
 132 009e 1AE0     		b	.L1
 133              	.L25:
 106:.\main.c      **** 
 134              		.loc 1 106 0
 135 00a0 C046     		mov	r8, r8
 136 00a2 18E0     		b	.L1
 137              	.L26:
  97:.\main.c      **** 
 138              		.loc 1 97 0
 139 00a4 C046     		mov	r8, r8
 140 00a6 16E0     		b	.L1
 141              	.L27:
 100:.\main.c      **** 
 142              		.loc 1 100 0
 143 00a8 C046     		mov	r8, r8
 144 00aa 14E0     		b	.L1
 145              	.L28:
 112:.\main.c      **** 
 146              		.loc 1 112 0
 147 00ac C046     		mov	r8, r8
 148 00ae 12E0     		b	.L1
 149              	.L29:
 109:.\main.c      **** 
 150              		.loc 1 109 0
 151 00b0 C046     		mov	r8, r8
 152 00b2 10E0     		b	.L1
 153              	.L30:
 116:.\main.c      ****         case CYBLE_EVT_GAP_AUTH_FAILED:
 154              		.loc 1 116 0
 155 00b4 C046     		mov	r8, r8
 156 00b6 0EE0     		b	.L1
 157              	.L31:
 119:.\main.c      **** 
 158              		.loc 1 119 0
 159 00b8 C046     		mov	r8, r8
 160 00ba 0CE0     		b	.L1
 161              	.L32:
 131:.\main.c      **** 
 162              		.loc 1 131 0
 163 00bc C046     		mov	r8, r8
 164 00be 0AE0     		b	.L1
 165              	.L33:
 122:.\main.c      **** 
 166              		.loc 1 122 0
 167 00c0 C046     		mov	r8, r8
 168 00c2 08E0     		b	.L1
ARM GAS  C:\Users\merlin\AppData\Local\Temp\ccDtQv4x.s 			page 7


 169              	.L34:
 125:.\main.c      **** 
 170              		.loc 1 125 0
 171 00c4 C046     		mov	r8, r8
 172 00c6 06E0     		b	.L1
 173              	.L35:
 137:.\main.c      **** 
 174              		.loc 1 137 0
 175 00c8 C046     		mov	r8, r8
 176 00ca 04E0     		b	.L1
 177              	.L36:
 134:.\main.c      **** 
 178              		.loc 1 134 0
 179 00cc C046     		mov	r8, r8
 180 00ce 02E0     		b	.L1
 181              	.L37:
 140:.\main.c      **** 
 182              		.loc 1 140 0
 183 00d0 C046     		mov	r8, r8
 184 00d2 00E0     		b	.L1
 185              	.L38:
 146:.\main.c      **** 
 186              		.loc 1 146 0
 187 00d4 C046     		mov	r8, r8
 188              	.L1:
 150:.\main.c      ****     }
 151:.\main.c      **** }
 189              		.loc 1 151 0
 190 00d6 BD46     		mov	sp, r7
 191 00d8 02B0     		add	sp, sp, #8
 192              		@ sp needed
 193 00da 80BD     		pop	{r7, pc}
 194              	.L40:
 195              		.align	2
 196              	.L39:
 197 00dc 00000000 		.word	alertLevel
 198 00e0 00000000 		.word	cyBle_state
 199              		.cfi_endproc
 200              	.LFE37:
 201              		.size	StackEventHandler, .-StackEventHandler
 202              		.section	.text.main,"ax",%progbits
 203              		.align	2
 204              		.global	main
 205              		.code	16
 206              		.thumb_func
 207              		.type	main, %function
 208              	main:
 209              	.LFB38:
 152:.\main.c      **** 
 153:.\main.c      **** 
 154:.\main.c      **** /*******************************************************************************
 155:.\main.c      **** * Function Name: main
 156:.\main.c      **** ********************************************************************************
 157:.\main.c      **** *
 158:.\main.c      **** * Summary:
 159:.\main.c      **** *  Main function.
 160:.\main.c      **** *
ARM GAS  C:\Users\merlin\AppData\Local\Temp\ccDtQv4x.s 			page 8


 161:.\main.c      **** * Parameters:
 162:.\main.c      **** *  None
 163:.\main.c      **** *
 164:.\main.c      **** * Return:
 165:.\main.c      **** *  None
 166:.\main.c      **** *
 167:.\main.c      **** *******************************************************************************/
 168:.\main.c      **** int main()
 169:.\main.c      **** {
 210              		.loc 1 169 0
 211              		.cfi_startproc
 212 0000 90B5     		push	{r4, r7, lr}
 213              		.cfi_def_cfa_offset 12
 214              		.cfi_offset 4, -12
 215              		.cfi_offset 7, -8
 216              		.cfi_offset 14, -4
 217 0002 83B0     		sub	sp, sp, #12
 218              		.cfi_def_cfa_offset 24
 219 0004 00AF     		add	r7, sp, #0
 220              		.cfi_def_cfa_register 7
 170:.\main.c      ****     CYBLE_API_RESULT_T apiResult;
 171:.\main.c      **** 
 172:.\main.c      ****     CyGlobalIntEnable;
 221              		.loc 1 172 0
 222              	@ 172 ".\main.c" 1
 223 0006 62B6     		CPSIE   i
 224              	@ 0 "" 2
 173:.\main.c      **** 
 174:.\main.c      ****     apiResult = CyBle_Start(StackEventHandler);
 225              		.loc 1 174 0
 226              		.code	16
 227 0008 BC1D     		add	r4, r7, #6
 228 000a 404B     		ldr	r3, .L52
 229 000c 181C     		mov	r0, r3
 230 000e FFF7FEFF 		bl	CyBle_Start
 231 0012 031C     		mov	r3, r0
 232 0014 2380     		strh	r3, [r4]
 175:.\main.c      **** 
 176:.\main.c      ****     if(apiResult != CYBLE_ERROR_OK)
 233              		.loc 1 176 0
 234 0016 BB1D     		add	r3, r7, #6
 235 0018 1B88     		ldrh	r3, [r3]
 236 001a 002B     		cmp	r3, #0
 237 001c 02D0     		beq	.L42
 177:.\main.c      ****     {
 178:.\main.c      ****         /* BLE stack initialization failed, check your configuration */
 179:.\main.c      ****         CYASSERT(0);
 238              		.loc 1 179 0 discriminator 1
 239 001e 0020     		mov	r0, #0
 240 0020 FFF7FEFF 		bl	CyHalt
 241              	.L42:
 180:.\main.c      ****     }
 181:.\main.c      **** 
 182:.\main.c      ****     CyBle_IasRegisterAttrCallback(IasEventHandler);
 242              		.loc 1 182 0
 243 0024 3A4B     		ldr	r3, .L52+4
 244 0026 181C     		mov	r0, r3
ARM GAS  C:\Users\merlin\AppData\Local\Temp\ccDtQv4x.s 			page 9


 245 0028 FFF7FEFF 		bl	CyBle_IasRegisterAttrCallback
 246              	.L51:
 247              	.LBB2:
 183:.\main.c      **** 
 184:.\main.c      ****     for(;;)
 185:.\main.c      ****     {
 186:.\main.c      ****         static uint8 toggleTimeout = 0;
 187:.\main.c      ****         CYBLE_BLESS_STATE_T blessState;
 188:.\main.c      ****         uint8 intrStatus;
 189:.\main.c      **** 
 190:.\main.c      ****         /* Single API call to service all the BLE stack events. Must be
 191:.\main.c      ****          * called at least once in a BLE connection interval */
 192:.\main.c      ****         CyBle_ProcessEvents();
 248              		.loc 1 192 0
 249 002c FFF7FEFF 		bl	CyBle_ProcessEvents
 193:.\main.c      ****         
 194:.\main.c      ****         /* Update Alert Level value on the blue LED */
 195:.\main.c      ****         switch(alertLevel)
 250              		.loc 1 195 0
 251 0030 384B     		ldr	r3, .L52+8
 252 0032 1B78     		ldrb	r3, [r3]
 253 0034 012B     		cmp	r3, #1
 254 0036 07D0     		beq	.L44
 255 0038 022B     		cmp	r3, #2
 256 003a 2ED0     		beq	.L45
 257 003c 002B     		cmp	r3, #0
 258 003e 40D1     		bne	.L43
 196:.\main.c      ****         {
 197:.\main.c      ****             case NO_ALERT:
 198:.\main.c      ****             Alert_LED_Write(LED_OFF);
 259              		.loc 1 198 0
 260 0040 0120     		mov	r0, #1
 261 0042 FFF7FEFF 		bl	Alert_LED_Write
 199:.\main.c      ****             break;
 262              		.loc 1 199 0
 263 0046 3CE0     		b	.L43
 264              	.L44:
 200:.\main.c      **** 
 201:.\main.c      ****             case MILD_ALERT:
 202:.\main.c      ****             toggleTimeout++;
 265              		.loc 1 202 0
 266 0048 334B     		ldr	r3, .L52+12
 267 004a 1B78     		ldrb	r3, [r3]
 268 004c 0133     		add	r3, r3, #1
 269 004e DAB2     		uxtb	r2, r3
 270 0050 314B     		ldr	r3, .L52+12
 271 0052 1A70     		strb	r2, [r3]
 203:.\main.c      ****             if(toggleTimeout == LED_TOGGLE_TIMEOUT)
 272              		.loc 1 203 0
 273 0054 304B     		ldr	r3, .L52+12
 274 0056 1B78     		ldrb	r3, [r3]
 275 0058 642B     		cmp	r3, #100
 276 005a 1DD1     		bne	.L47
 204:.\main.c      ****             {
 205:.\main.c      ****                 /* Toggle alert LED after timeout */
 206:.\main.c      ****                 Alert_LED_Write(Alert_LED_Read() ^ 0x01);
 277              		.loc 1 206 0
ARM GAS  C:\Users\merlin\AppData\Local\Temp\ccDtQv4x.s 			page 10


 278 005c FFF7FEFF 		bl	Alert_LED_Read
 279 0060 031C     		mov	r3, r0
 280 0062 1A1C     		mov	r2, r3
 281 0064 0123     		mov	r3, #1
 282 0066 5340     		eor	r3, r2
 283 0068 DBB2     		uxtb	r3, r3
 284 006a 181C     		mov	r0, r3
 285 006c FFF7FEFF 		bl	Alert_LED_Write
 207:.\main.c      ****                 toggleTimeout = 0;
 286              		.loc 1 207 0
 287 0070 294B     		ldr	r3, .L52+12
 288 0072 0022     		mov	r2, #0
 289 0074 1A70     		strb	r2, [r3]
 208:.\main.c      ****                 Laser_Write( ON );
 290              		.loc 1 208 0
 291 0076 0F20     		mov	r0, #15
 292 0078 FFF7FEFF 		bl	Laser_Write
 209:.\main.c      ****                 LED_Write( ON );
 293              		.loc 1 209 0
 294 007c 0F20     		mov	r0, #15
 295 007e FFF7FEFF 		bl	LED_Write
 210:.\main.c      ****                 CyDelay( 30000 );
 296              		.loc 1 210 0
 297 0082 264B     		ldr	r3, .L52+16
 298 0084 181C     		mov	r0, r3
 299 0086 FFF7FEFF 		bl	CyDelay
 211:.\main.c      ****                 Laser_Write( OFF );
 300              		.loc 1 211 0
 301 008a 0020     		mov	r0, #0
 302 008c FFF7FEFF 		bl	Laser_Write
 212:.\main.c      ****                 LED_Write( OFF );
 303              		.loc 1 212 0
 304 0090 0020     		mov	r0, #0
 305 0092 FFF7FEFF 		bl	LED_Write
 213:.\main.c      ****             }
 214:.\main.c      ****             break;
 306              		.loc 1 214 0
 307 0096 14E0     		b	.L43
 308              	.L47:
 309 0098 13E0     		b	.L43
 310              	.L45:
 215:.\main.c      **** 
 216:.\main.c      ****             case HIGH_ALERT:
 217:.\main.c      ****             Alert_LED_Write(LED_ON);
 311              		.loc 1 217 0
 312 009a 0020     		mov	r0, #0
 313 009c FFF7FEFF 		bl	Alert_LED_Write
 218:.\main.c      ****                 Laser_Write( ON );
 314              		.loc 1 218 0
 315 00a0 0F20     		mov	r0, #15
 316 00a2 FFF7FEFF 		bl	Laser_Write
 219:.\main.c      ****                 LED_Write( ON );
 317              		.loc 1 219 0
 318 00a6 0F20     		mov	r0, #15
 319 00a8 FFF7FEFF 		bl	LED_Write
 220:.\main.c      ****                 CyDelay( 900000 );
 320              		.loc 1 220 0
ARM GAS  C:\Users\merlin\AppData\Local\Temp\ccDtQv4x.s 			page 11


 321 00ac 1C4B     		ldr	r3, .L52+20
 322 00ae 181C     		mov	r0, r3
 323 00b0 FFF7FEFF 		bl	CyDelay
 221:.\main.c      ****                 Laser_Write( OFF );
 324              		.loc 1 221 0
 325 00b4 0020     		mov	r0, #0
 326 00b6 FFF7FEFF 		bl	Laser_Write
 222:.\main.c      ****                 LED_Write( OFF );
 327              		.loc 1 222 0
 328 00ba 0020     		mov	r0, #0
 329 00bc FFF7FEFF 		bl	LED_Write
 223:.\main.c      ****             break;
 330              		.loc 1 223 0
 331 00c0 C046     		mov	r8, r8
 332              	.L43:
 224:.\main.c      ****         }
 225:.\main.c      **** 
 226:.\main.c      ****         /* Configure BLESS in Deep-Sleep mode */
 227:.\main.c      ****         CyBle_EnterLPM(CYBLE_BLESS_DEEPSLEEP);
 333              		.loc 1 227 0
 334 00c2 0320     		mov	r0, #3
 335 00c4 FFF7FEFF 		bl	CyBle_EnterLPM
 228:.\main.c      ****         
 229:.\main.c      ****         /* Prevent interrupts while entering system low power modes */
 230:.\main.c      ****         intrStatus = CyEnterCriticalSection();
 336              		.loc 1 230 0
 337 00c8 7C1D     		add	r4, r7, #5
 338 00ca FFF7FEFF 		bl	CyEnterCriticalSection
 339 00ce 031C     		mov	r3, r0
 340 00d0 2370     		strb	r3, [r4]
 231:.\main.c      ****         
 232:.\main.c      ****         /* Get the current state of BLESS block */
 233:.\main.c      ****         blessState = CyBle_GetBleSsState();
 341              		.loc 1 233 0
 342 00d2 3C1D     		add	r4, r7, #4
 343 00d4 FFF7FEFF 		bl	CyBle_GetBleSsState
 344 00d8 031C     		mov	r3, r0
 345 00da 2370     		strb	r3, [r4]
 234:.\main.c      ****         
 235:.\main.c      ****         /* If BLESS is in Deep-Sleep mode or the XTAL oscillator is turning on, 
 236:.\main.c      ****          * then PSoC 4 BLE can enter Deep-Sleep mode (1.3uA current consumption) */
 237:.\main.c      ****         if(blessState == CYBLE_BLESS_STATE_ECO_ON || 
 346              		.loc 1 237 0
 347 00dc 3B1D     		add	r3, r7, #4
 348 00de 1B78     		ldrb	r3, [r3]
 349 00e0 042B     		cmp	r3, #4
 350 00e2 03D0     		beq	.L48
 351              		.loc 1 237 0 is_stmt 0 discriminator 1
 352 00e4 3B1D     		add	r3, r7, #4
 353 00e6 1B78     		ldrb	r3, [r3]
 354 00e8 062B     		cmp	r3, #6
 355 00ea 02D1     		bne	.L49
 356              	.L48:
 238:.\main.c      ****             blessState == CYBLE_BLESS_STATE_DEEPSLEEP)
 239:.\main.c      ****         {
 240:.\main.c      ****             CySysPmDeepSleep();
 357              		.loc 1 240 0 is_stmt 1
ARM GAS  C:\Users\merlin\AppData\Local\Temp\ccDtQv4x.s 			page 12


 358 00ec FFF7FEFF 		bl	CySysPmDeepSleep
 359 00f0 05E0     		b	.L50
 360              	.L49:
 241:.\main.c      ****         }
 242:.\main.c      ****         else if(blessState != CYBLE_BLESS_STATE_EVENT_CLOSE)
 361              		.loc 1 242 0
 362 00f2 3B1D     		add	r3, r7, #4
 363 00f4 1B78     		ldrb	r3, [r3]
 364 00f6 022B     		cmp	r3, #2
 365 00f8 01D0     		beq	.L50
 243:.\main.c      ****         {
 244:.\main.c      ****             /* If BLESS is active, then configure PSoC 4 BLE system in 
 245:.\main.c      ****              * Sleep mode (~1.6mA current consumption) */
 246:.\main.c      ****             CySysPmSleep();
 366              		.loc 1 246 0
 367 00fa FFF7FEFF 		bl	CySysPmSleep
 368              	.L50:
 247:.\main.c      ****         }
 248:.\main.c      ****         else
 249:.\main.c      ****         {
 250:.\main.c      ****             /* Keep trying to enter either Sleep or Deep-Sleep mode */    
 251:.\main.c      ****         }
 252:.\main.c      ****         CyExitCriticalSection(intrStatus);
 369              		.loc 1 252 0
 370 00fe 7B1D     		add	r3, r7, #5
 371 0100 1B78     		ldrb	r3, [r3]
 372 0102 181C     		mov	r0, r3
 373 0104 FFF7FEFF 		bl	CyExitCriticalSection
 374              	.LBE2:
 253:.\main.c      ****         
 254:.\main.c      ****         /* BLE link layer timing interrupt will wake up the system from Sleep 
 255:.\main.c      ****          * and Deep-Sleep modes */
 256:.\main.c      ****     }
 375              		.loc 1 256 0
 376 0108 90E7     		b	.L51
 377              	.L53:
 378 010a C046     		.align	2
 379              	.L52:
 380 010c 00000000 		.word	StackEventHandler
 381 0110 00000000 		.word	IasEventHandler
 382 0114 00000000 		.word	alertLevel
 383 0118 00000000 		.word	toggleTimeout.6490
 384 011c 30750000 		.word	30000
 385 0120 A0BB0D00 		.word	900000
 386              		.cfi_endproc
 387              	.LFE38:
 388              		.size	main, .-main
 389              		.bss
 390              	toggleTimeout.6490:
 391 0000 00       		.space	1
 392              		.text
 393              	.Letext0:
 394              		.file 2 "Generated_Source\\PSoC4/cytypes.h"
 395              		.file 3 "Generated_Source\\PSoC4/BLE_Stack.h"
 396              		.file 4 "Generated_Source\\PSoC4/BLE_eventHandler.h"
 397              		.file 5 ".\\ias.h"