ARM GAS  C:\Users\merlin\AppData\Local\Temp\ccJ1J6Wj.s 			page 1


   1              		.cpu cortex-m0
   2              		.fpu softvfp
   3              		.eabi_attribute 20, 1
   4              		.eabi_attribute 21, 1
   5              		.eabi_attribute 23, 3
   6              		.eabi_attribute 24, 1
   7              		.eabi_attribute 25, 1
   8              		.eabi_attribute 26, 1
   9              		.eabi_attribute 30, 1
  10              		.eabi_attribute 34, 0
  11              		.eabi_attribute 18, 4
  12              		.code	16
  13              		.file	"accelerometer.c"
  14              		.text
  15              	.Ltext0:
  16              		.cfi_sections	.debug_frame
  17              		.section	.text.Accelerometer_RegWrite,"ax",%progbits
  18              		.align	2
  19              		.code	16
  20              		.thumb_func
  21              		.type	Accelerometer_RegWrite, %function
  22              	Accelerometer_RegWrite:
  23              	.LFB34:
  24              		.file 1 ".\\accelerometer.c"
   1:.\accelerometer.c **** /*****************************************************************************
   2:.\accelerometer.c **** * File Name: accelerometer.c
   3:.\accelerometer.c **** *
   4:.\accelerometer.c **** * Version 1.0
   5:.\accelerometer.c **** *
   6:.\accelerometer.c **** * Description:
   7:.\accelerometer.c **** *  This file provides functions to configure the onboard accelerometer of the 
   8:.\accelerometer.c **** *  PSoC 4 M-Series Pioneer Kit. This file also defines function to read the 
   9:.\accelerometer.c **** *  acceleration data from the accelerometer.
  10:.\accelerometer.c **** ******************************************************************************
  11:.\accelerometer.c **** * Copyright (2015), Cypress Semiconductor Corporation.
  12:.\accelerometer.c **** ******************************************************************************
  13:.\accelerometer.c **** * This software is owned by Cypress Semiconductor Corporation (Cypress) and is
  14:.\accelerometer.c **** * protected by and subject to worldwide patent protection (United States and
  15:.\accelerometer.c **** * foreign), United States copyright laws and international treaty provisions.
  16:.\accelerometer.c **** * Cypress hereby grants to licensee a personal, non-exclusive, non-transferable
  17:.\accelerometer.c **** * license to copy, use, modify, create derivative works of, and compile the
  18:.\accelerometer.c **** * Cypress Source Code and derivative works for the sole purpose of creating
  19:.\accelerometer.c **** * custom software in support of licensee product to be used only in conjunction
  20:.\accelerometer.c **** * with a Cypress integrated circuit as specified in the applicable agreement.
  21:.\accelerometer.c **** * Any reproduction, modification, translation, compilation, or representation of
  22:.\accelerometer.c **** * this software except as specified above is prohibited without the express
  23:.\accelerometer.c **** * written permission of Cypress.
  24:.\accelerometer.c **** *
  25:.\accelerometer.c **** * Disclaimer: CYPRESS MAKES NO WARRANTY OF ANY KIND, EXPRESS OR IMPLIED, WITH
  26:.\accelerometer.c **** * REGARD TO THIS MATERIAL, INCLUDING, BUT NOT LIMITED TO, THE IMPLIED
  27:.\accelerometer.c **** * WARRANTIES OF MERCHANTABILITY AND FITNESS FOR A PARTICULAR PURPOSE.
  28:.\accelerometer.c **** * Cypress reserves the right to make changes without further notice to the
  29:.\accelerometer.c **** * materials described herein. Cypress does not assume any liability arising out
  30:.\accelerometer.c **** * of the application or use of any product or circuit described herein. Cypress
  31:.\accelerometer.c **** * does not authorize its products for use as critical components in life-support
  32:.\accelerometer.c **** * systems where a malfunction or failure may reasonably be expected to result in
  33:.\accelerometer.c **** * significant injury to the user. The inclusion of Cypress' product in a life-
ARM GAS  C:\Users\merlin\AppData\Local\Temp\ccJ1J6Wj.s 			page 2


  34:.\accelerometer.c **** * support systems application implies that the manufacturer assumes all risk of
  35:.\accelerometer.c **** * such use and in doing so indemnifies Cypress against all charges. Use may be
  36:.\accelerometer.c **** * limited by and subject to the applicable Cypress software license agreement.
  37:.\accelerometer.c **** *****************************************************************************/
  38:.\accelerometer.c **** #include "accelerometer.h"
  39:.\accelerometer.c **** #include "project.h"
  40:.\accelerometer.c **** 
  41:.\accelerometer.c **** /*****************************************************************************
  42:.\accelerometer.c **** * Local Function Prototypes
  43:.\accelerometer.c **** *****************************************************************************/
  44:.\accelerometer.c **** static uint8 Accelerometer_RegWrite(uint8 reg, uint8 value);
  45:.\accelerometer.c **** 
  46:.\accelerometer.c **** 
  47:.\accelerometer.c **** /*****************************************************************************
  48:.\accelerometer.c **** * Global Variable Declarations
  49:.\accelerometer.c **** *****************************************************************************/
  50:.\accelerometer.c **** 
  51:.\accelerometer.c **** 
  52:.\accelerometer.c **** /*****************************************************************************
  53:.\accelerometer.c **** * Local Global Variable Declarations
  54:.\accelerometer.c **** *****************************************************************************/
  55:.\accelerometer.c **** 
  56:.\accelerometer.c **** 
  57:.\accelerometer.c **** /*******************************************************************************
  58:.\accelerometer.c **** * Function Name: Accelerometer_RegWrite
  59:.\accelerometer.c **** ********************************************************************************
  60:.\accelerometer.c **** * Summary:
  61:.\accelerometer.c **** * 	Write a single byte to a specified register location.
  62:.\accelerometer.c **** *
  63:.\accelerometer.c **** * Parameters:
  64:.\accelerometer.c **** *  uint8 reg: Register to which data is to be written.
  65:.\accelerometer.c **** *  uint8 *value: Variable which holds the data to be written.
  66:.\accelerometer.c **** *
  67:.\accelerometer.c **** * Return:
  68:.\accelerometer.c **** *  uint8: Status of write operation
  69:.\accelerometer.c **** *
  70:.\accelerometer.c **** *******************************************************************************/
  71:.\accelerometer.c **** static uint8 Accelerometer_RegWrite(uint8 reg, uint8 value)
  72:.\accelerometer.c **** {
  25              		.loc 1 72 0
  26              		.cfi_startproc
  27              	.LVL0:
  28 0000 38B5     		push	{r3, r4, r5, lr}
  29              		.cfi_def_cfa_offset 16
  30              		.cfi_offset 3, -16
  31              		.cfi_offset 4, -12
  32              		.cfi_offset 5, -8
  33              		.cfi_offset 14, -4
  34 0002 051C     		mov	r5, r0
  35 0004 0C1C     		mov	r4, r1
  36              	.LVL1:
  73:.\accelerometer.c **** 	uint8 ackStatus = COMM_FAIL;
  74:.\accelerometer.c **** 	ackStatus = I2C_I2CMasterSendStart(ACCELEROMETER_ADDR, ACC_WRITE);
  37              		.loc 1 74 0
  38 0006 0F20     		mov	r0, #15
  39              	.LVL2:
  40 0008 0021     		mov	r1, #0
ARM GAS  C:\Users\merlin\AppData\Local\Temp\ccJ1J6Wj.s 			page 3


  41              	.LVL3:
  42 000a FFF7FEFF 		bl	I2C_I2CMasterSendStart
  43              	.LVL4:
  44 000e C0B2     		uxtb	r0, r0
  45              	.LVL5:
  75:.\accelerometer.c **** 	if(ackStatus == I2C_I2C_MSTR_NO_ERROR)
  46              		.loc 1 75 0
  47 0010 0028     		cmp	r0, #0
  48 0012 05D1     		bne	.L2
  76:.\accelerometer.c **** 	{
  77:.\accelerometer.c **** 		ackStatus = I2C_I2CMasterWriteByte(reg);
  49              		.loc 1 77 0
  50 0014 281C     		mov	r0, r5
  51              	.LVL6:
  52 0016 FFF7FEFF 		bl	I2C_I2CMasterWriteByte
  53              	.LVL7:
  78:.\accelerometer.c **** 		ackStatus = I2C_I2CMasterWriteByte(value);
  54              		.loc 1 78 0
  55 001a 201C     		mov	r0, r4
  56 001c FFF7FEFF 		bl	I2C_I2CMasterWriteByte
  57              	.LVL8:
  58              	.L2:
  79:.\accelerometer.c **** 	}
  80:.\accelerometer.c **** 	ackStatus = I2C_I2CMasterSendStop();
  59              		.loc 1 80 0
  60 0020 FFF7FEFF 		bl	I2C_I2CMasterSendStop
  61              	.LVL9:
  62 0024 C0B2     		uxtb	r0, r0
  63              	.LVL10:
  81:.\accelerometer.c **** 	return(ackStatus);
  82:.\accelerometer.c **** }
  64              		.loc 1 82 0
  65              		@ sp needed
  66 0026 38BD     		pop	{r3, r4, r5, pc}
  67              		.cfi_endproc
  68              	.LFE34:
  69              		.size	Accelerometer_RegWrite, .-Accelerometer_RegWrite
  70              		.section	.text.Accelerometer_RegRead,"ax",%progbits
  71              		.align	2
  72              		.global	Accelerometer_RegRead
  73              		.code	16
  74              		.thumb_func
  75              		.type	Accelerometer_RegRead, %function
  76              	Accelerometer_RegRead:
  77              	.LFB35:
  83:.\accelerometer.c **** 
  84:.\accelerometer.c **** /*******************************************************************************
  85:.\accelerometer.c **** * Function Name: Accelerometer_RegRead
  86:.\accelerometer.c **** ********************************************************************************
  87:.\accelerometer.c **** * Summary:
  88:.\accelerometer.c **** * 	Read a single byte from a specified register location.
  89:.\accelerometer.c **** *
  90:.\accelerometer.c **** * Parameters:
  91:.\accelerometer.c **** *  uint8 reg: Register from where data is to be read.
  92:.\accelerometer.c **** *  uint8 *value: Variable to which the data from register is stored.
  93:.\accelerometer.c **** *
  94:.\accelerometer.c **** * Return:
ARM GAS  C:\Users\merlin\AppData\Local\Temp\ccJ1J6Wj.s 			page 4


  95:.\accelerometer.c **** *  uint8: Status of read operation
  96:.\accelerometer.c **** *
  97:.\accelerometer.c **** *******************************************************************************/
  98:.\accelerometer.c **** uint8 Accelerometer_RegRead(uint8 reg, uint8 *value)
  99:.\accelerometer.c **** {
  78              		.loc 1 99 0
  79              		.cfi_startproc
  80              	.LVL11:
  81 0000 38B5     		push	{r3, r4, r5, lr}
  82              		.cfi_def_cfa_offset 16
  83              		.cfi_offset 3, -16
  84              		.cfi_offset 4, -12
  85              		.cfi_offset 5, -8
  86              		.cfi_offset 14, -4
  87 0002 051C     		mov	r5, r0
  88 0004 0C1C     		mov	r4, r1
  89              	.LVL12:
 100:.\accelerometer.c **** 	uint8 ackStatus = COMM_FAIL;
 101:.\accelerometer.c **** 	ackStatus = I2C_I2CMasterSendStart(ACCELEROMETER_ADDR, ACC_WRITE);
  90              		.loc 1 101 0
  91 0006 0F20     		mov	r0, #15
  92              	.LVL13:
  93 0008 0021     		mov	r1, #0
  94              	.LVL14:
  95 000a FFF7FEFF 		bl	I2C_I2CMasterSendStart
  96              	.LVL15:
  97 000e C0B2     		uxtb	r0, r0
  98              	.LVL16:
 102:.\accelerometer.c **** 	if(ackStatus == I2C_I2C_MSTR_NO_ERROR)
  99              		.loc 1 102 0
 100 0010 0028     		cmp	r0, #0
 101 0012 0AD1     		bne	.L4
 103:.\accelerometer.c **** 	{
 104:.\accelerometer.c **** 		ackStatus = I2C_I2CMasterWriteByte(reg);
 102              		.loc 1 104 0
 103 0014 281C     		mov	r0, r5
 104              	.LVL17:
 105 0016 FFF7FEFF 		bl	I2C_I2CMasterWriteByte
 106              	.LVL18:
 105:.\accelerometer.c **** 		ackStatus = I2C_I2CMasterSendRestart(ACCELEROMETER_ADDR, ACC_READ);
 107              		.loc 1 105 0
 108 001a 0F20     		mov	r0, #15
 109 001c 0121     		mov	r1, #1
 110 001e FFF7FEFF 		bl	I2C_I2CMasterSendRestart
 111              	.LVL19:
 106:.\accelerometer.c **** 		*value = I2C_I2CMasterReadByte(I2C_I2C_NAK_DATA);
 112              		.loc 1 106 0
 113 0022 0120     		mov	r0, #1
 114 0024 FFF7FEFF 		bl	I2C_I2CMasterReadByte
 115              	.LVL20:
 116 0028 2070     		strb	r0, [r4]
 117              	.L4:
 107:.\accelerometer.c **** 	}
 108:.\accelerometer.c **** 	ackStatus = I2C_I2CMasterSendStop();
 118              		.loc 1 108 0
 119 002a FFF7FEFF 		bl	I2C_I2CMasterSendStop
 120              	.LVL21:
ARM GAS  C:\Users\merlin\AppData\Local\Temp\ccJ1J6Wj.s 			page 5


 121 002e C0B2     		uxtb	r0, r0
 122              	.LVL22:
 109:.\accelerometer.c **** 	return(ackStatus);
 110:.\accelerometer.c **** }
 123              		.loc 1 110 0
 124              		@ sp needed
 125              	.LVL23:
 126 0030 38BD     		pop	{r3, r4, r5, pc}
 127              		.cfi_endproc
 128              	.LFE35:
 129              		.size	Accelerometer_RegRead, .-Accelerometer_RegRead
 130 0032 C046     		.section	.text.Accelerometer_SelfTest,"ax",%progbits
 131              		.align	2
 132              		.global	Accelerometer_SelfTest
 133              		.code	16
 134              		.thumb_func
 135              		.type	Accelerometer_SelfTest, %function
 136              	Accelerometer_SelfTest:
 137              	.LFB36:
 111:.\accelerometer.c **** 
 112:.\accelerometer.c **** /*******************************************************************************
 113:.\accelerometer.c **** * Function Name: Accelerometer_SelfTest
 114:.\accelerometer.c **** ********************************************************************************
 115:.\accelerometer.c **** * Summary:
 116:.\accelerometer.c **** * 	Runs a test routine to make sure that the accelerometer communication is 
 117:.\accelerometer.c **** *   functional.
 118:.\accelerometer.c **** *
 119:.\accelerometer.c **** * Parameters:
 120:.\accelerometer.c **** *  void
 121:.\accelerometer.c **** *
 122:.\accelerometer.c **** * Return:
 123:.\accelerometer.c **** *  uint8: Communication functional status.
 124:.\accelerometer.c **** *
 125:.\accelerometer.c **** *******************************************************************************/
 126:.\accelerometer.c **** uint8 Accelerometer_SelfTest(void)
 127:.\accelerometer.c **** {
 138              		.loc 1 127 0
 139              		.cfi_startproc
 140 0000 10B5     		push	{r4, lr}
 141              		.cfi_def_cfa_offset 8
 142              		.cfi_offset 4, -8
 143              		.cfi_offset 14, -4
 144 0002 82B0     		sub	sp, sp, #8
 145              		.cfi_def_cfa_offset 16
 146              	.LVL24:
 128:.\accelerometer.c **** 	uint8 accStatus = ACC_FAIL;
 129:.\accelerometer.c **** 	uint8 accRegValue = ZERO;
 147              		.loc 1 129 0
 148 0004 6B46     		mov	r3, sp
 149 0006 D91D     		add	r1, r3, #7
 150 0008 0023     		mov	r3, #0
 151 000a 0B70     		strb	r3, [r1]
 152              	.LVL25:
 130:.\accelerometer.c **** 	uint8 commStatus = COMM_FAIL;
 131:.\accelerometer.c **** 	
 132:.\accelerometer.c **** 	/* Read the initial value of the DCST register. This must be 0x55 at reset. */
 133:.\accelerometer.c **** 	commStatus = Accelerometer_RegRead(ACC_DCST_RESP, &accRegValue);
ARM GAS  C:\Users\merlin\AppData\Local\Temp\ccJ1J6Wj.s 			page 6


 153              		.loc 1 133 0
 154 000c 0C20     		mov	r0, #12
 155 000e FFF7FEFF 		bl	Accelerometer_RegRead
 156              	.LVL26:
 134:.\accelerometer.c **** 	if(commStatus == COMM_PASS && accRegValue == ACC_SELF_TEST_VAL_1)
 157              		.loc 1 134 0
 158 0012 0028     		cmp	r0, #0
 159 0014 34D1     		bne	.L7
 160              		.loc 1 134 0 is_stmt 0 discriminator 1
 161 0016 6B46     		mov	r3, sp
 162 0018 0733     		add	r3, r3, #7
 163 001a 1B78     		ldrb	r3, [r3]
 164 001c 552B     		cmp	r3, #85
 165 001e 31D1     		bne	.L8
 135:.\accelerometer.c **** 	{
 136:.\accelerometer.c **** 		/* Set the PC1 bit of the CTRL_1 register of accelerometer to 0. 
 137:.\accelerometer.c **** 		 * This puts the accelerometer in standby mode. */
 138:.\accelerometer.c **** 		commStatus = Accelerometer_RegRead(ACC_CTRL_REG_1, &accRegValue);
 166              		.loc 1 138 0 is_stmt 1
 167 0020 6B46     		mov	r3, sp
 168 0022 DC1D     		add	r4, r3, #7
 169 0024 1B30     		add	r0, r0, #27
 170              	.LVL27:
 171 0026 211C     		mov	r1, r4
 172 0028 FFF7FEFF 		bl	Accelerometer_RegRead
 173              	.LVL28:
 139:.\accelerometer.c **** 		accRegValue = accRegValue & ACC_PC1_BIT_AND_MASK;
 174              		.loc 1 139 0
 175 002c 2378     		ldrb	r3, [r4]
 176 002e 7F21     		mov	r1, #127
 177 0030 1940     		and	r1, r3
 178 0032 2170     		strb	r1, [r4]
 140:.\accelerometer.c **** 		commStatus = Accelerometer_RegWrite(ACC_CTRL_REG_1, accRegValue);
 179              		.loc 1 140 0
 180 0034 1B20     		mov	r0, #27
 181 0036 FFF7FEFF 		bl	Accelerometer_RegWrite
 182              	.LVL29:
 141:.\accelerometer.c **** 		
 142:.\accelerometer.c **** 		/* Set the DCST bit of CTRL_2 register of the accelerometer to 
 143:.\accelerometer.c **** 		 * 1 for self-test. */
 144:.\accelerometer.c **** 		commStatus = Accelerometer_RegRead(ACC_CTRL_REG_2, &accRegValue);
 183              		.loc 1 144 0
 184 003a 1D20     		mov	r0, #29
 185 003c 211C     		mov	r1, r4
 186 003e FFF7FEFF 		bl	Accelerometer_RegRead
 187              	.LVL30:
 145:.\accelerometer.c **** 		accRegValue = accRegValue | ACC_DCST_BIT_OR_MASK;
 188              		.loc 1 145 0
 189 0042 2178     		ldrb	r1, [r4]
 190 0044 1023     		mov	r3, #16
 191 0046 1943     		orr	r1, r3
 192 0048 2170     		strb	r1, [r4]
 146:.\accelerometer.c **** 		commStatus = Accelerometer_RegWrite(ACC_CTRL_REG_2, accRegValue);
 193              		.loc 1 146 0
 194 004a 1D20     		mov	r0, #29
 195 004c FFF7FEFF 		bl	Accelerometer_RegWrite
 196              	.LVL31:
ARM GAS  C:\Users\merlin\AppData\Local\Temp\ccJ1J6Wj.s 			page 7


 147:.\accelerometer.c **** 		
 148:.\accelerometer.c **** 		/* Read the DCST value again. This must be 0xAA after the DCST bit
 149:.\accelerometer.c **** 		 * is set to 1 in the CTRL_2 register. */
 150:.\accelerometer.c **** 		commStatus = Accelerometer_RegRead(ACC_DCST_RESP, &accRegValue);
 197              		.loc 1 150 0
 198 0050 0C20     		mov	r0, #12
 199 0052 211C     		mov	r1, r4
 200 0054 FFF7FEFF 		bl	Accelerometer_RegRead
 201              	.LVL32:
 151:.\accelerometer.c **** 		if(commStatus == COMM_PASS && accRegValue == ACC_SELF_TEST_VAL_2)
 202              		.loc 1 151 0
 203 0058 0028     		cmp	r0, #0
 204 005a 15D1     		bne	.L9
 205              		.loc 1 151 0 is_stmt 0 discriminator 1
 206 005c 6B46     		mov	r3, sp
 207 005e 0733     		add	r3, r3, #7
 208 0060 1B78     		ldrb	r3, [r3]
 209 0062 AA2B     		cmp	r3, #170
 210 0064 12D1     		bne	.L10
 152:.\accelerometer.c **** 		{
 153:.\accelerometer.c **** 			/* Read the DCST value again. This must be 0x55 after the 
 154:.\accelerometer.c **** 			 * register is read once. */
 155:.\accelerometer.c **** 			commStatus = Accelerometer_RegRead(ACC_DCST_RESP, &accRegValue);
 211              		.loc 1 155 0 is_stmt 1
 212 0066 0C30     		add	r0, r0, #12
 213              	.LVL33:
 214 0068 6B46     		mov	r3, sp
 215 006a D91D     		add	r1, r3, #7
 216 006c FFF7FEFF 		bl	Accelerometer_RegRead
 217              	.LVL34:
 156:.\accelerometer.c **** 			if(commStatus == COMM_PASS && accRegValue == ACC_SELF_TEST_VAL_1)
 218              		.loc 1 156 0
 219 0070 0028     		cmp	r0, #0
 220 0072 0DD1     		bne	.L11
 221              		.loc 1 156 0 is_stmt 0 discriminator 1
 222 0074 6B46     		mov	r3, sp
 223 0076 0733     		add	r3, r3, #7
 224 0078 1B78     		ldrb	r3, [r3]
 225 007a 552B     		cmp	r3, #85
 226 007c 0AD0     		beq	.L12
 227 007e 0AE0     		b	.L6
 228              	.L7:
 128:.\accelerometer.c **** 	uint8 accRegValue = ZERO;
 229              		.loc 1 128 0 is_stmt 1
 230 0080 0020     		mov	r0, #0
 231              	.LVL35:
 232 0082 08E0     		b	.L6
 233              	.LVL36:
 234              	.L8:
 235 0084 0020     		mov	r0, #0
 236              	.LVL37:
 237 0086 06E0     		b	.L6
 238              	.LVL38:
 239              	.L9:
 240 0088 0020     		mov	r0, #0
 241              	.LVL39:
 242 008a 04E0     		b	.L6
ARM GAS  C:\Users\merlin\AppData\Local\Temp\ccJ1J6Wj.s 			page 8


 243              	.LVL40:
 244              	.L10:
 245 008c 0020     		mov	r0, #0
 246              	.LVL41:
 247 008e 02E0     		b	.L6
 248              	.LVL42:
 249              	.L11:
 250 0090 0020     		mov	r0, #0
 251              	.LVL43:
 252 0092 00E0     		b	.L6
 253              	.LVL44:
 254              	.L12:
 157:.\accelerometer.c **** 			{
 158:.\accelerometer.c **** 				accStatus = ACC_PASS;
 255              		.loc 1 158 0
 256 0094 0120     		mov	r0, #1
 257              	.LVL45:
 258              	.L6:
 159:.\accelerometer.c **** 			}
 160:.\accelerometer.c **** 		}
 161:.\accelerometer.c **** 	}
 162:.\accelerometer.c **** 	return(accStatus);
 163:.\accelerometer.c **** }
 259              		.loc 1 163 0
 260 0096 02B0     		add	sp, sp, #8
 261              		@ sp needed
 262 0098 10BD     		pop	{r4, pc}
 263              		.cfi_endproc
 264              	.LFE36:
 265              		.size	Accelerometer_SelfTest, .-Accelerometer_SelfTest
 266 009a C046     		.section	.text.InitializeAccelerometer,"ax",%progbits
 267              		.align	2
 268              		.global	InitializeAccelerometer
 269              		.code	16
 270              		.thumb_func
 271              		.type	InitializeAccelerometer, %function
 272              	InitializeAccelerometer:
 273              	.LFB37:
 164:.\accelerometer.c **** 
 165:.\accelerometer.c **** /*******************************************************************************
 166:.\accelerometer.c **** * Function Name: InitializeAccelerometer
 167:.\accelerometer.c **** ********************************************************************************
 168:.\accelerometer.c **** * Summary:
 169:.\accelerometer.c **** * 	Initializes the accelerometer control registers for proper operation.
 170:.\accelerometer.c **** *
 171:.\accelerometer.c **** * Parameters:
 172:.\accelerometer.c **** *  void
 173:.\accelerometer.c **** *
 174:.\accelerometer.c **** * Return:
 175:.\accelerometer.c **** *  void
 176:.\accelerometer.c **** *
 177:.\accelerometer.c **** *******************************************************************************/
 178:.\accelerometer.c **** void InitializeAccelerometer(void)
 179:.\accelerometer.c **** {
 274              		.loc 1 179 0
 275              		.cfi_startproc
 276 0000 00B5     		push	{lr}
ARM GAS  C:\Users\merlin\AppData\Local\Temp\ccJ1J6Wj.s 			page 9


 277              		.cfi_def_cfa_offset 4
 278              		.cfi_offset 14, -4
 279 0002 83B0     		sub	sp, sp, #12
 280              		.cfi_def_cfa_offset 16
 281              	.LVL46:
 180:.\accelerometer.c **** 	uint8 accWorkStatus = ACC_FAIL;
 181:.\accelerometer.c **** 	uint8 accRegValue = ZERO;
 282              		.loc 1 181 0
 283 0004 0022     		mov	r2, #0
 284 0006 6B46     		mov	r3, sp
 285 0008 DA71     		strb	r2, [r3, #7]
 286              	.LVL47:
 182:.\accelerometer.c **** 	uint8 commStatus = COMM_FAIL;
 183:.\accelerometer.c **** 	
 184:.\accelerometer.c **** 	/* Ensure proper functioning of hardware */
 185:.\accelerometer.c **** 	accWorkStatus = Accelerometer_SelfTest();
 287              		.loc 1 185 0
 288 000a FFF7FEFF 		bl	Accelerometer_SelfTest
 289              	.LVL48:
 186:.\accelerometer.c **** 	
 187:.\accelerometer.c **** 	
 188:.\accelerometer.c **** 	if(accWorkStatus == ACC_PASS)
 290              		.loc 1 188 0
 291 000e 0128     		cmp	r0, #1
 292 0010 00D0     		beq	.LCB254
 293 0012 BDE0     		b	.L13	@long jump
 294              	.LCB254:
 189:.\accelerometer.c **** 	{
 190:.\accelerometer.c **** 		/* Initialize the CTRL_REG1 after putting the accelerometer in standby mode. */
 191:.\accelerometer.c **** 		accRegValue = accRegValue & ACC_PC1_BIT_AND_MASK;
 295              		.loc 1 191 0
 296 0014 6B46     		mov	r3, sp
 297 0016 DA1D     		add	r2, r3, #7
 298 0018 DB79     		ldrb	r3, [r3, #7]
 299 001a 7F21     		mov	r1, #127
 300 001c 1940     		and	r1, r3
 301 001e 1170     		strb	r1, [r2]
 192:.\accelerometer.c **** 		commStatus = Accelerometer_RegWrite(ACC_CTRL_REG_1, accRegValue);
 302              		.loc 1 192 0
 303 0020 1A30     		add	r0, r0, #26
 304              	.LVL49:
 305 0022 FFF7FEFF 		bl	Accelerometer_RegWrite
 306              	.LVL50:
 193:.\accelerometer.c **** 		
 194:.\accelerometer.c **** 		if(commStatus == COMM_PASS)
 307              		.loc 1 194 0
 308 0026 0028     		cmp	r0, #0
 309 0028 0BD1     		bne	.L30
 195:.\accelerometer.c **** 		{
 196:.\accelerometer.c **** 			/* Modify the current value for the following settings:
 197:.\accelerometer.c **** 			 * RES (Resolution) 								= 12-bit mode
 198:.\accelerometer.c **** 			 * DRDYE (Report acceleration via Interrupt) 		= DISABLED
 199:.\accelerometer.c **** 			 * GSEL1, GSEL0 (Acceleration range of the output) 	= +/-2g
 200:.\accelerometer.c **** 			 * WUFE (Wake Up on Motion Detect) 					= ENABLED
 201:.\accelerometer.c **** 			 */
 202:.\accelerometer.c **** 			accRegValue = accRegValue | ACC_RES_BIT_OR_MASK | ACC_WUFE_BIT_OR_MASK;
 310              		.loc 1 202 0
ARM GAS  C:\Users\merlin\AppData\Local\Temp\ccJ1J6Wj.s 			page 10


 311 002a 6B46     		mov	r3, sp
 312 002c DA1D     		add	r2, r3, #7
 313 002e D979     		ldrb	r1, [r3, #7]
 314 0030 4223     		mov	r3, #66
 315 0032 1943     		orr	r1, r3
 203:.\accelerometer.c **** 			accRegValue = accRegValue & ACC_GSEL0_BIT_AND_MASK & ACC_GSEL1_BIT_AND_MASK & ACC_DRDYE_BIT_AND_
 316              		.loc 1 203 0
 317 0034 0A3B     		sub	r3, r3, #10
 318 0036 9943     		bic	r1, r3
 319 0038 1170     		strb	r1, [r2]
 204:.\accelerometer.c **** 			
 205:.\accelerometer.c **** 			/* Write back the modified value. */
 206:.\accelerometer.c **** 			commStatus = Accelerometer_RegWrite(ACC_CTRL_REG_1, accRegValue);
 320              		.loc 1 206 0
 321 003a 1B30     		add	r0, r0, #27
 322              	.LVL51:
 323 003c FFF7FEFF 		bl	Accelerometer_RegWrite
 324              	.LVL52:
 325 0040 00E0     		b	.L15
 326              	.L30:
 207:.\accelerometer.c **** 		}
 208:.\accelerometer.c **** 		else
 209:.\accelerometer.c **** 		{
 210:.\accelerometer.c **** 			commStatus = COMM_FAIL;
 327              		.loc 1 210 0
 328 0042 0120     		mov	r0, #1
 329              	.LVL53:
 330              	.L15:
 211:.\accelerometer.c **** 		}
 212:.\accelerometer.c **** 		
 213:.\accelerometer.c **** 		if(commStatus == COMM_PASS)
 331              		.loc 1 213 0
 332 0044 0028     		cmp	r0, #0
 333 0046 05D1     		bne	.L31
 214:.\accelerometer.c **** 		{
 215:.\accelerometer.c **** 			/* Initialize the CTRL_REG2 */
 216:.\accelerometer.c **** 			/* Read the current value of the CTRL_REG2 register */
 217:.\accelerometer.c **** 			commStatus = Accelerometer_RegRead(ACC_CTRL_REG_2, &accRegValue);
 334              		.loc 1 217 0
 335 0048 1D30     		add	r0, r0, #29
 336              	.LVL54:
 337 004a 6B46     		mov	r3, sp
 338 004c D91D     		add	r1, r3, #7
 339 004e FFF7FEFF 		bl	Accelerometer_RegRead
 340              	.LVL55:
 341 0052 00E0     		b	.L16
 342              	.L31:
 218:.\accelerometer.c **** 		}
 219:.\accelerometer.c **** 		else
 220:.\accelerometer.c **** 		{
 221:.\accelerometer.c **** 			commStatus = COMM_FAIL;
 343              		.loc 1 221 0
 344 0054 0120     		mov	r0, #1
 345              	.LVL56:
 346              	.L16:
 222:.\accelerometer.c **** 		}
 223:.\accelerometer.c **** 		
ARM GAS  C:\Users\merlin\AppData\Local\Temp\ccJ1J6Wj.s 			page 11


 224:.\accelerometer.c **** 		if(commStatus == COMM_PASS)
 347              		.loc 1 224 0
 348 0056 0028     		cmp	r0, #0
 349 0058 0BD1     		bne	.L32
 225:.\accelerometer.c **** 		{
 226:.\accelerometer.c **** 			/* Modify the current value for the following settings:
 227:.\accelerometer.c **** 			 * SRST (Software Reset)							= FALSE
 228:.\accelerometer.c **** 			 * DCST (Digital Communication Self Test)	 		= DISABLED
 229:.\accelerometer.c **** 			 * OWUFA,OWUFB,OWUFC(Output Data Rate for Wakeup)	= 12.5 Hz
 230:.\accelerometer.c **** 			 */
 231:.\accelerometer.c **** 			accRegValue = accRegValue | ACC_OWUFA_BIT_OR_MASK;
 350              		.loc 1 231 0
 351 005a 6B46     		mov	r3, sp
 352 005c DA1D     		add	r2, r3, #7
 353 005e D979     		ldrb	r1, [r3, #7]
 354 0060 0423     		mov	r3, #4
 355 0062 1943     		orr	r1, r3
 232:.\accelerometer.c **** 			accRegValue = accRegValue & ACC_SRST_BIT_AND_MASK & ACC_DCST_BIT_AND_MASK & ACC_OWUFB_BIT_AND_MA
 356              		.loc 1 232 0
 357 0064 6833     		add	r3, r3, #104
 358 0066 1940     		and	r1, r3
 359 0068 1170     		strb	r1, [r2]
 233:.\accelerometer.c **** 
 234:.\accelerometer.c **** 			/* Write back the modified value. */
 235:.\accelerometer.c **** 			commStatus = Accelerometer_RegWrite(ACC_CTRL_REG_2, accRegValue);
 360              		.loc 1 235 0
 361 006a 1D30     		add	r0, r0, #29
 362              	.LVL57:
 363 006c FFF7FEFF 		bl	Accelerometer_RegWrite
 364              	.LVL58:
 365 0070 00E0     		b	.L17
 366              	.L32:
 236:.\accelerometer.c **** 		}
 237:.\accelerometer.c **** 		else
 238:.\accelerometer.c **** 		{
 239:.\accelerometer.c **** 			commStatus = COMM_FAIL;
 367              		.loc 1 239 0
 368 0072 0120     		mov	r0, #1
 369              	.LVL59:
 370              	.L17:
 240:.\accelerometer.c **** 		}
 241:.\accelerometer.c **** 		
 242:.\accelerometer.c **** 		if(commStatus == COMM_PASS)
 371              		.loc 1 242 0
 372 0074 0028     		cmp	r0, #0
 373 0076 05D1     		bne	.L33
 243:.\accelerometer.c **** 		{
 244:.\accelerometer.c **** 			/* Read the current value of the INT_CTRL_REG1 register */
 245:.\accelerometer.c **** 			commStatus = Accelerometer_RegRead(ACC_INT_CTRL_REG_1, &accRegValue);
 374              		.loc 1 245 0
 375 0078 1E30     		add	r0, r0, #30
 376              	.LVL60:
 377 007a 6B46     		mov	r3, sp
 378 007c D91D     		add	r1, r3, #7
 379 007e FFF7FEFF 		bl	Accelerometer_RegRead
 380              	.LVL61:
 381 0082 00E0     		b	.L18
ARM GAS  C:\Users\merlin\AppData\Local\Temp\ccJ1J6Wj.s 			page 12


 382              	.L33:
 246:.\accelerometer.c **** 		}
 247:.\accelerometer.c **** 		else
 248:.\accelerometer.c **** 		{
 249:.\accelerometer.c **** 			commStatus = COMM_FAIL;
 383              		.loc 1 249 0
 384 0084 0120     		mov	r0, #1
 385              	.LVL62:
 386              	.L18:
 250:.\accelerometer.c **** 		}
 251:.\accelerometer.c **** 		
 252:.\accelerometer.c **** 		if(commStatus == COMM_PASS)
 387              		.loc 1 252 0
 388 0086 0028     		cmp	r0, #0
 389 0088 0BD1     		bne	.L34
 253:.\accelerometer.c **** 		{
 254:.\accelerometer.c **** 			/* Modify the current value for the following settings:
 255:.\accelerometer.c **** 			 * IEN (Physical Interrupt Pin)						= ENABLED
 256:.\accelerometer.c **** 			 * IEA (Interrupt Polarity)					 		= ACTIVE HIGH
 257:.\accelerometer.c **** 			 * IEL (Interrupt Latch/Pulse Enable)				= LATCH INTERRUPT
 258:.\accelerometer.c **** 			 */
 259:.\accelerometer.c **** 			accRegValue = accRegValue | ACC_IEN_BIT_OR_MASK | ACC_IEA_BIT_OR_MASK;
 390              		.loc 1 259 0
 391 008a 6B46     		mov	r3, sp
 392 008c DA1D     		add	r2, r3, #7
 393 008e D979     		ldrb	r1, [r3, #7]
 394 0090 3023     		mov	r3, #48
 395 0092 1943     		orr	r1, r3
 260:.\accelerometer.c **** 			accRegValue = accRegValue & ACC_IEL_BIT_AND_MASK;
 396              		.loc 1 260 0
 397 0094 283B     		sub	r3, r3, #40
 398 0096 9943     		bic	r1, r3
 399 0098 1170     		strb	r1, [r2]
 261:.\accelerometer.c **** 			
 262:.\accelerometer.c **** 			/* Write back the modified value. */
 263:.\accelerometer.c **** 			commStatus = Accelerometer_RegWrite(ACC_INT_CTRL_REG_1, accRegValue);
 400              		.loc 1 263 0
 401 009a 1E30     		add	r0, r0, #30
 402              	.LVL63:
 403 009c FFF7FEFF 		bl	Accelerometer_RegWrite
 404              	.LVL64:
 405 00a0 00E0     		b	.L19
 406              	.L34:
 264:.\accelerometer.c **** 		}
 265:.\accelerometer.c **** 		else
 266:.\accelerometer.c **** 		{
 267:.\accelerometer.c **** 			commStatus = COMM_FAIL;
 407              		.loc 1 267 0
 408 00a2 0120     		mov	r0, #1
 409              	.LVL65:
 410              	.L19:
 268:.\accelerometer.c **** 		}
 269:.\accelerometer.c **** 		
 270:.\accelerometer.c **** 		if(commStatus == COMM_PASS)
 411              		.loc 1 270 0
 412 00a4 0028     		cmp	r0, #0
 413 00a6 05D1     		bne	.L35
ARM GAS  C:\Users\merlin\AppData\Local\Temp\ccJ1J6Wj.s 			page 13


 271:.\accelerometer.c **** 		{
 272:.\accelerometer.c **** 			/* Read the current value of the INT_CTRL_REG2 register */
 273:.\accelerometer.c **** 			commStatus = Accelerometer_RegRead(ACC_INT_CTRL_REG_2, &accRegValue);
 414              		.loc 1 273 0
 415 00a8 1F30     		add	r0, r0, #31
 416              	.LVL66:
 417 00aa 6B46     		mov	r3, sp
 418 00ac D91D     		add	r1, r3, #7
 419 00ae FFF7FEFF 		bl	Accelerometer_RegRead
 420              	.LVL67:
 421 00b2 00E0     		b	.L20
 422              	.L35:
 274:.\accelerometer.c **** 		}
 275:.\accelerometer.c **** 		else
 276:.\accelerometer.c **** 		{
 277:.\accelerometer.c **** 			commStatus = COMM_FAIL;
 423              		.loc 1 277 0
 424 00b4 0120     		mov	r0, #1
 425              	.LVL68:
 426              	.L20:
 278:.\accelerometer.c **** 		}
 279:.\accelerometer.c **** 		
 280:.\accelerometer.c **** 		if(commStatus == COMM_PASS)
 427              		.loc 1 280 0
 428 00b6 0028     		cmp	r0, #0
 429 00b8 09D1     		bne	.L36
 281:.\accelerometer.c **** 		{
 282:.\accelerometer.c **** 			/* Modify the current value for the following settings:
 283:.\accelerometer.c **** 			 * XNWU, XPWU, YNWU, YPWU, ZNWU, ZPWU (Direction)	= SENSING_ENABLED
 284:.\accelerometer.c **** 			 */
 285:.\accelerometer.c **** 			accRegValue = accRegValue | ACC_XNWUE_BIT_OR_MASK | ACC_XPWUE_BIT_OR_MASK | \
 430              		.loc 1 285 0
 431 00ba 6B46     		mov	r3, sp
 432 00bc DA1D     		add	r2, r3, #7
 433 00be D979     		ldrb	r1, [r3, #7]
 434 00c0 3F23     		mov	r3, #63
 435 00c2 1943     		orr	r1, r3
 436 00c4 1170     		strb	r1, [r2]
 286:.\accelerometer.c **** 			ACC_YNWUE_BIT_OR_MASK | ACC_YPWUE_BIT_OR_MASK | ACC_ZNWUE_BIT_OR_MASK | ACC_ZPWUE_BIT_OR_MASK;
 287:.\accelerometer.c **** 			
 288:.\accelerometer.c **** 			/* Write back the modified value. */
 289:.\accelerometer.c **** 			commStatus = Accelerometer_RegWrite(ACC_INT_CTRL_REG_2, accRegValue);
 437              		.loc 1 289 0
 438 00c6 1F30     		add	r0, r0, #31
 439              	.LVL69:
 440 00c8 FFF7FEFF 		bl	Accelerometer_RegWrite
 441              	.LVL70:
 442 00cc 00E0     		b	.L21
 443              	.L36:
 290:.\accelerometer.c **** 		}
 291:.\accelerometer.c **** 		else
 292:.\accelerometer.c **** 		{
 293:.\accelerometer.c **** 			commStatus = COMM_FAIL;
 444              		.loc 1 293 0
 445 00ce 0120     		mov	r0, #1
 446              	.LVL71:
 447              	.L21:
ARM GAS  C:\Users\merlin\AppData\Local\Temp\ccJ1J6Wj.s 			page 14


 294:.\accelerometer.c **** 		}
 295:.\accelerometer.c **** 		
 296:.\accelerometer.c **** 		if(commStatus == COMM_PASS)
 448              		.loc 1 296 0
 449 00d0 0028     		cmp	r0, #0
 450 00d2 05D1     		bne	.L37
 297:.\accelerometer.c **** 		{
 298:.\accelerometer.c **** 			/* Read the current value of the DATA_CTRL register */
 299:.\accelerometer.c **** 			commStatus = Accelerometer_RegRead(ACC_DATA_CTRL_REG, &accRegValue);
 451              		.loc 1 299 0
 452 00d4 2130     		add	r0, r0, #33
 453              	.LVL72:
 454 00d6 6B46     		mov	r3, sp
 455 00d8 D91D     		add	r1, r3, #7
 456 00da FFF7FEFF 		bl	Accelerometer_RegRead
 457              	.LVL73:
 458 00de 00E0     		b	.L22
 459              	.L37:
 300:.\accelerometer.c **** 		}
 301:.\accelerometer.c **** 		else
 302:.\accelerometer.c **** 		{
 303:.\accelerometer.c **** 			commStatus = COMM_FAIL;
 460              		.loc 1 303 0
 461 00e0 0120     		mov	r0, #1
 462              	.LVL74:
 463              	.L22:
 304:.\accelerometer.c **** 		}
 305:.\accelerometer.c **** 		
 306:.\accelerometer.c **** 		if(commStatus == COMM_PASS)
 464              		.loc 1 306 0
 465 00e2 0028     		cmp	r0, #0
 466 00e4 0BD1     		bne	.L38
 307:.\accelerometer.c **** 		{
 308:.\accelerometer.c **** 			/* Modify the current value for the following settings:
 309:.\accelerometer.c **** 			 * OSAA, OSAB, OSAC, OSAD (Output Data Rate)		= 50 Hz
 310:.\accelerometer.c **** 			 */
 311:.\accelerometer.c **** 			accRegValue = accRegValue | ACC_OSAC_BIT_OR_MASK;
 467              		.loc 1 311 0
 468 00e6 6B46     		mov	r3, sp
 469 00e8 DA1D     		add	r2, r3, #7
 470 00ea D979     		ldrb	r1, [r3, #7]
 471 00ec 0223     		mov	r3, #2
 472 00ee 1943     		orr	r1, r3
 312:.\accelerometer.c **** 			accRegValue = accRegValue & ACC_OSAA_BIT_AND_MASK & ACC_OSAB_BIT_AND_MASK & ACC_OSAD_BIT_AND_MAS
 473              		.loc 1 312 0
 474 00f0 0B33     		add	r3, r3, #11
 475 00f2 9943     		bic	r1, r3
 476 00f4 1170     		strb	r1, [r2]
 313:.\accelerometer.c **** 			
 314:.\accelerometer.c **** 			/* Write back the modified value. */
 315:.\accelerometer.c **** 			commStatus = Accelerometer_RegWrite(ACC_DATA_CTRL_REG, accRegValue);
 477              		.loc 1 315 0
 478 00f6 2130     		add	r0, r0, #33
 479              	.LVL75:
 480 00f8 FFF7FEFF 		bl	Accelerometer_RegWrite
 481              	.LVL76:
 482 00fc 00E0     		b	.L23
ARM GAS  C:\Users\merlin\AppData\Local\Temp\ccJ1J6Wj.s 			page 15


 483              	.L38:
 316:.\accelerometer.c **** 		}
 317:.\accelerometer.c **** 		else
 318:.\accelerometer.c **** 		{
 319:.\accelerometer.c **** 			commStatus = COMM_FAIL;
 484              		.loc 1 319 0
 485 00fe 0120     		mov	r0, #1
 486              	.LVL77:
 487              	.L23:
 320:.\accelerometer.c **** 		}
 321:.\accelerometer.c **** 		
 322:.\accelerometer.c **** 		if(commStatus == COMM_PASS)
 488              		.loc 1 322 0
 489 0100 0028     		cmp	r0, #0
 490 0102 05D1     		bne	.L39
 323:.\accelerometer.c **** 		{
 324:.\accelerometer.c **** 			/* Read the current value of the WAKEUP_TIMER register */
 325:.\accelerometer.c **** 			commStatus = Accelerometer_RegRead(ACC_WAKEUP_TIMER, &accRegValue);
 491              		.loc 1 325 0
 492 0104 2930     		add	r0, r0, #41
 493              	.LVL78:
 494 0106 6B46     		mov	r3, sp
 495 0108 D91D     		add	r1, r3, #7
 496 010a FFF7FEFF 		bl	Accelerometer_RegRead
 497              	.LVL79:
 498 010e 00E0     		b	.L24
 499              	.L39:
 326:.\accelerometer.c **** 		}
 327:.\accelerometer.c **** 		else
 328:.\accelerometer.c **** 		{
 329:.\accelerometer.c **** 			commStatus = COMM_FAIL;
 500              		.loc 1 329 0
 501 0110 0120     		mov	r0, #1
 502              	.LVL80:
 503              	.L24:
 330:.\accelerometer.c **** 		}
 331:.\accelerometer.c **** 		
 332:.\accelerometer.c **** 		if(commStatus == COMM_PASS)
 504              		.loc 1 332 0
 505 0112 0028     		cmp	r0, #0
 506 0114 07D1     		bne	.L40
 333:.\accelerometer.c **** 		{
 334:.\accelerometer.c **** 			/* Modify the current value for the following settings:
 335:.\accelerometer.c **** 			 * Wakeup Timer value	 = 0.02s * 50 = 1 count
 336:.\accelerometer.c **** 			 * WAKEUP_TIMER (counts) = Desired Delay Time (sec) x OWUF (Hz) 
 337:.\accelerometer.c **** 			 */
 338:.\accelerometer.c **** 			accRegValue = ACC_WAKEUP_TIMER_VALUE;
 507              		.loc 1 338 0
 508 0116 0122     		mov	r2, #1
 509 0118 6B46     		mov	r3, sp
 510 011a DA71     		strb	r2, [r3, #7]
 339:.\accelerometer.c **** 			
 340:.\accelerometer.c **** 			/* Write back the modified value. */
 341:.\accelerometer.c **** 			commStatus = Accelerometer_RegWrite(ACC_WAKEUP_TIMER, accRegValue);
 511              		.loc 1 341 0
 512 011c 2930     		add	r0, r0, #41
 513              	.LVL81:
ARM GAS  C:\Users\merlin\AppData\Local\Temp\ccJ1J6Wj.s 			page 16


 514 011e 0121     		mov	r1, #1
 515 0120 FFF7FEFF 		bl	Accelerometer_RegWrite
 516              	.LVL82:
 517 0124 00E0     		b	.L25
 518              	.L40:
 342:.\accelerometer.c **** 		}
 343:.\accelerometer.c **** 		else
 344:.\accelerometer.c **** 		{
 345:.\accelerometer.c **** 			commStatus = COMM_FAIL;
 519              		.loc 1 345 0
 520 0126 0120     		mov	r0, #1
 521              	.LVL83:
 522              	.L25:
 346:.\accelerometer.c **** 		}
 347:.\accelerometer.c **** 		
 348:.\accelerometer.c **** 		if(commStatus == COMM_PASS)
 523              		.loc 1 348 0
 524 0128 0028     		cmp	r0, #0
 525 012a 05D1     		bne	.L41
 349:.\accelerometer.c **** 		{
 350:.\accelerometer.c **** 			/* Read the current value of the ACC_WAKUP_THRESHOLD register */
 351:.\accelerometer.c **** 			commStatus = Accelerometer_RegRead(ACC_WAKUP_THRESHOLD, &accRegValue);
 526              		.loc 1 351 0
 527 012c 6A30     		add	r0, r0, #106
 528              	.LVL84:
 529 012e 6B46     		mov	r3, sp
 530 0130 D91D     		add	r1, r3, #7
 531 0132 FFF7FEFF 		bl	Accelerometer_RegRead
 532              	.LVL85:
 533 0136 00E0     		b	.L26
 534              	.L41:
 352:.\accelerometer.c **** 		}
 353:.\accelerometer.c **** 		else
 354:.\accelerometer.c **** 		{
 355:.\accelerometer.c **** 			commStatus = COMM_FAIL;
 535              		.loc 1 355 0
 536 0138 0120     		mov	r0, #1
 537              	.LVL86:
 538              	.L26:
 356:.\accelerometer.c **** 		}
 357:.\accelerometer.c **** 		
 358:.\accelerometer.c **** 		if(commStatus == COMM_PASS)
 539              		.loc 1 358 0
 540 013a 0028     		cmp	r0, #0
 541 013c 07D1     		bne	.L42
 359:.\accelerometer.c **** 		{
 360:.\accelerometer.c **** 			/* Modify the current value for the following settings:
 361:.\accelerometer.c **** 			 * Wakeup Timer value								= (1/16)g * 16 = 1 count
 362:.\accelerometer.c **** 			 * WAKEUP_THRESHOLD (counts) 						= Desired Threshold (g) x 16 (counts/g) 
 363:.\accelerometer.c **** 			 */
 364:.\accelerometer.c **** 			accRegValue = ACC_WAKUP_THRESHOLD_VAL;
 542              		.loc 1 364 0
 543 013e 0122     		mov	r2, #1
 544 0140 6B46     		mov	r3, sp
 545 0142 DA71     		strb	r2, [r3, #7]
 365:.\accelerometer.c **** 			
 366:.\accelerometer.c **** 			/* Write back the modified value. */
ARM GAS  C:\Users\merlin\AppData\Local\Temp\ccJ1J6Wj.s 			page 17


 367:.\accelerometer.c **** 			commStatus = Accelerometer_RegWrite(ACC_WAKUP_THRESHOLD, accRegValue);
 546              		.loc 1 367 0
 547 0144 6A30     		add	r0, r0, #106
 548              	.LVL87:
 549 0146 0121     		mov	r1, #1
 550 0148 FFF7FEFF 		bl	Accelerometer_RegWrite
 551              	.LVL88:
 552 014c 00E0     		b	.L27
 553              	.L42:
 368:.\accelerometer.c **** 		}
 369:.\accelerometer.c **** 		else
 370:.\accelerometer.c **** 		{
 371:.\accelerometer.c **** 			commStatus = COMM_FAIL;
 554              		.loc 1 371 0
 555 014e 0120     		mov	r0, #1
 556              	.LVL89:
 557              	.L27:
 372:.\accelerometer.c **** 		}
 373:.\accelerometer.c **** 		
 374:.\accelerometer.c **** 		if(commStatus == COMM_PASS)
 558              		.loc 1 374 0
 559 0150 0028     		cmp	r0, #0
 560 0152 05D1     		bne	.L43
 375:.\accelerometer.c **** 		{
 376:.\accelerometer.c **** 			/* Read the current value of the CTRL_REG1 register */
 377:.\accelerometer.c **** 			commStatus = Accelerometer_RegRead(ACC_CTRL_REG_1, &accRegValue);
 561              		.loc 1 377 0
 562 0154 1B30     		add	r0, r0, #27
 563              	.LVL90:
 564 0156 6B46     		mov	r3, sp
 565 0158 D91D     		add	r1, r3, #7
 566 015a FFF7FEFF 		bl	Accelerometer_RegRead
 567              	.LVL91:
 568 015e 00E0     		b	.L28
 569              	.L43:
 378:.\accelerometer.c **** 		}
 379:.\accelerometer.c **** 		else
 380:.\accelerometer.c **** 		{
 381:.\accelerometer.c **** 			commStatus = COMM_FAIL;
 570              		.loc 1 381 0
 571 0160 0120     		mov	r0, #1
 572              	.LVL92:
 573              	.L28:
 382:.\accelerometer.c **** 		}
 383:.\accelerometer.c **** 		
 384:.\accelerometer.c **** 		if(commStatus == COMM_PASS)
 574              		.loc 1 384 0
 575 0162 0028     		cmp	r0, #0
 576 0164 09D1     		bne	.L44
 385:.\accelerometer.c **** 		{
 386:.\accelerometer.c **** 			/* Put the Accelerometer in the Operating Mode */
 387:.\accelerometer.c **** 			accRegValue = accRegValue | ACC_PC1_BIT_OR_MASK;
 577              		.loc 1 387 0
 578 0166 6B46     		mov	r3, sp
 579 0168 DA1D     		add	r2, r3, #7
 580 016a D979     		ldrb	r1, [r3, #7]
 581 016c 8023     		mov	r3, #128
ARM GAS  C:\Users\merlin\AppData\Local\Temp\ccJ1J6Wj.s 			page 18


 582 016e 1943     		orr	r1, r3
 583 0170 1170     		strb	r1, [r2]
 388:.\accelerometer.c **** 					
 389:.\accelerometer.c **** 			/* Write back the modified value. */
 390:.\accelerometer.c **** 			commStatus = Accelerometer_RegWrite(ACC_CTRL_REG_1, accRegValue);
 584              		.loc 1 390 0
 585 0172 1B30     		add	r0, r0, #27
 586              	.LVL93:
 587 0174 FFF7FEFF 		bl	Accelerometer_RegWrite
 588              	.LVL94:
 589 0178 00E0     		b	.L29
 590              	.L44:
 391:.\accelerometer.c **** 		}
 392:.\accelerometer.c **** 		else
 393:.\accelerometer.c **** 		{
 394:.\accelerometer.c **** 			commStatus = COMM_FAIL;
 591              		.loc 1 394 0
 592 017a 0120     		mov	r0, #1
 593              	.LVL95:
 594              	.L29:
 395:.\accelerometer.c **** 		}
 396:.\accelerometer.c **** 		
 397:.\accelerometer.c **** 		if(commStatus == COMM_PASS)
 595              		.loc 1 397 0
 596 017c 0028     		cmp	r0, #0
 597 017e 07D1     		bne	.L13
 398:.\accelerometer.c **** 		{
 399:.\accelerometer.c **** 			/* Set the flag to indicate the accelerometer is configured. */
 400:.\accelerometer.c **** 			acclerometer_configured = TRUE;
 598              		.loc 1 400 0
 599 0180 0122     		mov	r2, #1
 600 0182 044B     		ldr	r3, .L45
 601 0184 1A70     		strb	r2, [r3]
 401:.\accelerometer.c **** 			
 402:.\accelerometer.c **** 			/* Clear all pending interrupts from accelerometer. */
 403:.\accelerometer.c **** 			Accelerometer_RegRead(ACC_INT_REL, &accRegValue);
 602              		.loc 1 403 0
 603 0186 1A30     		add	r0, r0, #26
 604              	.LVL96:
 605 0188 6B46     		mov	r3, sp
 606 018a D91D     		add	r1, r3, #7
 607 018c FFF7FEFF 		bl	Accelerometer_RegRead
 608              	.LVL97:
 609              	.L13:
 404:.\accelerometer.c **** 		}
 405:.\accelerometer.c **** 	}	
 406:.\accelerometer.c **** }
 610              		.loc 1 406 0
 611 0190 03B0     		add	sp, sp, #12
 612              		@ sp needed
 613 0192 00BD     		pop	{pc}
 614              	.L46:
 615              		.align	2
 616              	.L45:
 617 0194 00000000 		.word	acclerometer_configured
 618              		.cfi_endproc
 619              	.LFE37:
ARM GAS  C:\Users\merlin\AppData\Local\Temp\ccJ1J6Wj.s 			page 19


 620              		.size	InitializeAccelerometer, .-InitializeAccelerometer
 621              		.section	.text.ReadAccelerometer,"ax",%progbits
 622              		.align	2
 623              		.global	ReadAccelerometer
 624              		.code	16
 625              		.thumb_func
 626              		.type	ReadAccelerometer, %function
 627              	ReadAccelerometer:
 628              	.LFB38:
 407:.\accelerometer.c **** 
 408:.\accelerometer.c **** /*******************************************************************************
 409:.\accelerometer.c **** * Function Name: ReadAccelerometer
 410:.\accelerometer.c **** ********************************************************************************
 411:.\accelerometer.c **** * Summary:
 412:.\accelerometer.c **** * 	Reads the accelerometer acceleration values in x, y, and z directions.
 413:.\accelerometer.c **** *
 414:.\accelerometer.c **** * Parameters:
 415:.\accelerometer.c **** *  int16 *xData: Pointer to the variable in which the acceleration data 
 416:.\accelerometer.c **** *                for x-direction is to be stored. 
 417:.\accelerometer.c **** *
 418:.\accelerometer.c **** *  int16 *yData: Pointer to the variable in which the acceleration data 
 419:.\accelerometer.c **** *                for y-direction is to be stored. 
 420:.\accelerometer.c **** *
 421:.\accelerometer.c **** *  int16 *zData: Pointer to the variable in which the acceleration data 
 422:.\accelerometer.c **** *                for z-direction is to be stored. 
 423:.\accelerometer.c **** *
 424:.\accelerometer.c **** * Return:
 425:.\accelerometer.c **** *  void
 426:.\accelerometer.c **** *
 427:.\accelerometer.c **** *******************************************************************************/
 428:.\accelerometer.c **** void ReadAccelerometer(int16 *xData, int16 *yData, int16 *zData)
 429:.\accelerometer.c **** {
 629              		.loc 1 429 0
 630              		.cfi_startproc
 631              	.LVL98:
 632 0000 F0B5     		push	{r4, r5, r6, r7, lr}
 633              		.cfi_def_cfa_offset 20
 634              		.cfi_offset 4, -20
 635              		.cfi_offset 5, -16
 636              		.cfi_offset 6, -12
 637              		.cfi_offset 7, -8
 638              		.cfi_offset 14, -4
 639 0002 83B0     		sub	sp, sp, #12
 640              		.cfi_def_cfa_offset 32
 641 0004 071C     		mov	r7, r0
 642 0006 0C1C     		mov	r4, r1
 643 0008 161C     		mov	r6, r2
 430:.\accelerometer.c **** 	/* Temporary variable for extracting only the 12 most significant
 431:.\accelerometer.c **** 	 * bits of accelerometer data registers. */
 432:.\accelerometer.c **** 	uint8 tempVal = ZERO;
 644              		.loc 1 432 0
 645 000a 6B46     		mov	r3, sp
 646 000c DD1D     		add	r5, r3, #7
 647 000e 0023     		mov	r3, #0
 648 0010 2B70     		strb	r3, [r5]
 433:.\accelerometer.c **** 	
 434:.\accelerometer.c **** 	Accelerometer_RegRead(ACC_XOUT_H, &tempVal);
ARM GAS  C:\Users\merlin\AppData\Local\Temp\ccJ1J6Wj.s 			page 20


 649              		.loc 1 434 0
 650 0012 0720     		mov	r0, #7
 651              	.LVL99:
 652 0014 291C     		mov	r1, r5
 653              	.LVL100:
 654 0016 FFF7FEFF 		bl	Accelerometer_RegRead
 655              	.LVL101:
 435:.\accelerometer.c **** 	*xData = tempVal;
 656              		.loc 1 435 0
 657 001a 2B78     		ldrb	r3, [r5]
 658 001c 3B80     		strh	r3, [r7]
 436:.\accelerometer.c **** 	Accelerometer_RegRead(ACC_XOUT_L, &tempVal);
 659              		.loc 1 436 0
 660 001e 0620     		mov	r0, #6
 661 0020 291C     		mov	r1, r5
 662 0022 FFF7FEFF 		bl	Accelerometer_RegRead
 663              	.LVL102:
 437:.\accelerometer.c **** 	*xData = (*xData << 8) | tempVal;
 664              		.loc 1 437 0
 665 0026 0022     		mov	r2, #0
 666 0028 BB5E     		ldrsh	r3, [r7, r2]
 667 002a 1B02     		lsl	r3, r3, #8
 668 002c 2A78     		ldrb	r2, [r5]
 669 002e 1343     		orr	r3, r2
 670 0030 9BB2     		uxth	r3, r3
 671 0032 3B80     		strh	r3, [r7]
 438:.\accelerometer.c **** 	if((*xData & 0x8000) == 0x8000)
 672              		.loc 1 438 0
 673 0034 1AB2     		sxth	r2, r3
 674 0036 002A     		cmp	r2, #0
 675 0038 04DA     		bge	.L48
 439:.\accelerometer.c **** 	{
 440:.\accelerometer.c **** 		*xData = *xData >> 4;
 676              		.loc 1 440 0
 677 003a 1311     		asr	r3, r2, #4
 441:.\accelerometer.c **** 		*xData |= 0xF000;
 678              		.loc 1 441 0
 679 003c 224A     		ldr	r2, .L54
 680 003e 1343     		orr	r3, r2
 681 0040 3B80     		strh	r3, [r7]
 682 0042 02E0     		b	.L49
 683              	.L48:
 442:.\accelerometer.c **** 	}
 443:.\accelerometer.c **** 	else
 444:.\accelerometer.c **** 	{
 445:.\accelerometer.c **** 		*xData = *xData >> 4;
 684              		.loc 1 445 0
 685 0044 1BB2     		sxth	r3, r3
 686 0046 1B11     		asr	r3, r3, #4
 687 0048 3B80     		strh	r3, [r7]
 688              	.L49:
 446:.\accelerometer.c **** 	}
 447:.\accelerometer.c **** 	
 448:.\accelerometer.c **** 	Accelerometer_RegRead(ACC_YOUT_H, &tempVal);
 689              		.loc 1 448 0
 690 004a 6B46     		mov	r3, sp
 691 004c DD1D     		add	r5, r3, #7
ARM GAS  C:\Users\merlin\AppData\Local\Temp\ccJ1J6Wj.s 			page 21


 692 004e 0920     		mov	r0, #9
 693 0050 291C     		mov	r1, r5
 694 0052 FFF7FEFF 		bl	Accelerometer_RegRead
 695              	.LVL103:
 449:.\accelerometer.c **** 	*yData = tempVal;
 696              		.loc 1 449 0
 697 0056 2B78     		ldrb	r3, [r5]
 698 0058 2380     		strh	r3, [r4]
 450:.\accelerometer.c **** 	Accelerometer_RegRead(ACC_YOUT_L, &tempVal);
 699              		.loc 1 450 0
 700 005a 0820     		mov	r0, #8
 701 005c 291C     		mov	r1, r5
 702 005e FFF7FEFF 		bl	Accelerometer_RegRead
 703              	.LVL104:
 451:.\accelerometer.c **** 	*yData = (*yData << 8) | tempVal;
 704              		.loc 1 451 0
 705 0062 0022     		mov	r2, #0
 706 0064 A35E     		ldrsh	r3, [r4, r2]
 707 0066 1B02     		lsl	r3, r3, #8
 708 0068 2A78     		ldrb	r2, [r5]
 709 006a 1343     		orr	r3, r2
 710 006c 9BB2     		uxth	r3, r3
 711 006e 2380     		strh	r3, [r4]
 452:.\accelerometer.c **** 	
 453:.\accelerometer.c **** 	if((*yData & 0x8000) == 0x8000)
 712              		.loc 1 453 0
 713 0070 1AB2     		sxth	r2, r3
 714 0072 002A     		cmp	r2, #0
 715 0074 04DA     		bge	.L50
 454:.\accelerometer.c **** 	{
 455:.\accelerometer.c **** 		*yData = *yData >> 4;
 716              		.loc 1 455 0
 717 0076 1311     		asr	r3, r2, #4
 456:.\accelerometer.c **** 		*yData |= 0xF000;
 718              		.loc 1 456 0
 719 0078 134A     		ldr	r2, .L54
 720 007a 1343     		orr	r3, r2
 721 007c 2380     		strh	r3, [r4]
 722 007e 02E0     		b	.L51
 723              	.L50:
 457:.\accelerometer.c **** 	}
 458:.\accelerometer.c **** 	else
 459:.\accelerometer.c **** 	{
 460:.\accelerometer.c **** 		*yData = *yData >> 4;
 724              		.loc 1 460 0
 725 0080 1BB2     		sxth	r3, r3
 726 0082 1B11     		asr	r3, r3, #4
 727 0084 2380     		strh	r3, [r4]
 728              	.L51:
 461:.\accelerometer.c **** 	}
 462:.\accelerometer.c **** 	
 463:.\accelerometer.c **** 	Accelerometer_RegRead(ACC_ZOUT_H, &tempVal);
 729              		.loc 1 463 0
 730 0086 6B46     		mov	r3, sp
 731 0088 DC1D     		add	r4, r3, #7
 732              	.LVL105:
 733 008a 0B20     		mov	r0, #11
ARM GAS  C:\Users\merlin\AppData\Local\Temp\ccJ1J6Wj.s 			page 22


 734 008c 211C     		mov	r1, r4
 735 008e FFF7FEFF 		bl	Accelerometer_RegRead
 736              	.LVL106:
 464:.\accelerometer.c **** 	*zData = tempVal;
 737              		.loc 1 464 0
 738 0092 2378     		ldrb	r3, [r4]
 739 0094 3380     		strh	r3, [r6]
 465:.\accelerometer.c **** 	Accelerometer_RegRead(ACC_ZOUT_L, &tempVal);
 740              		.loc 1 465 0
 741 0096 0A20     		mov	r0, #10
 742 0098 211C     		mov	r1, r4
 743 009a FFF7FEFF 		bl	Accelerometer_RegRead
 744              	.LVL107:
 466:.\accelerometer.c **** 	*zData = (*zData << 8) | tempVal;
 745              		.loc 1 466 0
 746 009e 0022     		mov	r2, #0
 747 00a0 B35E     		ldrsh	r3, [r6, r2]
 748 00a2 1B02     		lsl	r3, r3, #8
 749 00a4 2278     		ldrb	r2, [r4]
 750 00a6 1343     		orr	r3, r2
 751 00a8 9BB2     		uxth	r3, r3
 752 00aa 3380     		strh	r3, [r6]
 467:.\accelerometer.c **** 	
 468:.\accelerometer.c **** 	if((*zData & 0x8000) == 0x8000)
 753              		.loc 1 468 0
 754 00ac 1AB2     		sxth	r2, r3
 755 00ae 002A     		cmp	r2, #0
 756 00b0 04DA     		bge	.L52
 469:.\accelerometer.c **** 	{
 470:.\accelerometer.c **** 		*zData = *zData >> 4;
 757              		.loc 1 470 0
 758 00b2 1311     		asr	r3, r2, #4
 471:.\accelerometer.c **** 		*zData |= 0xF000;
 759              		.loc 1 471 0
 760 00b4 044A     		ldr	r2, .L54
 761 00b6 1343     		orr	r3, r2
 762 00b8 3380     		strh	r3, [r6]
 763 00ba 02E0     		b	.L47
 764              	.L52:
 472:.\accelerometer.c **** 	}
 473:.\accelerometer.c **** 	else
 474:.\accelerometer.c **** 	{
 475:.\accelerometer.c **** 		*zData = *zData >> 4;
 765              		.loc 1 475 0
 766 00bc 1BB2     		sxth	r3, r3
 767 00be 1B11     		asr	r3, r3, #4
 768 00c0 3380     		strh	r3, [r6]
 769              	.L47:
 476:.\accelerometer.c **** 	}
 477:.\accelerometer.c **** }
 770              		.loc 1 477 0
 771 00c2 03B0     		add	sp, sp, #12
 772              		@ sp needed
 773              	.LVL108:
 774              	.LVL109:
 775 00c4 F0BD     		pop	{r4, r5, r6, r7, pc}
 776              	.L55:
ARM GAS  C:\Users\merlin\AppData\Local\Temp\ccJ1J6Wj.s 			page 23


 777 00c6 C046     		.align	2
 778              	.L54:
 779 00c8 00F0FFFF 		.word	-4096
 780              		.cfi_endproc
 781              	.LFE38:
 782              		.size	ReadAccelerometer, .-ReadAccelerometer
 783              		.text
 784              	.Letext0:
 785              		.file 2 "Generated_Source\\PSoC4/cytypes.h"
 786              		.file 3 "Generated_Source\\PSoC4/I2C_I2C.h"
 787              		.file 4 ".\\accelerometer.h"