ARM GAS  C:\Users\merlin\AppData\Local\Temp\ccZOZwzR.s 			page 1


   1              		.cpu cortex-m0
   2              		.fpu softvfp
   3              		.eabi_attribute 20, 1
   4              		.eabi_attribute 21, 1
   5              		.eabi_attribute 23, 3
   6              		.eabi_attribute 24, 1
   7              		.eabi_attribute 25, 1
   8              		.eabi_attribute 26, 1
   9              		.eabi_attribute 30, 1
  10              		.eabi_attribute 34, 0
  11              		.eabi_attribute 18, 4
  12              		.code	16
  13              		.file	"CapSense.c"
  14              		.text
  15              	.Ltext0:
  16              		.cfi_sections	.debug_frame
  17              		.section	.text.CapSense_CsdHwBlockInit,"ax",%progbits
  18              		.align	2
  19              		.global	CapSense_CsdHwBlockInit
  20              		.code	16
  21              		.thumb_func
  22              		.type	CapSense_CsdHwBlockInit, %function
  23              	CapSense_CsdHwBlockInit:
  24              	.LFB35:
  25              		.file 1 ".\\Generated_Source\\PSoC4\\CapSense.c"
   1:.\Generated_Source\PSoC4/CapSense.c **** /*******************************************************************************
   2:.\Generated_Source\PSoC4/CapSense.c **** * File Name: CapSense.c
   3:.\Generated_Source\PSoC4/CapSense.c **** * Version 2.10
   4:.\Generated_Source\PSoC4/CapSense.c **** *
   5:.\Generated_Source\PSoC4/CapSense.c **** * Description:
   6:.\Generated_Source\PSoC4/CapSense.c **** *  This file provides the source code for scanning APIs for the CapSense CSD 
   7:.\Generated_Source\PSoC4/CapSense.c **** *  component.
   8:.\Generated_Source\PSoC4/CapSense.c **** *
   9:.\Generated_Source\PSoC4/CapSense.c **** * Note:
  10:.\Generated_Source\PSoC4/CapSense.c **** *
  11:.\Generated_Source\PSoC4/CapSense.c **** ********************************************************************************
  12:.\Generated_Source\PSoC4/CapSense.c **** * Copyright 2014, Cypress Semiconductor Corporation.  All rights reserved.
  13:.\Generated_Source\PSoC4/CapSense.c **** * You may use this file only in accordance with the license, terms, conditions,
  14:.\Generated_Source\PSoC4/CapSense.c **** * disclaimers, and limitations in the end user license agreement accompanying
  15:.\Generated_Source\PSoC4/CapSense.c **** * the software package with which this file was provided.
  16:.\Generated_Source\PSoC4/CapSense.c **** *******************************************************************************/
  17:.\Generated_Source\PSoC4/CapSense.c **** 
  18:.\Generated_Source\PSoC4/CapSense.c **** #include "CapSense.h"
  19:.\Generated_Source\PSoC4/CapSense.c **** #include "CapSense_PVT.h"
  20:.\Generated_Source\PSoC4/CapSense.c **** #include "cypins.h"
  21:.\Generated_Source\PSoC4/CapSense.c **** 
  22:.\Generated_Source\PSoC4/CapSense.c **** #if(0u != CapSense_CSHL_API_GENERATE)
  23:.\Generated_Source\PSoC4/CapSense.c **** 	#include "CapSense_CSHL.h"
  24:.\Generated_Source\PSoC4/CapSense.c **** #endif /* (0u != CapSense_CSHL_API_GENERATE) */
  25:.\Generated_Source\PSoC4/CapSense.c **** 
  26:.\Generated_Source\PSoC4/CapSense.c **** /* This definition is intended to prevent unexpected linker error. 
  27:.\Generated_Source\PSoC4/CapSense.c ****    For more details please see the IAR Technical Note 49981 */
  28:.\Generated_Source\PSoC4/CapSense.c **** #if defined(__ICCARM__)
  29:.\Generated_Source\PSoC4/CapSense.c **** 	extern void CapSense_EnableSensor(uint32 sensor);
  30:.\Generated_Source\PSoC4/CapSense.c **** 	extern void CapSense_DisableSensor(uint32 sensor);
  31:.\Generated_Source\PSoC4/CapSense.c **** #endif /* (__ICCARM__) */	
  32:.\Generated_Source\PSoC4/CapSense.c **** 
ARM GAS  C:\Users\merlin\AppData\Local\Temp\ccZOZwzR.s 			page 2


  33:.\Generated_Source\PSoC4/CapSense.c **** /* SmartSense functions */
  34:.\Generated_Source\PSoC4/CapSense.c **** #if (CapSense_TUNING_METHOD == CapSense__TUNING_AUTO)
  35:.\Generated_Source\PSoC4/CapSense.c ****     uint8 CapSense_lowLevelTuningDone = 0u;
  36:.\Generated_Source\PSoC4/CapSense.c **** 	uint8 scanSpeedTbl[((CapSense_TOTAL_SENSOR_COUNT - 1u) / 8u) + 1u];
  37:.\Generated_Source\PSoC4/CapSense.c **** #endif /* (CapSense_TUNING_METHOD == CapSense__TUNING_AUTO) */
  38:.\Generated_Source\PSoC4/CapSense.c **** 
  39:.\Generated_Source\PSoC4/CapSense.c **** #if(CapSense_PRS_OPTIONS != CapSense__PRS_NONE)
  40:.\Generated_Source\PSoC4/CapSense.c **** 	uint8 CapSense_prescalersTuningDone = 0u;
  41:.\Generated_Source\PSoC4/CapSense.c **** #endif /* (CapSense_PRS_OPTIONS == CapSense__PRS_NONE) */
  42:.\Generated_Source\PSoC4/CapSense.c ****             
  43:.\Generated_Source\PSoC4/CapSense.c **** /* Global software variables */
  44:.\Generated_Source\PSoC4/CapSense.c **** volatile uint8 CapSense_csdStatusVar = 0u;   /* CapSense CSD status, variable */
  45:.\Generated_Source\PSoC4/CapSense.c **** volatile uint8 CapSense_sensorIndex = 0u;    /* Index of scannig sensor */
  46:.\Generated_Source\PSoC4/CapSense.c **** 
  47:.\Generated_Source\PSoC4/CapSense.c **** /* Global array of Raw Counts */
  48:.\Generated_Source\PSoC4/CapSense.c **** uint16 CapSense_sensorRaw[CapSense_TOTAL_SENSOR_COUNT] = {0u};
  49:.\Generated_Source\PSoC4/CapSense.c **** 
  50:.\Generated_Source\PSoC4/CapSense.c **** /* Backup variables for trim registers*/
  51:.\Generated_Source\PSoC4/CapSense.c **** #if (CapSense_IDAC1_POLARITY == CapSense__IDAC_SINK)
  52:.\Generated_Source\PSoC4/CapSense.c **** 	uint8 CapSense_csdTrim2;   
  53:.\Generated_Source\PSoC4/CapSense.c **** #else
  54:.\Generated_Source\PSoC4/CapSense.c ****     uint8 CapSense_csdTrim1;	
  55:.\Generated_Source\PSoC4/CapSense.c **** #endif /* (CapSense_IDAC1_POLARITY == CapSense__IDAC_SINK) */
  56:.\Generated_Source\PSoC4/CapSense.c **** 
  57:.\Generated_Source\PSoC4/CapSense.c **** /* Global array of un-scanned sensors state */
  58:.\Generated_Source\PSoC4/CapSense.c **** uint8 CapSense_unscannedSnsDriveMode[CapSense_TOTAL_SENSOR_COUNT];
  59:.\Generated_Source\PSoC4/CapSense.c **** 
  60:.\Generated_Source\PSoC4/CapSense.c **** /* Backup array for CapSense_sensorEnableMask */
  61:.\Generated_Source\PSoC4/CapSense.c **** uint8 CapSense_sensorEnableMaskBackup[(((CapSense_TOTAL_SENSOR_COUNT - 1u) / 8u) + 1u)];
  62:.\Generated_Source\PSoC4/CapSense.c **** 
  63:.\Generated_Source\PSoC4/CapSense.c **** /* Configured constants and arrays by Customizer */
  64:.\Generated_Source\PSoC4/CapSense.c **** uint8 CapSense_sensorEnableMask[(((CapSense_TOTAL_SENSOR_COUNT - 1u) / 8u) + 1u)] = {
  65:.\Generated_Source\PSoC4/CapSense.c **** 0x0u, };
  66:.\Generated_Source\PSoC4/CapSense.c **** 
  67:.\Generated_Source\PSoC4/CapSense.c **** reg32 * CapSense_pcTable[] = {
  68:.\Generated_Source\PSoC4/CapSense.c ****     (reg32 *)CapSense_Sns__ProximitySensor_0__PROX__PC, 
  69:.\Generated_Source\PSoC4/CapSense.c **** };
  70:.\Generated_Source\PSoC4/CapSense.c **** 
  71:.\Generated_Source\PSoC4/CapSense.c **** const uint8 CapSense_portTable[] = {
  72:.\Generated_Source\PSoC4/CapSense.c ****     CapSense_Sns__ProximitySensor_0__PROX__PORT, 
  73:.\Generated_Source\PSoC4/CapSense.c **** };
  74:.\Generated_Source\PSoC4/CapSense.c **** 
  75:.\Generated_Source\PSoC4/CapSense.c **** const uint32 CapSense_maskTable[] = {
  76:.\Generated_Source\PSoC4/CapSense.c ****     CapSense_Sns__ProximitySensor_0__PROX__MASK, 
  77:.\Generated_Source\PSoC4/CapSense.c **** };
  78:.\Generated_Source\PSoC4/CapSense.c **** 
  79:.\Generated_Source\PSoC4/CapSense.c **** const uint8 CapSense_pinShiftTbl[] = {
  80:.\Generated_Source\PSoC4/CapSense.c ****     (uint8) CapSense_Sns__ProximitySensor_0__PROX__SHIFT, 
  81:.\Generated_Source\PSoC4/CapSense.c **** };
  82:.\Generated_Source\PSoC4/CapSense.c **** 
  83:.\Generated_Source\PSoC4/CapSense.c **** uint8 CapSense_modulationIDAC[CapSense_TOTAL_SENSOR_COUNT] = {
  84:.\Generated_Source\PSoC4/CapSense.c ****     80u, 
  85:.\Generated_Source\PSoC4/CapSense.c **** };
  86:.\Generated_Source\PSoC4/CapSense.c **** uint8 CapSense_compensationIDAC[CapSense_TOTAL_SENSOR_COUNT] = {
  87:.\Generated_Source\PSoC4/CapSense.c ****     30u, 
  88:.\Generated_Source\PSoC4/CapSense.c **** };
  89:.\Generated_Source\PSoC4/CapSense.c **** 
ARM GAS  C:\Users\merlin\AppData\Local\Temp\ccZOZwzR.s 			page 3


  90:.\Generated_Source\PSoC4/CapSense.c **** uint32 CapSense_widgetResolution[CapSense_RESOLUTIONS_TBL_SIZE] = {
  91:.\Generated_Source\PSoC4/CapSense.c ****     CapSense_RESOLUTION_16_BITS,
  92:.\Generated_Source\PSoC4/CapSense.c **** };
  93:.\Generated_Source\PSoC4/CapSense.c **** 
  94:.\Generated_Source\PSoC4/CapSense.c **** uint8 CapSense_senseClkDividerVal[CapSense_TOTAL_SCANSLOT_COUNT] = {
  95:.\Generated_Source\PSoC4/CapSense.c ****     4u, 
  96:.\Generated_Source\PSoC4/CapSense.c **** };
  97:.\Generated_Source\PSoC4/CapSense.c **** uint8 CapSense_sampleClkDividerVal[CapSense_TOTAL_SCANSLOT_COUNT] = {
  98:.\Generated_Source\PSoC4/CapSense.c ****     4u, 
  99:.\Generated_Source\PSoC4/CapSense.c **** };
 100:.\Generated_Source\PSoC4/CapSense.c **** 
 101:.\Generated_Source\PSoC4/CapSense.c **** 
 102:.\Generated_Source\PSoC4/CapSense.c **** const uint8 CapSense_widgetNumber[CapSense_TOTAL_SENSOR_COUNT] = {
 103:.\Generated_Source\PSoC4/CapSense.c ****     0u, /* ProximitySensor__PROX */
 104:.\Generated_Source\PSoC4/CapSense.c **** };
 105:.\Generated_Source\PSoC4/CapSense.c **** 
 106:.\Generated_Source\PSoC4/CapSense.c **** 
 107:.\Generated_Source\PSoC4/CapSense.c **** 
 108:.\Generated_Source\PSoC4/CapSense.c **** reg32* const CapSense_prtSelTbl[] = {
 109:.\Generated_Source\PSoC4/CapSense.c **** /* CY_PSOC4_4000 is default*/
 110:.\Generated_Source\PSoC4/CapSense.c **** 	((reg32 *) CYREG_HSIOM_PORT_SEL0),
 111:.\Generated_Source\PSoC4/CapSense.c **** 	((reg32 *) CYREG_HSIOM_PORT_SEL1),
 112:.\Generated_Source\PSoC4/CapSense.c **** 	((reg32 *) CYREG_HSIOM_PORT_SEL2),
 113:.\Generated_Source\PSoC4/CapSense.c **** 	((reg32 *) CYREG_HSIOM_PORT_SEL3),
 114:.\Generated_Source\PSoC4/CapSense.c **** #if (CapSense_CFG_REG_TBL_SIZE == 5u)
 115:.\Generated_Source\PSoC4/CapSense.c **** 	((reg32 *) CYREG_HSIOM_PORT_SEL4)
 116:.\Generated_Source\PSoC4/CapSense.c **** #elif(CapSense_CFG_REG_TBL_SIZE == 6u)
 117:.\Generated_Source\PSoC4/CapSense.c **** 	((reg32 *) CYREG_HSIOM_PORT_SEL4),
 118:.\Generated_Source\PSoC4/CapSense.c **** 	((reg32 *) CYREG_HSIOM_PORT_SEL5)
 119:.\Generated_Source\PSoC4/CapSense.c **** #elif(CapSense_CFG_REG_TBL_SIZE == 8u)
 120:.\Generated_Source\PSoC4/CapSense.c **** 	((reg32 *) CYREG_HSIOM_PORT_SEL4),
 121:.\Generated_Source\PSoC4/CapSense.c **** 	((reg32 *) CYREG_HSIOM_PORT_SEL5),
 122:.\Generated_Source\PSoC4/CapSense.c **** 	((reg32 *) CYREG_HSIOM_PORT_SEL6),
 123:.\Generated_Source\PSoC4/CapSense.c **** 	((reg32 *) CYREG_HSIOM_PORT_SEL7)
 124:.\Generated_Source\PSoC4/CapSense.c **** #endif /* (CY_PSOC4_4200) */
 125:.\Generated_Source\PSoC4/CapSense.c **** };
 126:.\Generated_Source\PSoC4/CapSense.c **** 
 127:.\Generated_Source\PSoC4/CapSense.c **** reg32* const CapSense_prtCfgTbl[] = {
 128:.\Generated_Source\PSoC4/CapSense.c **** /* CY_PSOC4_4000 is default*/
 129:.\Generated_Source\PSoC4/CapSense.c **** 	((reg32 *) CYREG_GPIO_PRT0_PC),
 130:.\Generated_Source\PSoC4/CapSense.c **** 	((reg32 *) CYREG_GPIO_PRT1_PC),
 131:.\Generated_Source\PSoC4/CapSense.c **** 	((reg32 *) CYREG_GPIO_PRT2_PC),
 132:.\Generated_Source\PSoC4/CapSense.c **** 	((reg32 *) CYREG_GPIO_PRT3_PC),
 133:.\Generated_Source\PSoC4/CapSense.c **** #if (CapSense_CFG_REG_TBL_SIZE == 5u)
 134:.\Generated_Source\PSoC4/CapSense.c **** 	((reg32 *) CYREG_GPIO_PRT4_PC)
 135:.\Generated_Source\PSoC4/CapSense.c **** #elif(CapSense_CFG_REG_TBL_SIZE == 6u)
 136:.\Generated_Source\PSoC4/CapSense.c **** 	((reg32 *) CYREG_GPIO_PRT4_PC),
 137:.\Generated_Source\PSoC4/CapSense.c **** 	((reg32 *) CYREG_GPIO_PRT5_PC)
 138:.\Generated_Source\PSoC4/CapSense.c **** #elif(CapSense_CFG_REG_TBL_SIZE == 8u)
 139:.\Generated_Source\PSoC4/CapSense.c **** 	((reg32 *) CYREG_GPIO_PRT4_PC),
 140:.\Generated_Source\PSoC4/CapSense.c **** 	((reg32 *) CYREG_GPIO_PRT5_PC),
 141:.\Generated_Source\PSoC4/CapSense.c **** 	((reg32 *) CYREG_GPIO_PRT6_PC),
 142:.\Generated_Source\PSoC4/CapSense.c **** 	((reg32 *) CYREG_GPIO_PRT7_PC)
 143:.\Generated_Source\PSoC4/CapSense.c **** #endif /* (CY_PSOC4_4200) */	
 144:.\Generated_Source\PSoC4/CapSense.c **** };
 145:.\Generated_Source\PSoC4/CapSense.c **** 
 146:.\Generated_Source\PSoC4/CapSense.c **** reg32* const CapSense_prtDRTbl[] = {
ARM GAS  C:\Users\merlin\AppData\Local\Temp\ccZOZwzR.s 			page 4


 147:.\Generated_Source\PSoC4/CapSense.c **** /* CY_PSOC4_4000 is default*/
 148:.\Generated_Source\PSoC4/CapSense.c **** 	((reg32 *) CYREG_GPIO_PRT0_DR),
 149:.\Generated_Source\PSoC4/CapSense.c **** 	((reg32 *) CYREG_GPIO_PRT1_DR),
 150:.\Generated_Source\PSoC4/CapSense.c **** 	((reg32 *) CYREG_GPIO_PRT2_DR),
 151:.\Generated_Source\PSoC4/CapSense.c **** 	((reg32 *) CYREG_GPIO_PRT3_DR),
 152:.\Generated_Source\PSoC4/CapSense.c **** #if (CapSense_CFG_REG_TBL_SIZE == 5u)
 153:.\Generated_Source\PSoC4/CapSense.c **** 	((reg32 *) CYREG_GPIO_PRT4_DR)
 154:.\Generated_Source\PSoC4/CapSense.c **** #elif(CapSense_CFG_REG_TBL_SIZE == 6u)
 155:.\Generated_Source\PSoC4/CapSense.c **** 	((reg32 *) CYREG_GPIO_PRT4_DR),
 156:.\Generated_Source\PSoC4/CapSense.c **** 	((reg32 *) CYREG_GPIO_PRT5_DR),
 157:.\Generated_Source\PSoC4/CapSense.c **** #elif(CapSense_CFG_REG_TBL_SIZE == 8u)
 158:.\Generated_Source\PSoC4/CapSense.c **** 	((reg32 *) CYREG_GPIO_PRT4_DR),
 159:.\Generated_Source\PSoC4/CapSense.c **** 	((reg32 *) CYREG_GPIO_PRT5_DR),
 160:.\Generated_Source\PSoC4/CapSense.c **** 	((reg32 *) CYREG_GPIO_PRT6_DR),
 161:.\Generated_Source\PSoC4/CapSense.c **** 	((reg32 *) CYREG_GPIO_PRT7_DR),
 162:.\Generated_Source\PSoC4/CapSense.c **** #endif /* (CY_PSOC4_4200) */	
 163:.\Generated_Source\PSoC4/CapSense.c **** };
 164:.\Generated_Source\PSoC4/CapSense.c ****     
 165:.\Generated_Source\PSoC4/CapSense.c **** 
 166:.\Generated_Source\PSoC4/CapSense.c **** /*******************************************************************************
 167:.\Generated_Source\PSoC4/CapSense.c **** * Function Name: CapSense_Init
 168:.\Generated_Source\PSoC4/CapSense.c **** ********************************************************************************
 169:.\Generated_Source\PSoC4/CapSense.c **** *
 170:.\Generated_Source\PSoC4/CapSense.c **** * Summary:
 171:.\Generated_Source\PSoC4/CapSense.c **** *  API initializes default CapSense configuration provided by the customizer that defines 
 172:.\Generated_Source\PSoC4/CapSense.c **** *  the mode of component operations and resets all the sensors to an inactive state.
 173:.\Generated_Source\PSoC4/CapSense.c **** *
 174:.\Generated_Source\PSoC4/CapSense.c **** * Parameters:
 175:.\Generated_Source\PSoC4/CapSense.c **** *  None
 176:.\Generated_Source\PSoC4/CapSense.c **** *
 177:.\Generated_Source\PSoC4/CapSense.c **** * Return:
 178:.\Generated_Source\PSoC4/CapSense.c **** *  None
 179:.\Generated_Source\PSoC4/CapSense.c **** *
 180:.\Generated_Source\PSoC4/CapSense.c **** * Global Variables:
 181:.\Generated_Source\PSoC4/CapSense.c **** *  CapSense_immunityIndex - defines immunity level.
 182:.\Generated_Source\PSoC4/CapSense.c **** *
 183:.\Generated_Source\PSoC4/CapSense.c **** * Side Effects:
 184:.\Generated_Source\PSoC4/CapSense.c **** *  None
 185:.\Generated_Source\PSoC4/CapSense.c **** * 
 186:.\Generated_Source\PSoC4/CapSense.c **** *******************************************************************************/
 187:.\Generated_Source\PSoC4/CapSense.c **** void CapSense_Init(void)
 188:.\Generated_Source\PSoC4/CapSense.c **** {   
 189:.\Generated_Source\PSoC4/CapSense.c **** 	uint32 curSensor;
 190:.\Generated_Source\PSoC4/CapSense.c **** 	
 191:.\Generated_Source\PSoC4/CapSense.c **** 	#if(CapSense_IS_SHIELD_ENABLE)
 192:.\Generated_Source\PSoC4/CapSense.c **** 		
 193:.\Generated_Source\PSoC4/CapSense.c **** 		#if((CapSense_CSH_TANK_PREGARGE_OPTION == CapSense__CAPPRIOBUF) || (0u != CapSense_CSH_TANK_ENABL
 194:.\Generated_Source\PSoC4/CapSense.c **** 			uint32 newRegValue;
 195:.\Generated_Source\PSoC4/CapSense.c **** 			
 196:.\Generated_Source\PSoC4/CapSense.c **** 			newRegValue = CapSense_CTANK_CONNECTION_REG;
 197:.\Generated_Source\PSoC4/CapSense.c **** 	        newRegValue &= ~(CapSense_CSD_CTANK_CONNECTION_MASK);
 198:.\Generated_Source\PSoC4/CapSense.c **** 			newRegValue |= CapSense_CSD_CTANK_TO_AMUXBUS_B;
 199:.\Generated_Source\PSoC4/CapSense.c **** 	        CapSense_CTANK_CONNECTION_REG = newRegValue;
 200:.\Generated_Source\PSoC4/CapSense.c **** 			
 201:.\Generated_Source\PSoC4/CapSense.c **** 			#if(CapSense_CSH_TANK_PREGARGE_OPTION == CapSense__CAPPRIOBUF)
 202:.\Generated_Source\PSoC4/CapSense.c **** 				newRegValue = CapSense_CTANK_PORT_PC_REG;
 203:.\Generated_Source\PSoC4/CapSense.c **** 		        newRegValue &= ~(CapSense_CSD_CTANK_PC_MASK);
ARM GAS  C:\Users\merlin\AppData\Local\Temp\ccZOZwzR.s 			page 5


 204:.\Generated_Source\PSoC4/CapSense.c **** 				newRegValue |= CapSense_CTANK_PC_STRONG_MODE;
 205:.\Generated_Source\PSoC4/CapSense.c **** 		        CapSense_CTANK_PORT_PC_REG = newRegValue;
 206:.\Generated_Source\PSoC4/CapSense.c **** 				
 207:.\Generated_Source\PSoC4/CapSense.c **** 				newRegValue = CapSense_CTANK_PORT_DR_REG;
 208:.\Generated_Source\PSoC4/CapSense.c **** 		        newRegValue &= ~(CapSense_CTANK_DR_MASK);
 209:.\Generated_Source\PSoC4/CapSense.c **** 				newRegValue |= CapSense_CTANK_DR_CONFIG;
 210:.\Generated_Source\PSoC4/CapSense.c **** 		        CapSense_CTANK_PORT_DR_REG = newRegValue;
 211:.\Generated_Source\PSoC4/CapSense.c **** 			#endif /* (CapSense_CSH_TANK_PREGARGE_OPTION == CapSense__CAPPRIOBUF) */
 212:.\Generated_Source\PSoC4/CapSense.c **** 	        
 213:.\Generated_Source\PSoC4/CapSense.c **** 		#endif /* ((CapSense_CSH_TANK_PREGARGE_OPTION == CapSense__CAPPRIOBUF) || (CapSense_CSH_TANK_ENAB
 214:.\Generated_Source\PSoC4/CapSense.c **** 		
 215:.\Generated_Source\PSoC4/CapSense.c **** 		CapSense_EnableShieldElectrode((uint32)CapSense_SHIELD_PIN_NUMBER, (uint32)CapSense_SHIELD_PORT_N
 216:.\Generated_Source\PSoC4/CapSense.c **** 		
 217:.\Generated_Source\PSoC4/CapSense.c **** 	#endif /* (CapSense_IS_SHIELD_ENABLE) */
 218:.\Generated_Source\PSoC4/CapSense.c **** 	
 219:.\Generated_Source\PSoC4/CapSense.c **** 	for(curSensor = 0u; curSensor < CapSense_TOTAL_SENSOR_COUNT; curSensor++)
 220:.\Generated_Source\PSoC4/CapSense.c **** 	{
 221:.\Generated_Source\PSoC4/CapSense.c **** 		CapSense_unscannedSnsDriveMode[curSensor] = CapSense_CONNECT_INACTIVE_SNS;
 222:.\Generated_Source\PSoC4/CapSense.c **** 	}
 223:.\Generated_Source\PSoC4/CapSense.c ****     
 224:.\Generated_Source\PSoC4/CapSense.c **** 	CapSense_CsdHwBlockInit();
 225:.\Generated_Source\PSoC4/CapSense.c ****     CapSense_SetShieldDelay(CapSense_SHIELD_DELAY );
 226:.\Generated_Source\PSoC4/CapSense.c **** 	
 227:.\Generated_Source\PSoC4/CapSense.c **** 	/* Clear all sensors */
 228:.\Generated_Source\PSoC4/CapSense.c ****     CapSense_ClearSensors();
 229:.\Generated_Source\PSoC4/CapSense.c **** }
 230:.\Generated_Source\PSoC4/CapSense.c **** 
 231:.\Generated_Source\PSoC4/CapSense.c **** /*******************************************************************************
 232:.\Generated_Source\PSoC4/CapSense.c **** * Function Name: CapSense_CsdHwBlockInit
 233:.\Generated_Source\PSoC4/CapSense.c **** ********************************************************************************
 234:.\Generated_Source\PSoC4/CapSense.c **** *
 235:.\Generated_Source\PSoC4/CapSense.c **** * Summary:
 236:.\Generated_Source\PSoC4/CapSense.c **** *  Initialises the hardware parameters of the CSD block 
 237:.\Generated_Source\PSoC4/CapSense.c **** *
 238:.\Generated_Source\PSoC4/CapSense.c **** * Parameters:
 239:.\Generated_Source\PSoC4/CapSense.c **** *  None
 240:.\Generated_Source\PSoC4/CapSense.c **** *
 241:.\Generated_Source\PSoC4/CapSense.c **** * Return:
 242:.\Generated_Source\PSoC4/CapSense.c **** *  None
 243:.\Generated_Source\PSoC4/CapSense.c **** *
 244:.\Generated_Source\PSoC4/CapSense.c **** * Global Variables:
 245:.\Generated_Source\PSoC4/CapSense.c **** *  CapSense_csdTrim1 - Contains IDAC trim register value for Sourcing Mode.
 246:.\Generated_Source\PSoC4/CapSense.c **** *  CapSense_csdTrim2 - Contains IDAC trim register value for Sinking Mode.
 247:.\Generated_Source\PSoC4/CapSense.c **** *
 248:.\Generated_Source\PSoC4/CapSense.c **** * Side Effects:
 249:.\Generated_Source\PSoC4/CapSense.c **** *  None
 250:.\Generated_Source\PSoC4/CapSense.c **** * 
 251:.\Generated_Source\PSoC4/CapSense.c **** *******************************************************************************/
 252:.\Generated_Source\PSoC4/CapSense.c **** void CapSense_CsdHwBlockInit(void)
 253:.\Generated_Source\PSoC4/CapSense.c **** {
  26              		.loc 1 253 0
  27              		.cfi_startproc
  28 0000 38B5     		push	{r3, r4, r5, lr}
  29              		.cfi_def_cfa_offset 16
  30              		.cfi_offset 3, -16
  31              		.cfi_offset 4, -12
  32              		.cfi_offset 5, -8
ARM GAS  C:\Users\merlin\AppData\Local\Temp\ccZOZwzR.s 			page 6


  33              		.cfi_offset 14, -4
 254:.\Generated_Source\PSoC4/CapSense.c **** 	uint32 newRegValue;
 255:.\Generated_Source\PSoC4/CapSense.c **** 	
 256:.\Generated_Source\PSoC4/CapSense.c **** 	    /* Set trim registers for CSD Mode */
 257:.\Generated_Source\PSoC4/CapSense.c ****     #if (CapSense_IDAC1_POLARITY == CapSense__IDAC_SINK)
 258:.\Generated_Source\PSoC4/CapSense.c **** 		/* iDAC1 Sinking Mode */ 
 259:.\Generated_Source\PSoC4/CapSense.c **** 		CapSense_csdTrim2 = (uint8)CapSense_CSD_TRIM2_REG;
 260:.\Generated_Source\PSoC4/CapSense.c **** 		newRegValue = CapSense_csdTrim2;
 261:.\Generated_Source\PSoC4/CapSense.c **** 		newRegValue &= CapSense_CSD_IDAC1_TRIM_MASK;
 262:.\Generated_Source\PSoC4/CapSense.c **** 		newRegValue |= (uint32)((uint32)CapSense_SFLASH_CSD_TRIM2_REG & (uint32)CapSense_CSFLASH_TRIM_IDA
 263:.\Generated_Source\PSoC4/CapSense.c **** 		
 264:.\Generated_Source\PSoC4/CapSense.c **** 		#if (CapSense_IDAC_CNT == 2u)
 265:.\Generated_Source\PSoC4/CapSense.c **** 		    /* iDAC2 Sinking Mode */ 
 266:.\Generated_Source\PSoC4/CapSense.c **** 			newRegValue &= CapSense_CSD_IDAC2_TRIM_MASK;
 267:.\Generated_Source\PSoC4/CapSense.c **** 			newRegValue |= (uint32)((uint32)CapSense_SFLASH_CSD_TRIM2_REG & (uint32)CapSense_CSFLASH_TRIM_ID
 268:.\Generated_Source\PSoC4/CapSense.c **** 		#endif /* (CapSense_IDAC_CNT == 2u) */
 269:.\Generated_Source\PSoC4/CapSense.c **** 		CapSense_CSD_TRIM2_REG = newRegValue;
 270:.\Generated_Source\PSoC4/CapSense.c ****     #else   
 271:.\Generated_Source\PSoC4/CapSense.c **** 		/* iDAC1 Sourcing Mode */ 
 272:.\Generated_Source\PSoC4/CapSense.c **** 		CapSense_csdTrim1 = (uint8)CapSense_CSD_TRIM1_REG;
  34              		.loc 1 272 0
  35 0002 1748     		ldr	r0, .L2
  36 0004 0368     		ldr	r3, [r0]
  37 0006 DBB2     		uxtb	r3, r3
  38 0008 164A     		ldr	r2, .L2+4
  39 000a 1370     		strb	r3, [r2]
  40              	.LVL0:
 273:.\Generated_Source\PSoC4/CapSense.c **** 		newRegValue = CapSense_csdTrim1;
 274:.\Generated_Source\PSoC4/CapSense.c **** 		newRegValue &= CapSense_CSD_IDAC1_TRIM_MASK;
  41              		.loc 1 274 0
  42 000c 0F24     		mov	r4, #15
  43 000e A343     		bic	r3, r4
  44              	.LVL1:
  45 0010 191C     		mov	r1, r3
  46              	.LVL2:
 275:.\Generated_Source\PSoC4/CapSense.c **** 		newRegValue |= (uint32)((uint32)CapSense_SFLASH_CSD_TRIM1_REG & (uint32)CapSense_CSFLASH_TRIM_IDA
  47              		.loc 1 275 0
  48 0012 154D     		ldr	r5, .L2+8
  49 0014 2A78     		ldrb	r2, [r5]
  50 0016 0F23     		mov	r3, #15
  51 0018 1340     		and	r3, r2
  52 001a 0B43     		orr	r3, r1
  53              	.LVL3:
 276:.\Generated_Source\PSoC4/CapSense.c **** 		#if (CapSense_IDAC_CNT == 2u)
 277:.\Generated_Source\PSoC4/CapSense.c **** 		     /* iDAC2 Sourcing Mode */ 
 278:.\Generated_Source\PSoC4/CapSense.c **** 			newRegValue &= CapSense_CSD_IDAC2_TRIM_MASK;
  54              		.loc 1 278 0
  55 001c F022     		mov	r2, #240
  56 001e 9343     		bic	r3, r2
  57              	.LVL4:
  58 0020 1A1C     		mov	r2, r3
  59              	.LVL5:
 279:.\Generated_Source\PSoC4/CapSense.c **** 			newRegValue |= (uint32)((uint32)CapSense_SFLASH_CSD_TRIM1_REG & (uint32)CapSense_CSFLASH_TRIM_ID
  60              		.loc 1 279 0
  61 0022 2B78     		ldrb	r3, [r5]
  62 0024 A343     		bic	r3, r4
  63 0026 1343     		orr	r3, r2
ARM GAS  C:\Users\merlin\AppData\Local\Temp\ccZOZwzR.s 			page 7


  64              	.LVL6:
 280:.\Generated_Source\PSoC4/CapSense.c **** 		#endif		
 281:.\Generated_Source\PSoC4/CapSense.c **** 		CapSense_CSD_TRIM1_REG = newRegValue;
  65              		.loc 1 281 0
  66 0028 0360     		str	r3, [r0]
 282:.\Generated_Source\PSoC4/CapSense.c ****     #endif /* (CapSense_IDAC1_POLARITY == CapSense__IDAC_SINK) */
 283:.\Generated_Source\PSoC4/CapSense.c **** 	
 284:.\Generated_Source\PSoC4/CapSense.c **** 	/* Configure CSD and IDAC */
 285:.\Generated_Source\PSoC4/CapSense.c **** 	#if (CapSense_IDAC_CNT > 1u)
 286:.\Generated_Source\PSoC4/CapSense.c **** 		CapSense_CSD_IDAC_REG = CapSense_DEFAULT_CSD_IDAC_CONFIG;
  67              		.loc 1 286 0
  68 002a 104A     		ldr	r2, .L2+12
  69 002c 104B     		ldr	r3, .L2+16
  70              	.LVL7:
  71 002e 1A60     		str	r2, [r3]
  72              	.LVL8:
 287:.\Generated_Source\PSoC4/CapSense.c **** 		CapSense_CSD_CFG_REG = CapSense_DEFAULT_CSD_CONFIG;
  73              		.loc 1 287 0
  74 0030 104A     		ldr	r2, .L2+20
  75 0032 114B     		ldr	r3, .L2+24
  76 0034 1A60     		str	r2, [r3]
 288:.\Generated_Source\PSoC4/CapSense.c **** 	#else
 289:.\Generated_Source\PSoC4/CapSense.c **** 		CapSense_CSD_IDAC_REG &= ~(CapSense_CSD_IDAC1_MODE_MASK  | CapSense_CSD_IDAC1_DATA_MASK);
 290:.\Generated_Source\PSoC4/CapSense.c **** 		CapSense_CSD_IDAC_REG |= CapSense_DEFAULT_CSD_IDAC_CONFIG;
 291:.\Generated_Source\PSoC4/CapSense.c **** 		
 292:.\Generated_Source\PSoC4/CapSense.c **** 		CapSense_CSD_CFG_REG &= ~(CapSense_CSD_CONFIG_MASK);
 293:.\Generated_Source\PSoC4/CapSense.c **** 		CapSense_CSD_CFG_REG |= (CapSense_DEFAULT_CSD_CONFIG);
 294:.\Generated_Source\PSoC4/CapSense.c **** 	#endif /* (CapSense_IDAC_CNT > 1u) */
 295:.\Generated_Source\PSoC4/CapSense.c **** 	
 296:.\Generated_Source\PSoC4/CapSense.c **** 	
 297:.\Generated_Source\PSoC4/CapSense.c **** 	/* Connect Cmod to AMUX bus */ 
 298:.\Generated_Source\PSoC4/CapSense.c **** 	newRegValue = CapSense_CMOD_CONNECTION_REG; 
  77              		.loc 1 298 0
  78 0036 114A     		ldr	r2, .L2+28
  79 0038 1168     		ldr	r1, [r2]
  80              	.LVL9:
 299:.\Generated_Source\PSoC4/CapSense.c ****     newRegValue &= ~(CapSense_CSD_CMOD_CONNECTION_MASK);
  81              		.loc 1 299 0
  82 003a 114B     		ldr	r3, .L2+32
  83 003c 0B40     		and	r3, r1
  84              	.LVL10:
 300:.\Generated_Source\PSoC4/CapSense.c ****     newRegValue |= CapSense_CSD_CMOD_TO_AMUXBUS_A;
  85              		.loc 1 300 0
  86 003e C021     		mov	r1, #192
  87 0040 C900     		lsl	r1, r1, #3
  88 0042 0B43     		orr	r3, r1
  89              	.LVL11:
 301:.\Generated_Source\PSoC4/CapSense.c ****     CapSense_CMOD_CONNECTION_REG = newRegValue;
  90              		.loc 1 301 0
  91 0044 1360     		str	r3, [r2]
 302:.\Generated_Source\PSoC4/CapSense.c **** 	
 303:.\Generated_Source\PSoC4/CapSense.c **** 	/* Configure Dead Band PWM if it is enabled */
 304:.\Generated_Source\PSoC4/CapSense.c **** 	#if(CapSense_CSD_4B_PWM_MODE != CapSense__PWM_OFF)
 305:.\Generated_Source\PSoC4/CapSense.c **** 		CapSense_CSD_4B_PWM_REG = CapSense_DEFAULT_CSD_4B_PWM_CONFIG;
 306:.\Generated_Source\PSoC4/CapSense.c **** 	#endif /* (CapSense_CSD_4B_PWM_MODE != CapSense__PWM_OFF) */
 307:.\Generated_Source\PSoC4/CapSense.c **** 
 308:.\Generated_Source\PSoC4/CapSense.c **** 	/* Setup ISR */
ARM GAS  C:\Users\merlin\AppData\Local\Temp\ccZOZwzR.s 			page 8


 309:.\Generated_Source\PSoC4/CapSense.c **** 	CyIntDisable(CapSense_ISR_NUMBER);
  92              		.loc 1 309 0
  93 0046 1120     		mov	r0, #17
  94 0048 FFF7FEFF 		bl	CyIntDisable
  95              	.LVL12:
 310:.\Generated_Source\PSoC4/CapSense.c **** 	#if !defined(CY_EXTERNAL_INTERRUPT_CONFIG)		
 311:.\Generated_Source\PSoC4/CapSense.c **** 	    (void)CyIntSetVector(CapSense_ISR_NUMBER, &CapSense_ISR);
  96              		.loc 1 311 0
  97 004c 1120     		mov	r0, #17
  98 004e 0D49     		ldr	r1, .L2+36
  99 0050 FFF7FEFF 		bl	CyIntSetVector
 100              	.LVL13:
 312:.\Generated_Source\PSoC4/CapSense.c **** 	    CyIntSetPriority(CapSense_ISR_NUMBER, CapSense_ISR_PRIORITY);
 101              		.loc 1 312 0
 102 0054 1120     		mov	r0, #17
 103 0056 0321     		mov	r1, #3
 104 0058 FFF7FEFF 		bl	CyIntSetPriority
 105              	.LVL14:
 313:.\Generated_Source\PSoC4/CapSense.c **** 	#endif /* (CY_EXTERNAL_INTERRUPT_CONFIG) */
 314:.\Generated_Source\PSoC4/CapSense.c **** }
 106              		.loc 1 314 0
 107              		@ sp needed
 108 005c 38BD     		pop	{r3, r4, r5, pc}
 109              	.L3:
 110 005e C046     		.align	2
 111              	.L2:
 112 0060 00FF2840 		.word	1076428544
 113 0064 00000000 		.word	CapSense_csdTrim1
 114 0068 62F1FF0F 		.word	268431714
 115 006c 00020001 		.word	16777728
 116 0070 08002840 		.word	1076363272
 117 0074 C008A001 		.word	27265216
 118 0078 04002840 		.word	1076363268
 119 007c 00040240 		.word	1073873920
 120 0080 FFF0FFFF 		.word	-3841
 121 0084 00000000 		.word	CapSense_ISR
 122              		.cfi_endproc
 123              	.LFE35:
 124              		.size	CapSense_CsdHwBlockInit, .-CapSense_CsdHwBlockInit
 125              		.section	.text.CapSense_Enable,"ax",%progbits
 126              		.align	2
 127              		.global	CapSense_Enable
 128              		.code	16
 129              		.thumb_func
 130              		.type	CapSense_Enable, %function
 131              	CapSense_Enable:
 132              	.LFB36:
 315:.\Generated_Source\PSoC4/CapSense.c **** 
 316:.\Generated_Source\PSoC4/CapSense.c **** 
 317:.\Generated_Source\PSoC4/CapSense.c **** /*******************************************************************************
 318:.\Generated_Source\PSoC4/CapSense.c **** * Function Name: CapSense_Enable
 319:.\Generated_Source\PSoC4/CapSense.c **** ********************************************************************************
 320:.\Generated_Source\PSoC4/CapSense.c **** *
 321:.\Generated_Source\PSoC4/CapSense.c **** * Summary:
 322:.\Generated_Source\PSoC4/CapSense.c **** *  Enables the CSD block and related resources to an active mode.
 323:.\Generated_Source\PSoC4/CapSense.c **** *
 324:.\Generated_Source\PSoC4/CapSense.c **** * Parameters:
ARM GAS  C:\Users\merlin\AppData\Local\Temp\ccZOZwzR.s 			page 9


 325:.\Generated_Source\PSoC4/CapSense.c **** *  None
 326:.\Generated_Source\PSoC4/CapSense.c **** *
 327:.\Generated_Source\PSoC4/CapSense.c **** * Return:
 328:.\Generated_Source\PSoC4/CapSense.c **** *  None
 329:.\Generated_Source\PSoC4/CapSense.c **** *
 330:.\Generated_Source\PSoC4/CapSense.c **** * Global Variables:
 331:.\Generated_Source\PSoC4/CapSense.c **** *  None.
 332:.\Generated_Source\PSoC4/CapSense.c **** *
 333:.\Generated_Source\PSoC4/CapSense.c **** * Side Effects:
 334:.\Generated_Source\PSoC4/CapSense.c **** *  None
 335:.\Generated_Source\PSoC4/CapSense.c **** * 
 336:.\Generated_Source\PSoC4/CapSense.c **** *******************************************************************************/
 337:.\Generated_Source\PSoC4/CapSense.c **** void CapSense_Enable(void)
 338:.\Generated_Source\PSoC4/CapSense.c **** {
 133              		.loc 1 338 0
 134              		.cfi_startproc
 135 0000 08B5     		push	{r3, lr}
 136              		.cfi_def_cfa_offset 8
 137              		.cfi_offset 3, -8
 138              		.cfi_offset 14, -4
 339:.\Generated_Source\PSoC4/CapSense.c ****     uint32 newRegValue;
 340:.\Generated_Source\PSoC4/CapSense.c ****     
 341:.\Generated_Source\PSoC4/CapSense.c ****     /* Enable Clocks */
 342:.\Generated_Source\PSoC4/CapSense.c **** 	CapSense_SenseClk_Stop();
 139              		.loc 1 342 0
 140 0002 FFF7FEFF 		bl	CapSense_SenseClk_Stop
 141              	.LVL15:
 343:.\Generated_Source\PSoC4/CapSense.c **** 	CapSense_SampleClk_Stop();
 142              		.loc 1 343 0
 143 0006 FFF7FEFF 		bl	CapSense_SampleClk_Stop
 144              	.LVL16:
 344:.\Generated_Source\PSoC4/CapSense.c **** 	
 345:.\Generated_Source\PSoC4/CapSense.c **** 	CapSense_SampleClk_SetDividerValue((uint16)CapSense_INITIAL_CLK_DIVIDER);
 145              		.loc 1 345 0
 146 000a 0020     		mov	r0, #0
 147 000c 0021     		mov	r1, #0
 148 000e FFF7FEFF 		bl	CapSense_SampleClk_SetFractionalDividerRegister
 149              	.LVL17:
 346:.\Generated_Source\PSoC4/CapSense.c **** 	CapSense_SenseClk_SetDividerValue((uint16)CapSense_INITIAL_CLK_DIVIDER);
 150              		.loc 1 346 0
 151 0012 0020     		mov	r0, #0
 152 0014 0021     		mov	r1, #0
 153 0016 FFF7FEFF 		bl	CapSense_SenseClk_SetFractionalDividerRegister
 154              	.LVL18:
 347:.\Generated_Source\PSoC4/CapSense.c **** 	
 348:.\Generated_Source\PSoC4/CapSense.c **** 	#if (0u == CapSense_IS_M0S8PERI_BLOCK)
 349:.\Generated_Source\PSoC4/CapSense.c **** 		CapSense_SenseClk_Start();
 350:.\Generated_Source\PSoC4/CapSense.c **** 		CapSense_SampleClk_Start();
 351:.\Generated_Source\PSoC4/CapSense.c **** 	#else
 352:.\Generated_Source\PSoC4/CapSense.c **** 		CapSense_SampleClk_Start();
 155              		.loc 1 352 0
 156 001a FF20     		mov	r0, #255
 157 001c FFF7FEFF 		bl	CapSense_SampleClk_StartEx
 158              	.LVL19:
 353:.\Generated_Source\PSoC4/CapSense.c **** 		CapSense_SenseClk_StartEx(CapSense_SampleClk__DIV_ID);
 159              		.loc 1 353 0
 160 0020 4020     		mov	r0, #64
ARM GAS  C:\Users\merlin\AppData\Local\Temp\ccZOZwzR.s 			page 10


 161 0022 FFF7FEFF 		bl	CapSense_SenseClk_StartEx
 162              	.LVL20:
 354:.\Generated_Source\PSoC4/CapSense.c **** 	#endif /* (0u == CapSense_IS_M0S8PERI_BLOCK) */
 355:.\Generated_Source\PSoC4/CapSense.c **** 	
 356:.\Generated_Source\PSoC4/CapSense.c **** 	/* Enable the CSD block */
 357:.\Generated_Source\PSoC4/CapSense.c ****     newRegValue = CapSense_CSD_CFG_REG;
 163              		.loc 1 357 0
 164 0026 044A     		ldr	r2, .L5
 165 0028 1368     		ldr	r3, [r2]
 166              	.LVL21:
 358:.\Generated_Source\PSoC4/CapSense.c ****     newRegValue |= (CapSense_CSD_CFG_ENABLE | CapSense_CSD_CFG_SENSE_COMP_EN 
 167              		.loc 1 358 0
 168 002a 0449     		ldr	r1, .L5+4
 169 002c 0B43     		orr	r3, r1
 170              	.LVL22:
 359:.\Generated_Source\PSoC4/CapSense.c ****                                                    | CapSense_CSD_CFG_SENSE_EN);    
 360:.\Generated_Source\PSoC4/CapSense.c ****     CapSense_CSD_CFG_REG = newRegValue;
 171              		.loc 1 360 0
 172 002e 1360     		str	r3, [r2]
 361:.\Generated_Source\PSoC4/CapSense.c **** 
 362:.\Generated_Source\PSoC4/CapSense.c ****     /* Enable interrupt */
 363:.\Generated_Source\PSoC4/CapSense.c ****     CyIntEnable(CapSense_ISR_NUMBER);
 173              		.loc 1 363 0
 174 0030 1120     		mov	r0, #17
 175 0032 FFF7FEFF 		bl	CyIntEnable
 176              	.LVL23:
 364:.\Generated_Source\PSoC4/CapSense.c **** }
 177              		.loc 1 364 0
 178              		@ sp needed
 179 0036 08BD     		pop	{r3, pc}
 180              	.L6:
 181              		.align	2
 182              	.L5:
 183 0038 04002840 		.word	1076363268
 184 003c 00100880 		.word	-2146955264
 185              		.cfi_endproc
 186              	.LFE36:
 187              		.size	CapSense_Enable, .-CapSense_Enable
 188              		.section	.text.CapSense_Stop,"ax",%progbits
 189              		.align	2
 190              		.global	CapSense_Stop
 191              		.code	16
 192              		.thumb_func
 193              		.type	CapSense_Stop, %function
 194              	CapSense_Stop:
 195              	.LFB38:
 365:.\Generated_Source\PSoC4/CapSense.c **** 
 366:.\Generated_Source\PSoC4/CapSense.c **** 
 367:.\Generated_Source\PSoC4/CapSense.c **** /*******************************************************************************
 368:.\Generated_Source\PSoC4/CapSense.c **** * Function Name: CapSense_Start
 369:.\Generated_Source\PSoC4/CapSense.c **** ********************************************************************************
 370:.\Generated_Source\PSoC4/CapSense.c **** *
 371:.\Generated_Source\PSoC4/CapSense.c **** * Summary:
 372:.\Generated_Source\PSoC4/CapSense.c **** *  This is the preferred method to begin the component operation. CapSense_Start() 
 373:.\Generated_Source\PSoC4/CapSense.c **** *  calls the CapSense_Init() function, and then calls the CapSense_Enable() 
 374:.\Generated_Source\PSoC4/CapSense.c **** *  function. Initializes the registers and starts the CSD method of the CapSense 
 375:.\Generated_Source\PSoC4/CapSense.c **** *  component. Resets all the sensors to an inactive state. Enables interrupts for 
ARM GAS  C:\Users\merlin\AppData\Local\Temp\ccZOZwzR.s 			page 11


 376:.\Generated_Source\PSoC4/CapSense.c **** *  sensors scanning. When the SmartSense tuning mode is selected, the tuning procedure
 377:.\Generated_Source\PSoC4/CapSense.c **** *  is applied for all the sensors. The CapSense_Start() routine must be called before 
 378:.\Generated_Source\PSoC4/CapSense.c **** *  any other API routines.
 379:.\Generated_Source\PSoC4/CapSense.c **** *
 380:.\Generated_Source\PSoC4/CapSense.c **** * Parameters:
 381:.\Generated_Source\PSoC4/CapSense.c **** *  None
 382:.\Generated_Source\PSoC4/CapSense.c **** *
 383:.\Generated_Source\PSoC4/CapSense.c **** * Return:
 384:.\Generated_Source\PSoC4/CapSense.c **** *  None
 385:.\Generated_Source\PSoC4/CapSense.c **** *
 386:.\Generated_Source\PSoC4/CapSense.c **** * Global Variables:
 387:.\Generated_Source\PSoC4/CapSense.c **** *   CapSense_initVar - used to check the initial configuration, 
 388:.\Generated_Source\PSoC4/CapSense.c **** *   modified on the first function call.
 389:.\Generated_Source\PSoC4/CapSense.c **** *  CapSense_lowLevelTuningDone - Used to notify the Tuner GUI that 
 390:.\Generated_Source\PSoC4/CapSense.c **** *   tuning of the scanning parameters is done. 
 391:.\Generated_Source\PSoC4/CapSense.c **** *
 392:.\Generated_Source\PSoC4/CapSense.c **** * Side Effects:
 393:.\Generated_Source\PSoC4/CapSense.c **** *  None
 394:.\Generated_Source\PSoC4/CapSense.c **** * 
 395:.\Generated_Source\PSoC4/CapSense.c **** *******************************************************************************/
 396:.\Generated_Source\PSoC4/CapSense.c **** void CapSense_Start(void)
 397:.\Generated_Source\PSoC4/CapSense.c **** {
 398:.\Generated_Source\PSoC4/CapSense.c **** 
 399:.\Generated_Source\PSoC4/CapSense.c **** 	static uint8 CapSense_initVar = 0u;
 400:.\Generated_Source\PSoC4/CapSense.c **** 
 401:.\Generated_Source\PSoC4/CapSense.c **** 	#if((0u != CapSense_AUTOCALIBRATION_ENABLE) && (CapSense_TUNING_METHOD != CapSense__TUNING_AUTO))
 402:.\Generated_Source\PSoC4/CapSense.c **** 		uint32 curSensor;
 403:.\Generated_Source\PSoC4/CapSense.c **** 		uint32 rawLevel;
 404:.\Generated_Source\PSoC4/CapSense.c **** 		uint32 widget;
 405:.\Generated_Source\PSoC4/CapSense.c ****     #endif /* ((0u != CapSense_AUTOCALIBRATION_ENABLE) && (CapSense_TUNING_METHOD != CapSense__TUNI
 406:.\Generated_Source\PSoC4/CapSense.c **** 	
 407:.\Generated_Source\PSoC4/CapSense.c ****     if (CapSense_initVar == 0u)
 408:.\Generated_Source\PSoC4/CapSense.c ****     {
 409:.\Generated_Source\PSoC4/CapSense.c ****         CapSense_Init();
 410:.\Generated_Source\PSoC4/CapSense.c ****         CapSense_initVar = 1u;
 411:.\Generated_Source\PSoC4/CapSense.c ****     }
 412:.\Generated_Source\PSoC4/CapSense.c ****     CapSense_Enable();
 413:.\Generated_Source\PSoC4/CapSense.c **** 	
 414:.\Generated_Source\PSoC4/CapSense.c ****     /* AutoTunning start */
 415:.\Generated_Source\PSoC4/CapSense.c ****     #if(CapSense_TUNING_METHOD == CapSense__TUNING_AUTO)
 416:.\Generated_Source\PSoC4/CapSense.c **** 		#if(0u != CapSense_CSHL_API_GENERATE)
 417:.\Generated_Source\PSoC4/CapSense.c **** 	        CapSense_AutoTune();
 418:.\Generated_Source\PSoC4/CapSense.c **** 	        CapSense_lowLevelTuningDone = 1u;
 419:.\Generated_Source\PSoC4/CapSense.c **** 		#endif /* (0u != CapSense_CSHL_API_GENERATE) */
 420:.\Generated_Source\PSoC4/CapSense.c **** 	#else
 421:.\Generated_Source\PSoC4/CapSense.c **** 		#if(0u != CapSense_AUTOCALIBRATION_ENABLE)
 422:.\Generated_Source\PSoC4/CapSense.c **** 			
 423:.\Generated_Source\PSoC4/CapSense.c **** 			#if(CapSense_IDAC_CNT > 1u)
 424:.\Generated_Source\PSoC4/CapSense.c **** 				CapSense_CSD_IDAC_REG &= ~(CapSense_CSD_IDAC2_MODE_MASK);	
 425:.\Generated_Source\PSoC4/CapSense.c **** 			#endif /* (CapSense_IDAC_CNT > 1u) */
 426:.\Generated_Source\PSoC4/CapSense.c **** 			
 427:.\Generated_Source\PSoC4/CapSense.c **** 			for(curSensor = 0u; curSensor < CapSense_TOTAL_SCANSLOT_COUNT; curSensor++)
 428:.\Generated_Source\PSoC4/CapSense.c **** 			{
 429:.\Generated_Source\PSoC4/CapSense.c **** 				widget = CapSense_widgetNumber[curSensor];
 430:.\Generated_Source\PSoC4/CapSense.c **** 				rawLevel = CapSense_widgetResolution[widget] >> CapSense_RESOLUTION_OFFSET;
 431:.\Generated_Source\PSoC4/CapSense.c **** 				
 432:.\Generated_Source\PSoC4/CapSense.c **** 				/* Calibration level should be equal to 85% from scanning resolution */
ARM GAS  C:\Users\merlin\AppData\Local\Temp\ccZOZwzR.s 			page 12


 433:.\Generated_Source\PSoC4/CapSense.c **** 				rawLevel = (rawLevel * 85u) / 100u;
 434:.\Generated_Source\PSoC4/CapSense.c **** 				
 435:.\Generated_Source\PSoC4/CapSense.c **** 				CapSense_CalibrateSensor(curSensor, rawLevel, CapSense_modulationIDAC);
 436:.\Generated_Source\PSoC4/CapSense.c **** 			}
 437:.\Generated_Source\PSoC4/CapSense.c **** 
 438:.\Generated_Source\PSoC4/CapSense.c **** 			#if(0u != CapSense_TOTAL_CENTROIDS_COUNT) 
 439:.\Generated_Source\PSoC4/CapSense.c **** 				CapSense_NormalizeWidgets(CapSense_END_OF_WIDGETS_INDEX, CapSense_modulationIDAC);
 440:.\Generated_Source\PSoC4/CapSense.c **** 			#endif /* (0u != CapSense_TOTAL_CENTROIDS_COUNT)  */
 441:.\Generated_Source\PSoC4/CapSense.c **** 
 442:.\Generated_Source\PSoC4/CapSense.c **** 			#if(CapSense_IDAC_CNT > 1u)
 443:.\Generated_Source\PSoC4/CapSense.c **** 				for(curSensor = 0u; curSensor < CapSense_TOTAL_SCANSLOT_COUNT; curSensor++)
 444:.\Generated_Source\PSoC4/CapSense.c **** 			    {
 445:.\Generated_Source\PSoC4/CapSense.c **** 					CapSense_compensationIDAC[curSensor] = CapSense_modulationIDAC[curSensor] / 2u;
 446:.\Generated_Source\PSoC4/CapSense.c **** 					CapSense_modulationIDAC[curSensor] = (CapSense_modulationIDAC[curSensor] + 1u) / 2u;
 447:.\Generated_Source\PSoC4/CapSense.c **** 			    }
 448:.\Generated_Source\PSoC4/CapSense.c **** 				CapSense_CSD_IDAC_REG |= CapSense_CSD_IDAC2_MODE_FIXED;
 449:.\Generated_Source\PSoC4/CapSense.c **** 			#endif /* (CapSense_IDAC_CNT > 1u) */
 450:.\Generated_Source\PSoC4/CapSense.c **** 			
 451:.\Generated_Source\PSoC4/CapSense.c ****         #endif /* (0u != CapSense_AUTOCALIBRATION_ENABLE) */ 
 452:.\Generated_Source\PSoC4/CapSense.c **** 					
 453:.\Generated_Source\PSoC4/CapSense.c ****     #endif /* ((CapSense_TUNING_METHOD == CapSense__TUNING_AUTO) */	
 454:.\Generated_Source\PSoC4/CapSense.c **** 	
 455:.\Generated_Source\PSoC4/CapSense.c **** 	/* Initialize Advanced Centroid */
 456:.\Generated_Source\PSoC4/CapSense.c **** 	#if(CapSense_TOTAL_TRACKPAD_GESTURES_COUNT > 0u)
 457:.\Generated_Source\PSoC4/CapSense.c **** 		CapSense_AdvancedCentroidInit();
 458:.\Generated_Source\PSoC4/CapSense.c **** 	#endif /* (CapSense_TOTAL_TRACKPAD_GESTURES_COUNT > 0u) */
 459:.\Generated_Source\PSoC4/CapSense.c **** 	
 460:.\Generated_Source\PSoC4/CapSense.c **** 	/* Connect sense comparator input to AMUXA */
 461:.\Generated_Source\PSoC4/CapSense.c **** 	CapSense_CSD_CFG_REG |= CapSense_CSD_CFG_SENSE_INSEL;
 462:.\Generated_Source\PSoC4/CapSense.c **** }
 463:.\Generated_Source\PSoC4/CapSense.c **** 
 464:.\Generated_Source\PSoC4/CapSense.c **** 
 465:.\Generated_Source\PSoC4/CapSense.c **** /*******************************************************************************
 466:.\Generated_Source\PSoC4/CapSense.c **** * Function Name: CapSense_Stop
 467:.\Generated_Source\PSoC4/CapSense.c **** ********************************************************************************
 468:.\Generated_Source\PSoC4/CapSense.c **** *
 469:.\Generated_Source\PSoC4/CapSense.c **** * Summary:
 470:.\Generated_Source\PSoC4/CapSense.c **** *  Stops the sensor scanning, disables component interrupts, and resets all the 
 471:.\Generated_Source\PSoC4/CapSense.c **** *  sensors to an inactive state. Disables the Active mode power template bits for
 472:.\Generated_Source\PSoC4/CapSense.c **** *  the subcomponents used within CapSense.
 473:.\Generated_Source\PSoC4/CapSense.c **** *
 474:.\Generated_Source\PSoC4/CapSense.c **** * Parameters:
 475:.\Generated_Source\PSoC4/CapSense.c **** *  None
 476:.\Generated_Source\PSoC4/CapSense.c **** *
 477:.\Generated_Source\PSoC4/CapSense.c **** * Return:
 478:.\Generated_Source\PSoC4/CapSense.c **** *  None
 479:.\Generated_Source\PSoC4/CapSense.c **** *
 480:.\Generated_Source\PSoC4/CapSense.c **** * Global Variables:
 481:.\Generated_Source\PSoC4/CapSense.c **** *  CapSense_csdTrim1 - Contains the IDAC trim register value for the Sourcing Mode.
 482:.\Generated_Source\PSoC4/CapSense.c **** *  CapSense_csdTrim2 - Contains the IDAC trim register value for vSinking Mode.
 483:.\Generated_Source\PSoC4/CapSense.c **** *
 484:.\Generated_Source\PSoC4/CapSense.c **** * Side Effects:
 485:.\Generated_Source\PSoC4/CapSense.c **** *  This function should be called after scans are completed.
 486:.\Generated_Source\PSoC4/CapSense.c **** *
 487:.\Generated_Source\PSoC4/CapSense.c **** *******************************************************************************/
 488:.\Generated_Source\PSoC4/CapSense.c **** void CapSense_Stop(void)
 489:.\Generated_Source\PSoC4/CapSense.c **** {
ARM GAS  C:\Users\merlin\AppData\Local\Temp\ccZOZwzR.s 			page 13


 196              		.loc 1 489 0
 197              		.cfi_startproc
 198 0000 08B5     		push	{r3, lr}
 199              		.cfi_def_cfa_offset 8
 200              		.cfi_offset 3, -8
 201              		.cfi_offset 14, -4
 490:.\Generated_Source\PSoC4/CapSense.c ****     /* Disable interrupt */
 491:.\Generated_Source\PSoC4/CapSense.c ****     CyIntDisable(CapSense_ISR_NUMBER);
 202              		.loc 1 491 0
 203 0002 1120     		mov	r0, #17
 204 0004 FFF7FEFF 		bl	CyIntDisable
 205              	.LVL24:
 492:.\Generated_Source\PSoC4/CapSense.c **** 	
 493:.\Generated_Source\PSoC4/CapSense.c **** 	CapSense_CSD_CFG_REG &= ~(CapSense_CSD_CFG_SENSE_COMP_EN | CapSense_CSD_CFG_SENSE_EN);
 206              		.loc 1 493 0
 207 0008 064A     		ldr	r2, .L8
 208 000a 1168     		ldr	r1, [r2]
 209 000c 064B     		ldr	r3, .L8+4
 210 000e 0B40     		and	r3, r1
 211 0010 1360     		str	r3, [r2]
 494:.\Generated_Source\PSoC4/CapSense.c **** 	
 495:.\Generated_Source\PSoC4/CapSense.c **** 	#if(CapSense_IDAC_CNT == 2u)
 496:.\Generated_Source\PSoC4/CapSense.c **** 		CapSense_CSD_CFG_REG &= ~(CapSense_CSD_CFG_ENABLE);
 212              		.loc 1 496 0
 213 0012 1368     		ldr	r3, [r2]
 214 0014 5B00     		lsl	r3, r3, #1
 215 0016 5B08     		lsr	r3, r3, #1
 216 0018 1360     		str	r3, [r2]
 497:.\Generated_Source\PSoC4/CapSense.c **** 	#endif /* (CapSense_IDAC_CNT == 2u) */
 498:.\Generated_Source\PSoC4/CapSense.c **** 
 499:.\Generated_Source\PSoC4/CapSense.c ****     /* Disable the Clocks */
 500:.\Generated_Source\PSoC4/CapSense.c ****     CapSense_SenseClk_Stop();
 217              		.loc 1 500 0
 218 001a FFF7FEFF 		bl	CapSense_SenseClk_Stop
 219              	.LVL25:
 501:.\Generated_Source\PSoC4/CapSense.c ****     CapSense_SampleClk_Stop();
 220              		.loc 1 501 0
 221 001e FFF7FEFF 		bl	CapSense_SampleClk_Stop
 222              	.LVL26:
 502:.\Generated_Source\PSoC4/CapSense.c **** }
 223              		.loc 1 502 0
 224              		@ sp needed
 225 0022 08BD     		pop	{r3, pc}
 226              	.L9:
 227              		.align	2
 228              	.L8:
 229 0024 04002840 		.word	1076363268
 230 0028 FFEFF7FF 		.word	-528385
 231              		.cfi_endproc
 232              	.LFE38:
 233              		.size	CapSense_Stop, .-CapSense_Stop
 234              		.section	.text.CapSense_IsBusy,"ax",%progbits
 235              		.align	2
 236              		.global	CapSense_IsBusy
 237              		.code	16
 238              		.thumb_func
 239              		.type	CapSense_IsBusy, %function
ARM GAS  C:\Users\merlin\AppData\Local\Temp\ccZOZwzR.s 			page 14


 240              	CapSense_IsBusy:
 241              	.LFB43:
 503:.\Generated_Source\PSoC4/CapSense.c **** 
 504:.\Generated_Source\PSoC4/CapSense.c **** 
 505:.\Generated_Source\PSoC4/CapSense.c **** /*******************************************************************************
 506:.\Generated_Source\PSoC4/CapSense.c **** * Function Name: CapSense_FindNextSensor
 507:.\Generated_Source\PSoC4/CapSense.c **** ********************************************************************************
 508:.\Generated_Source\PSoC4/CapSense.c **** *
 509:.\Generated_Source\PSoC4/CapSense.c **** * Summary:
 510:.\Generated_Source\PSoC4/CapSense.c **** *  Finds the next sensor to scan. 
 511:.\Generated_Source\PSoC4/CapSense.c **** *
 512:.\Generated_Source\PSoC4/CapSense.c **** * Parameters:
 513:.\Generated_Source\PSoC4/CapSense.c **** *  snsIndex:  Current index of sensor.
 514:.\Generated_Source\PSoC4/CapSense.c **** *
 515:.\Generated_Source\PSoC4/CapSense.c **** * Return:
 516:.\Generated_Source\PSoC4/CapSense.c **** *  Returns the next sensor index to scan.
 517:.\Generated_Source\PSoC4/CapSense.c **** *
 518:.\Generated_Source\PSoC4/CapSense.c **** * Global Variables:
 519:.\Generated_Source\PSoC4/CapSense.c **** *  CapSense_sensorEnableMask[] - used to store bit masks of the enabled sensors.
 520:.\Generated_Source\PSoC4/CapSense.c **** *
 521:.\Generated_Source\PSoC4/CapSense.c **** * Side Effects:
 522:.\Generated_Source\PSoC4/CapSense.c **** *  This function affects the  current scanning and should not
 523:.\Generated_Source\PSoC4/CapSense.c **** *  be used outside the component.
 524:.\Generated_Source\PSoC4/CapSense.c **** *
 525:.\Generated_Source\PSoC4/CapSense.c **** *******************************************************************************/
 526:.\Generated_Source\PSoC4/CapSense.c **** uint8 CapSense_FindNextSensor(uint8 snsIndex)
 527:.\Generated_Source\PSoC4/CapSense.c **** {
 528:.\Generated_Source\PSoC4/CapSense.c ****     uint32 enableFlag;
 529:.\Generated_Source\PSoC4/CapSense.c ****     
 530:.\Generated_Source\PSoC4/CapSense.c ****     /* Check if sensor enabled */
 531:.\Generated_Source\PSoC4/CapSense.c ****     do
 532:.\Generated_Source\PSoC4/CapSense.c ****     {
 533:.\Generated_Source\PSoC4/CapSense.c ****         /* Proceed with next sensor */
 534:.\Generated_Source\PSoC4/CapSense.c ****         snsIndex++;
 535:.\Generated_Source\PSoC4/CapSense.c ****         if(snsIndex == CapSense_TOTAL_SENSOR_COUNT)
 536:.\Generated_Source\PSoC4/CapSense.c ****         {
 537:.\Generated_Source\PSoC4/CapSense.c ****             break;
 538:.\Generated_Source\PSoC4/CapSense.c ****         }
 539:.\Generated_Source\PSoC4/CapSense.c ****         enableFlag = CapSense_GetBitValue(CapSense_sensorEnableMask, (uint32)snsIndex);
 540:.\Generated_Source\PSoC4/CapSense.c ****     }    
 541:.\Generated_Source\PSoC4/CapSense.c ****     while(enableFlag == 0u);
 542:.\Generated_Source\PSoC4/CapSense.c ****     
 543:.\Generated_Source\PSoC4/CapSense.c ****     return ((uint8)snsIndex);
 544:.\Generated_Source\PSoC4/CapSense.c **** }
 545:.\Generated_Source\PSoC4/CapSense.c **** 
 546:.\Generated_Source\PSoC4/CapSense.c **** 
 547:.\Generated_Source\PSoC4/CapSense.c **** /*******************************************************************************
 548:.\Generated_Source\PSoC4/CapSense.c **** * Function Name: CapSense_ScanSensor
 549:.\Generated_Source\PSoC4/CapSense.c **** ********************************************************************************
 550:.\Generated_Source\PSoC4/CapSense.c **** *
 551:.\Generated_Source\PSoC4/CapSense.c **** * Summary:
 552:.\Generated_Source\PSoC4/CapSense.c **** *  Sets the scan settings and starts scanning a sensor. After scanning is complete,
 553:.\Generated_Source\PSoC4/CapSense.c **** *  the ISR copies the measured sensor raw data to the global raw sensor array. 
 554:.\Generated_Source\PSoC4/CapSense.c **** *  Use of the ISR ensures this function is non-blocking. 
 555:.\Generated_Source\PSoC4/CapSense.c **** *  Each sensor has a unique number within the sensor array. 
 556:.\Generated_Source\PSoC4/CapSense.c **** *  This number is assigned by the CapSense customizer in sequence.
 557:.\Generated_Source\PSoC4/CapSense.c **** *
ARM GAS  C:\Users\merlin\AppData\Local\Temp\ccZOZwzR.s 			page 15


 558:.\Generated_Source\PSoC4/CapSense.c **** * Parameters:
 559:.\Generated_Source\PSoC4/CapSense.c **** *  sensor:  Sensor number.
 560:.\Generated_Source\PSoC4/CapSense.c **** *
 561:.\Generated_Source\PSoC4/CapSense.c **** * Return:
 562:.\Generated_Source\PSoC4/CapSense.c **** *  None
 563:.\Generated_Source\PSoC4/CapSense.c **** *
 564:.\Generated_Source\PSoC4/CapSense.c **** * Global Variables:
 565:.\Generated_Source\PSoC4/CapSense.c **** *  CapSense_csdStatusVar - used to provide the status and mode of the scanning process. 
 566:.\Generated_Source\PSoC4/CapSense.c **** *  Sets the busy status(scan in progress) and mode of scan as single scan.
 567:.\Generated_Source\PSoC4/CapSense.c **** *  CapSense_sensorIndex - used to store a sensor scanning sensor number.
 568:.\Generated_Source\PSoC4/CapSense.c **** *  Sets to the provided sensor argument.
 569:.\Generated_Source\PSoC4/CapSense.c **** *
 570:.\Generated_Source\PSoC4/CapSense.c **** * Side Effects:
 571:.\Generated_Source\PSoC4/CapSense.c **** *  None
 572:.\Generated_Source\PSoC4/CapSense.c **** * 
 573:.\Generated_Source\PSoC4/CapSense.c **** *******************************************************************************/
 574:.\Generated_Source\PSoC4/CapSense.c **** void CapSense_ScanSensor(uint32 sensor)
 575:.\Generated_Source\PSoC4/CapSense.c **** {
 576:.\Generated_Source\PSoC4/CapSense.c ****     /* Clears status/control variable and set sensorIndex */
 577:.\Generated_Source\PSoC4/CapSense.c ****     CapSense_csdStatusVar = 0u;
 578:.\Generated_Source\PSoC4/CapSense.c ****     CapSense_sensorIndex = (uint8)sensor;
 579:.\Generated_Source\PSoC4/CapSense.c ****     
 580:.\Generated_Source\PSoC4/CapSense.c ****     /* Start of sensor scan */
 581:.\Generated_Source\PSoC4/CapSense.c ****     CapSense_csdStatusVar = (CapSense_SW_STS_BUSY | CapSense_SW_CTRL_SINGLE_SCAN);
 582:.\Generated_Source\PSoC4/CapSense.c ****     CapSense_PreScan(sensor);
 583:.\Generated_Source\PSoC4/CapSense.c **** }
 584:.\Generated_Source\PSoC4/CapSense.c **** 
 585:.\Generated_Source\PSoC4/CapSense.c **** 
 586:.\Generated_Source\PSoC4/CapSense.c **** #if(0u != CapSense_CSHL_API_GENERATE)
 587:.\Generated_Source\PSoC4/CapSense.c **** /*******************************************************************************
 588:.\Generated_Source\PSoC4/CapSense.c **** * Function Name: CapSense_ScanWidget
 589:.\Generated_Source\PSoC4/CapSense.c **** ********************************************************************************
 590:.\Generated_Source\PSoC4/CapSense.c **** *
 591:.\Generated_Source\PSoC4/CapSense.c **** * Summary:
 592:.\Generated_Source\PSoC4/CapSense.c **** *  Sets the scan settings and starts scanning a widget.
 593:.\Generated_Source\PSoC4/CapSense.c **** *
 594:.\Generated_Source\PSoC4/CapSense.c **** * Parameters:
 595:.\Generated_Source\PSoC4/CapSense.c **** *  uint32 widget: Widget number.
 596:.\Generated_Source\PSoC4/CapSense.c **** *
 597:.\Generated_Source\PSoC4/CapSense.c **** * Return:
 598:.\Generated_Source\PSoC4/CapSense.c **** *  None
 599:.\Generated_Source\PSoC4/CapSense.c **** *
 600:.\Generated_Source\PSoC4/CapSense.c **** * Global Variables:
 601:.\Generated_Source\PSoC4/CapSense.c **** *  CapSense_csdStatusVar - used to provide the status and mode of the scanning process. 
 602:.\Generated_Source\PSoC4/CapSense.c **** *  Sets the busy status(scan in progress) and clears the single scan mode.
 603:.\Generated_Source\PSoC4/CapSense.c **** *  CapSense_sensorIndex - used to store a sensor scanning sensor number.
 604:.\Generated_Source\PSoC4/CapSense.c **** *  Sets to 0xFF and provided to function CapSense_FindNextSensor or
 605:.\Generated_Source\PSoC4/CapSense.c **** *  CapSense_sensorEnableMask[] - used to store bit masks of the enabled sensors.
 606:.\Generated_Source\PSoC4/CapSense.c **** *  CapSense_sensorEnableMaskBackup[] - used to backup bit masks of the enabled
 607:.\Generated_Source\PSoC4/CapSense.c **** *   sensors.
 608:.\Generated_Source\PSoC4/CapSense.c **** *
 609:.\Generated_Source\PSoC4/CapSense.c **** * Side Effects:
 610:.\Generated_Source\PSoC4/CapSense.c **** *  None
 611:.\Generated_Source\PSoC4/CapSense.c **** * 
 612:.\Generated_Source\PSoC4/CapSense.c **** *******************************************************************************/
 613:.\Generated_Source\PSoC4/CapSense.c **** void CapSense_ScanWidget(uint32 widget)
 614:.\Generated_Source\PSoC4/CapSense.c **** {
ARM GAS  C:\Users\merlin\AppData\Local\Temp\ccZOZwzR.s 			page 16


 615:.\Generated_Source\PSoC4/CapSense.c ****     uint32 sensorsPerWidget;
 616:.\Generated_Source\PSoC4/CapSense.c ****     uint32 lastSensor;
 617:.\Generated_Source\PSoC4/CapSense.c ****     uint32 snsIndex;
 618:.\Generated_Source\PSoC4/CapSense.c **** 
 619:.\Generated_Source\PSoC4/CapSense.c **** 	/* Get first sensor in widget */
 620:.\Generated_Source\PSoC4/CapSense.c **** 	CapSense_sensorIndex = CapSense_rawDataIndex[widget];
 621:.\Generated_Source\PSoC4/CapSense.c **** 	
 622:.\Generated_Source\PSoC4/CapSense.c **** 	/* Get number of sensors in widget */
 623:.\Generated_Source\PSoC4/CapSense.c **** 	sensorsPerWidget = CapSense_numberOfSensors[widget];
 624:.\Generated_Source\PSoC4/CapSense.c **** 	
 625:.\Generated_Source\PSoC4/CapSense.c **** 	/* Check if generic Sensor */
 626:.\Generated_Source\PSoC4/CapSense.c **** 	if(sensorsPerWidget == 0u)
 627:.\Generated_Source\PSoC4/CapSense.c **** 	{
 628:.\Generated_Source\PSoC4/CapSense.c **** 		sensorsPerWidget = 1u;
 629:.\Generated_Source\PSoC4/CapSense.c **** 	}
 630:.\Generated_Source\PSoC4/CapSense.c **** 	
 631:.\Generated_Source\PSoC4/CapSense.c **** 	/* Get last sensor in widget */
 632:.\Generated_Source\PSoC4/CapSense.c **** 	lastSensor = (CapSense_rawDataIndex[widget] + sensorsPerWidget) - 1u;
 633:.\Generated_Source\PSoC4/CapSense.c **** 
 634:.\Generated_Source\PSoC4/CapSense.c **** 	/* Backup sensorEnableMask array */
 635:.\Generated_Source\PSoC4/CapSense.c **** 	for(snsIndex = 0u; snsIndex < CapSense_TOTAL_SENSOR_MASK; snsIndex++)
 636:.\Generated_Source\PSoC4/CapSense.c **** 	{
 637:.\Generated_Source\PSoC4/CapSense.c **** 		/* Backup sensorEnableMask array */
 638:.\Generated_Source\PSoC4/CapSense.c **** 		CapSense_sensorEnableMaskBackup[snsIndex] = CapSense_sensorEnableMask[snsIndex];
 639:.\Generated_Source\PSoC4/CapSense.c **** 	}
 640:.\Generated_Source\PSoC4/CapSense.c **** 
 641:.\Generated_Source\PSoC4/CapSense.c **** 	/* Update sensorEnableMask to scan the sensors that belong to widget */
 642:.\Generated_Source\PSoC4/CapSense.c **** 	for(snsIndex = 0u; snsIndex < CapSense_TOTAL_SENSOR_COUNT; snsIndex++)
 643:.\Generated_Source\PSoC4/CapSense.c **** 	{
 644:.\Generated_Source\PSoC4/CapSense.c **** 		/* Update sensorEnableMask array bits to scan the widget only */ 
 645:.\Generated_Source\PSoC4/CapSense.c **** 	    if((snsIndex >= CapSense_sensorIndex) && (snsIndex <= lastSensor))
 646:.\Generated_Source\PSoC4/CapSense.c **** 		{
 647:.\Generated_Source\PSoC4/CapSense.c **** 		    /* Set sensor bit to scan */
 648:.\Generated_Source\PSoC4/CapSense.c **** 			CapSense_SetBitValue(CapSense_sensorEnableMask, snsIndex, 1u);
 649:.\Generated_Source\PSoC4/CapSense.c **** 		}
 650:.\Generated_Source\PSoC4/CapSense.c **** 		else
 651:.\Generated_Source\PSoC4/CapSense.c **** 		{
 652:.\Generated_Source\PSoC4/CapSense.c **** 		    /* Reset sensor bit to do not scan */
 653:.\Generated_Source\PSoC4/CapSense.c **** 		    CapSense_SetBitValue(CapSense_sensorEnableMask, snsIndex, 0u);
 654:.\Generated_Source\PSoC4/CapSense.c **** 		}
 655:.\Generated_Source\PSoC4/CapSense.c **** 	}
 656:.\Generated_Source\PSoC4/CapSense.c **** 
 657:.\Generated_Source\PSoC4/CapSense.c ****     /* Check end of scan condition */
 658:.\Generated_Source\PSoC4/CapSense.c ****     if(CapSense_sensorIndex < CapSense_TOTAL_SENSOR_COUNT)
 659:.\Generated_Source\PSoC4/CapSense.c ****     {
 660:.\Generated_Source\PSoC4/CapSense.c **** 		/* Set widget busy bit in status/control variable*/ 
 661:.\Generated_Source\PSoC4/CapSense.c **** 		CapSense_csdStatusVar = (CapSense_SW_STS_BUSY | CapSense_SW_CTRL_WIDGET_SCAN);
 662:.\Generated_Source\PSoC4/CapSense.c **** 		/* Scan first sensor of widget*/ 
 663:.\Generated_Source\PSoC4/CapSense.c ****         CapSense_PreScan((uint32)CapSense_sensorIndex);
 664:.\Generated_Source\PSoC4/CapSense.c ****     }
 665:.\Generated_Source\PSoC4/CapSense.c **** }
 666:.\Generated_Source\PSoC4/CapSense.c **** #endif /* (0u != CapSense_CSHL_API_GENERATE) */
 667:.\Generated_Source\PSoC4/CapSense.c **** 
 668:.\Generated_Source\PSoC4/CapSense.c **** 
 669:.\Generated_Source\PSoC4/CapSense.c **** /*******************************************************************************
 670:.\Generated_Source\PSoC4/CapSense.c **** * Function Name: CapSense_ScanEnableWidgets
 671:.\Generated_Source\PSoC4/CapSense.c **** ********************************************************************************
ARM GAS  C:\Users\merlin\AppData\Local\Temp\ccZOZwzR.s 			page 17


 672:.\Generated_Source\PSoC4/CapSense.c **** *
 673:.\Generated_Source\PSoC4/CapSense.c **** * Summary:
 674:.\Generated_Source\PSoC4/CapSense.c **** *  This is the preferred method to scan all of the enabled widgets. 
 675:.\Generated_Source\PSoC4/CapSense.c **** *  The API starts scanning a sensor within the enabled widgets. 
 676:.\Generated_Source\PSoC4/CapSense.c **** *  The ISR continues scanning the sensors until all the enabled widgets are scanned. 
 677:.\Generated_Source\PSoC4/CapSense.c **** *  Use of the ISR ensures this function is non-blocking.
 678:.\Generated_Source\PSoC4/CapSense.c **** *  All the widgets are enabled by default except proximity widgets. 
 679:.\Generated_Source\PSoC4/CapSense.c **** *  The proximity widgets must be manually enabled as their long scan time 
 680:.\Generated_Source\PSoC4/CapSense.c **** *  is incompatible with a fast response required of other widget types.
 681:.\Generated_Source\PSoC4/CapSense.c **** *
 682:.\Generated_Source\PSoC4/CapSense.c **** * Parameters:
 683:.\Generated_Source\PSoC4/CapSense.c **** *  None
 684:.\Generated_Source\PSoC4/CapSense.c **** *
 685:.\Generated_Source\PSoC4/CapSense.c **** * Return:
 686:.\Generated_Source\PSoC4/CapSense.c **** *  None
 687:.\Generated_Source\PSoC4/CapSense.c **** *
 688:.\Generated_Source\PSoC4/CapSense.c **** * Global Variables:
 689:.\Generated_Source\PSoC4/CapSense.c **** *  CapSense_csdStatusVar - used to provide the status and mode of the scanning process. 
 690:.\Generated_Source\PSoC4/CapSense.c **** *  Sets the busy status(scan in progress) and clears the single scan mode.
 691:.\Generated_Source\PSoC4/CapSense.c **** *  CapSense_sensorIndex - used to store a sensor scanning sensor number.
 692:.\Generated_Source\PSoC4/CapSense.c **** *  Sets to 0xFF and provided to function CapSense_FindNextSensor or
 693:.\Generated_Source\PSoC4/CapSense.c **** *
 694:.\Generated_Source\PSoC4/CapSense.c **** * Side Effects:
 695:.\Generated_Source\PSoC4/CapSense.c **** *  None
 696:.\Generated_Source\PSoC4/CapSense.c **** * 
 697:.\Generated_Source\PSoC4/CapSense.c **** *******************************************************************************/
 698:.\Generated_Source\PSoC4/CapSense.c **** void CapSense_ScanEnabledWidgets(void)
 699:.\Generated_Source\PSoC4/CapSense.c **** {
 700:.\Generated_Source\PSoC4/CapSense.c ****     /* Clears status/control variable and set sensorIndex */
 701:.\Generated_Source\PSoC4/CapSense.c ****     CapSense_csdStatusVar = 0u;
 702:.\Generated_Source\PSoC4/CapSense.c ****     CapSense_sensorIndex = 0xFFu;
 703:.\Generated_Source\PSoC4/CapSense.c ****     
 704:.\Generated_Source\PSoC4/CapSense.c ****     /* Find next sensor */
 705:.\Generated_Source\PSoC4/CapSense.c ****     CapSense_sensorIndex = (uint8)CapSense_FindNextSensor(CapSense_sensorIndex);
 706:.\Generated_Source\PSoC4/CapSense.c **** 
 707:.\Generated_Source\PSoC4/CapSense.c ****     /* Check end of scan condition */
 708:.\Generated_Source\PSoC4/CapSense.c ****     if(CapSense_sensorIndex < CapSense_TOTAL_SENSOR_COUNT)
 709:.\Generated_Source\PSoC4/CapSense.c ****     {
 710:.\Generated_Source\PSoC4/CapSense.c ****         CapSense_csdStatusVar |= CapSense_SW_STS_BUSY;
 711:.\Generated_Source\PSoC4/CapSense.c ****         CapSense_PreScan((uint32)CapSense_sensorIndex);
 712:.\Generated_Source\PSoC4/CapSense.c ****     }
 713:.\Generated_Source\PSoC4/CapSense.c **** }
 714:.\Generated_Source\PSoC4/CapSense.c **** 
 715:.\Generated_Source\PSoC4/CapSense.c **** 
 716:.\Generated_Source\PSoC4/CapSense.c **** /*******************************************************************************
 717:.\Generated_Source\PSoC4/CapSense.c **** * Function Name: CapSense_IsBusy
 718:.\Generated_Source\PSoC4/CapSense.c **** ********************************************************************************
 719:.\Generated_Source\PSoC4/CapSense.c **** *
 720:.\Generated_Source\PSoC4/CapSense.c **** * Summary:
 721:.\Generated_Source\PSoC4/CapSense.c **** *  Returns the state of the CapSense component. 1 means that scanning in 
 722:.\Generated_Source\PSoC4/CapSense.c **** *  progress and 0 means that scanning is complete.
 723:.\Generated_Source\PSoC4/CapSense.c **** *
 724:.\Generated_Source\PSoC4/CapSense.c **** * Parameters:
 725:.\Generated_Source\PSoC4/CapSense.c **** *  None
 726:.\Generated_Source\PSoC4/CapSense.c **** *
 727:.\Generated_Source\PSoC4/CapSense.c **** * Return:
 728:.\Generated_Source\PSoC4/CapSense.c **** *  Returns the state of scanning. 1 - scanning in progress, 0 - scanning 
ARM GAS  C:\Users\merlin\AppData\Local\Temp\ccZOZwzR.s 			page 18


 729:.\Generated_Source\PSoC4/CapSense.c **** *  completed.
 730:.\Generated_Source\PSoC4/CapSense.c **** *
 731:.\Generated_Source\PSoC4/CapSense.c **** * Global Variables:
 732:.\Generated_Source\PSoC4/CapSense.c **** *  CapSense_csdStatusVar - used to provide the status and mode of the scanning process. 
 733:.\Generated_Source\PSoC4/CapSense.c **** *  Checks the busy status.
 734:.\Generated_Source\PSoC4/CapSense.c **** *
 735:.\Generated_Source\PSoC4/CapSense.c **** * Side Effects:
 736:.\Generated_Source\PSoC4/CapSense.c **** *  None
 737:.\Generated_Source\PSoC4/CapSense.c **** * 
 738:.\Generated_Source\PSoC4/CapSense.c **** *******************************************************************************/
 739:.\Generated_Source\PSoC4/CapSense.c **** uint32 CapSense_IsBusy(void)
 740:.\Generated_Source\PSoC4/CapSense.c **** {
 242              		.loc 1 740 0
 243              		.cfi_startproc
 741:.\Generated_Source\PSoC4/CapSense.c ****     return ((uint32)((0u != (CapSense_csdStatusVar & CapSense_SW_STS_BUSY)) ? 1u : 0u));
 244              		.loc 1 741 0
 245 0000 024B     		ldr	r3, .L11
 246 0002 1878     		ldrb	r0, [r3]
 247 0004 0123     		mov	r3, #1
 248 0006 1840     		and	r0, r3
 742:.\Generated_Source\PSoC4/CapSense.c **** }
 249              		.loc 1 742 0
 250              		@ sp needed
 251 0008 7047     		bx	lr
 252              	.L12:
 253 000a C046     		.align	2
 254              	.L11:
 255 000c 00000000 		.word	.LANCHOR0
 256              		.cfi_endproc
 257              	.LFE43:
 258              		.size	CapSense_IsBusy, .-CapSense_IsBusy
 259              		.section	.text.CapSense_ReadSensorRaw,"ax",%progbits
 260              		.align	2
 261              		.global	CapSense_ReadSensorRaw
 262              		.code	16
 263              		.thumb_func
 264              		.type	CapSense_ReadSensorRaw, %function
 265              	CapSense_ReadSensorRaw:
 266              	.LFB44:
 743:.\Generated_Source\PSoC4/CapSense.c **** 
 744:.\Generated_Source\PSoC4/CapSense.c **** 
 745:.\Generated_Source\PSoC4/CapSense.c **** /*******************************************************************************
 746:.\Generated_Source\PSoC4/CapSense.c **** * Function Name: CapSense_ReadSensorRaw
 747:.\Generated_Source\PSoC4/CapSense.c **** ********************************************************************************
 748:.\Generated_Source\PSoC4/CapSense.c **** *
 749:.\Generated_Source\PSoC4/CapSense.c **** * Summary:
 750:.\Generated_Source\PSoC4/CapSense.c **** *  Returns sensor raw data from the global CapSense_sensorRaw[ ] array. 
 751:.\Generated_Source\PSoC4/CapSense.c **** *  Each scan sensor has a unique number within the sensor array. 
 752:.\Generated_Source\PSoC4/CapSense.c **** *  This number is assigned by the CapSense customizer in sequence. 
 753:.\Generated_Source\PSoC4/CapSense.c **** *  Raw data can be used to perform calculations outside of the CapSense 
 754:.\Generated_Source\PSoC4/CapSense.c **** *  provided framework.
 755:.\Generated_Source\PSoC4/CapSense.c **** *
 756:.\Generated_Source\PSoC4/CapSense.c **** * Parameters:
 757:.\Generated_Source\PSoC4/CapSense.c **** *  sensor:  Sensor number.
 758:.\Generated_Source\PSoC4/CapSense.c **** *
 759:.\Generated_Source\PSoC4/CapSense.c **** * Return:
 760:.\Generated_Source\PSoC4/CapSense.c **** *  Returns the current raw data value for a defined sensor number.
ARM GAS  C:\Users\merlin\AppData\Local\Temp\ccZOZwzR.s 			page 19


 761:.\Generated_Source\PSoC4/CapSense.c **** *
 762:.\Generated_Source\PSoC4/CapSense.c **** * Global Variables:
 763:.\Generated_Source\PSoC4/CapSense.c **** *  CapSense_sensorRaw[] - used to store sensors raw data.
 764:.\Generated_Source\PSoC4/CapSense.c **** *
 765:.\Generated_Source\PSoC4/CapSense.c **** * Side Effects: 
 766:.\Generated_Source\PSoC4/CapSense.c **** *  None
 767:.\Generated_Source\PSoC4/CapSense.c **** *
 768:.\Generated_Source\PSoC4/CapSense.c **** *******************************************************************************/
 769:.\Generated_Source\PSoC4/CapSense.c **** uint16 CapSense_ReadSensorRaw(uint32 sensor)
 770:.\Generated_Source\PSoC4/CapSense.c **** {
 267              		.loc 1 770 0
 268              		.cfi_startproc
 269              	.LVL27:
 771:.\Generated_Source\PSoC4/CapSense.c ****     return CapSense_sensorRaw[sensor];
 270              		.loc 1 771 0
 271 0000 4000     		lsl	r0, r0, #1
 272              	.LVL28:
 273 0002 024B     		ldr	r3, .L14
 274 0004 1818     		add	r0, r3, r0
 275 0006 8088     		ldrh	r0, [r0, #4]
 772:.\Generated_Source\PSoC4/CapSense.c **** }
 276              		.loc 1 772 0
 277              		@ sp needed
 278 0008 7047     		bx	lr
 279              	.L15:
 280 000a C046     		.align	2
 281              	.L14:
 282 000c 00000000 		.word	.LANCHOR0
 283              		.cfi_endproc
 284              	.LFE44:
 285              		.size	CapSense_ReadSensorRaw, .-CapSense_ReadSensorRaw
 286              		.section	.text.CapSense_WriteSensorRaw,"ax",%progbits
 287              		.align	2
 288              		.global	CapSense_WriteSensorRaw
 289              		.code	16
 290              		.thumb_func
 291              		.type	CapSense_WriteSensorRaw, %function
 292              	CapSense_WriteSensorRaw:
 293              	.LFB45:
 773:.\Generated_Source\PSoC4/CapSense.c **** 
 774:.\Generated_Source\PSoC4/CapSense.c **** 
 775:.\Generated_Source\PSoC4/CapSense.c **** /*******************************************************************************
 776:.\Generated_Source\PSoC4/CapSense.c **** * Function Name: CapSense_WriteSensorRaw
 777:.\Generated_Source\PSoC4/CapSense.c **** ********************************************************************************
 778:.\Generated_Source\PSoC4/CapSense.c **** *
 779:.\Generated_Source\PSoC4/CapSense.c **** * Summary:
 780:.\Generated_Source\PSoC4/CapSense.c **** *  This API writes the raw count value passed as an argument to the sensor Raw count array.
 781:.\Generated_Source\PSoC4/CapSense.c **** *
 782:.\Generated_Source\PSoC4/CapSense.c **** * Parameters:
 783:.\Generated_Source\PSoC4/CapSense.c **** *  sensor:  Sensor number.
 784:.\Generated_Source\PSoC4/CapSense.c **** *  value: Raw count value.
 785:.\Generated_Source\PSoC4/CapSense.c **** *
 786:.\Generated_Source\PSoC4/CapSense.c **** * Global Variables:
 787:.\Generated_Source\PSoC4/CapSense.c **** *  CapSense_sensorRaw[] - used to store sensors raw data.
 788:.\Generated_Source\PSoC4/CapSense.c **** *
 789:.\Generated_Source\PSoC4/CapSense.c **** * Return:
 790:.\Generated_Source\PSoC4/CapSense.c **** *  None
ARM GAS  C:\Users\merlin\AppData\Local\Temp\ccZOZwzR.s 			page 20


 791:.\Generated_Source\PSoC4/CapSense.c **** *
 792:.\Generated_Source\PSoC4/CapSense.c **** * Side Effects: 
 793:.\Generated_Source\PSoC4/CapSense.c **** *  None
 794:.\Generated_Source\PSoC4/CapSense.c **** *
 795:.\Generated_Source\PSoC4/CapSense.c **** *******************************************************************************/
 796:.\Generated_Source\PSoC4/CapSense.c **** void CapSense_WriteSensorRaw(uint32 sensor, uint16 value)
 797:.\Generated_Source\PSoC4/CapSense.c **** {
 294              		.loc 1 797 0
 295              		.cfi_startproc
 296              	.LVL29:
 798:.\Generated_Source\PSoC4/CapSense.c **** 	CapSense_sensorRaw[sensor] = value;
 297              		.loc 1 798 0
 298 0000 4000     		lsl	r0, r0, #1
 299              	.LVL30:
 300 0002 024B     		ldr	r3, .L17
 301 0004 1818     		add	r0, r3, r0
 302 0006 8180     		strh	r1, [r0, #4]
 799:.\Generated_Source\PSoC4/CapSense.c **** }
 303              		.loc 1 799 0
 304              		@ sp needed
 305 0008 7047     		bx	lr
 306              	.L18:
 307 000a C046     		.align	2
 308              	.L17:
 309 000c 00000000 		.word	.LANCHOR0
 310              		.cfi_endproc
 311              	.LFE45:
 312              		.size	CapSense_WriteSensorRaw, .-CapSense_WriteSensorRaw
 313              		.section	.text.CapSense_SetScanResolution,"ax",%progbits
 314              		.align	2
 315              		.global	CapSense_SetScanResolution
 316              		.code	16
 317              		.thumb_func
 318              		.type	CapSense_SetScanResolution, %function
 319              	CapSense_SetScanResolution:
 320              	.LFB46:
 800:.\Generated_Source\PSoC4/CapSense.c **** 
 801:.\Generated_Source\PSoC4/CapSense.c **** 
 802:.\Generated_Source\PSoC4/CapSense.c **** #if (CapSense_TUNING_METHOD != CapSense__TUNING_NONE)
 803:.\Generated_Source\PSoC4/CapSense.c **** 	/*******************************************************************************
 804:.\Generated_Source\PSoC4/CapSense.c **** 	* Function Name: CapSense_SetScanResolution
 805:.\Generated_Source\PSoC4/CapSense.c **** 	********************************************************************************
 806:.\Generated_Source\PSoC4/CapSense.c **** 	*
 807:.\Generated_Source\PSoC4/CapSense.c **** 	* Summary:
 808:.\Generated_Source\PSoC4/CapSense.c **** 	*  Sets a value of the sensor scan resolution for a widget. 
 809:.\Generated_Source\PSoC4/CapSense.c **** 	*  The MIN resolution can be set 8-bit. The MAX Resolution can be set 16 bit.
 810:.\Generated_Source\PSoC4/CapSense.c **** 	*  This function is not available for the tuning mode "None".
 811:.\Generated_Source\PSoC4/CapSense.c **** 	*
 812:.\Generated_Source\PSoC4/CapSense.c **** 	* Parameters:
 813:.\Generated_Source\PSoC4/CapSense.c **** 	*  widget:     Widget index.
 814:.\Generated_Source\PSoC4/CapSense.c **** 	*  resolution: Represents the resolution value. The following defines which are available in the
 815:.\Generated_Source\PSoC4/CapSense.c **** 	*			   CapSense.h file should be used:
 816:.\Generated_Source\PSoC4/CapSense.c **** 	*			   CapSense_RESOLUTION_6_BITS
 817:.\Generated_Source\PSoC4/CapSense.c **** 	*			   CapSense_RESOLUTION_7_BITS
 818:.\Generated_Source\PSoC4/CapSense.c **** 	*			   CapSense_RESOLUTION_8_BITS
 819:.\Generated_Source\PSoC4/CapSense.c **** 	*			   CapSense_RESOLUTION_9_BITS
 820:.\Generated_Source\PSoC4/CapSense.c **** 	*			   CapSense_RESOLUTION_10_BITS
ARM GAS  C:\Users\merlin\AppData\Local\Temp\ccZOZwzR.s 			page 21


 821:.\Generated_Source\PSoC4/CapSense.c **** 	*			   CapSense_RESOLUTION_11_BITS
 822:.\Generated_Source\PSoC4/CapSense.c **** 	*			   CapSense_RESOLUTION_12_BITS
 823:.\Generated_Source\PSoC4/CapSense.c **** 	*			   CapSense_RESOLUTION_13_BITS
 824:.\Generated_Source\PSoC4/CapSense.c **** 	*			   CapSense_RESOLUTION_14_BITS
 825:.\Generated_Source\PSoC4/CapSense.c **** 	*			   CapSense_RESOLUTION_15_BITS
 826:.\Generated_Source\PSoC4/CapSense.c **** 	*			   CapSense_RESOLUTION_16_BITS
 827:.\Generated_Source\PSoC4/CapSense.c **** 	*
 828:.\Generated_Source\PSoC4/CapSense.c **** 	* Return:
 829:.\Generated_Source\PSoC4/CapSense.c **** 	*  None
 830:.\Generated_Source\PSoC4/CapSense.c **** 	*
 831:.\Generated_Source\PSoC4/CapSense.c **** 	* Global Variables:
 832:.\Generated_Source\PSoC4/CapSense.c **** 	*  CapSense_widgetResolution[] - used to store scan resolution of each widget.
 833:.\Generated_Source\PSoC4/CapSense.c **** 	*
 834:.\Generated_Source\PSoC4/CapSense.c **** 	* Side Effects: 
 835:.\Generated_Source\PSoC4/CapSense.c **** 	*  None
 836:.\Generated_Source\PSoC4/CapSense.c **** 	*
 837:.\Generated_Source\PSoC4/CapSense.c **** 	*******************************************************************************/
 838:.\Generated_Source\PSoC4/CapSense.c **** 	void CapSense_SetScanResolution(uint32 widget, uint32 resolution)
 839:.\Generated_Source\PSoC4/CapSense.c **** 	{ 
 321              		.loc 1 839 0
 322              		.cfi_startproc
 323              	.LVL31:
 840:.\Generated_Source\PSoC4/CapSense.c ****         CapSense_widgetResolution[widget] = resolution;
 324              		.loc 1 840 0
 325 0000 8000     		lsl	r0, r0, #2
 326              	.LVL32:
 327 0002 014B     		ldr	r3, .L20
 328 0004 C150     		str	r1, [r0, r3]
 841:.\Generated_Source\PSoC4/CapSense.c **** 	}
 329              		.loc 1 841 0
 330              		@ sp needed
 331 0006 7047     		bx	lr
 332              	.L21:
 333              		.align	2
 334              	.L20:
 335 0008 00000000 		.word	.LANCHOR1
 336              		.cfi_endproc
 337              	.LFE46:
 338              		.size	CapSense_SetScanResolution, .-CapSense_SetScanResolution
 339              		.section	.text.CapSense_GetScanResolution,"ax",%progbits
 340              		.align	2
 341              		.global	CapSense_GetScanResolution
 342              		.code	16
 343              		.thumb_func
 344              		.type	CapSense_GetScanResolution, %function
 345              	CapSense_GetScanResolution:
 346              	.LFB47:
 842:.\Generated_Source\PSoC4/CapSense.c **** #endif /* (CapSense_TUNING_METHOD != CapSense__TUNING_NONE) */
 843:.\Generated_Source\PSoC4/CapSense.c **** 
 844:.\Generated_Source\PSoC4/CapSense.c **** 
 845:.\Generated_Source\PSoC4/CapSense.c **** /*******************************************************************************
 846:.\Generated_Source\PSoC4/CapSense.c **** * Function Name: CapSense_GetScanResolution
 847:.\Generated_Source\PSoC4/CapSense.c **** ********************************************************************************
 848:.\Generated_Source\PSoC4/CapSense.c **** *
 849:.\Generated_Source\PSoC4/CapSense.c **** * Summary:
 850:.\Generated_Source\PSoC4/CapSense.c **** *  Returns the resolution value for the appropriate sensor.
 851:.\Generated_Source\PSoC4/CapSense.c **** *  This function is not available for tuning mode "None".
ARM GAS  C:\Users\merlin\AppData\Local\Temp\ccZOZwzR.s 			page 22


 852:.\Generated_Source\PSoC4/CapSense.c **** *
 853:.\Generated_Source\PSoC4/CapSense.c **** * Parameters:
 854:.\Generated_Source\PSoC4/CapSense.c **** *  widget:     Widget index.
 855:.\Generated_Source\PSoC4/CapSense.c **** *
 856:.\Generated_Source\PSoC4/CapSense.c **** * Return:
 857:.\Generated_Source\PSoC4/CapSense.c **** *  resolution: Returns the resolution value for the appropriate sensor. 
 858:.\Generated_Source\PSoC4/CapSense.c **** *              The resolution values are defined in the CapSense.h file 
 859:.\Generated_Source\PSoC4/CapSense.c **** *              The defines are encountered below:
 860:.\Generated_Source\PSoC4/CapSense.c **** *			   CapSense_RESOLUTION_6_BITS
 861:.\Generated_Source\PSoC4/CapSense.c **** *			   CapSense_RESOLUTION_7_BITS
 862:.\Generated_Source\PSoC4/CapSense.c **** *			   CapSense_RESOLUTION_8_BITS
 863:.\Generated_Source\PSoC4/CapSense.c **** *			   CapSense_RESOLUTION_9_BITS
 864:.\Generated_Source\PSoC4/CapSense.c **** *			   CapSense_RESOLUTION_10_BITS
 865:.\Generated_Source\PSoC4/CapSense.c **** *			   CapSense_RESOLUTION_11_BITS
 866:.\Generated_Source\PSoC4/CapSense.c **** *			   CapSense_RESOLUTION_12_BITS
 867:.\Generated_Source\PSoC4/CapSense.c **** *			   CapSense_RESOLUTION_13_BITS
 868:.\Generated_Source\PSoC4/CapSense.c **** *			   CapSense_RESOLUTION_14_BITS
 869:.\Generated_Source\PSoC4/CapSense.c **** *			   CapSense_RESOLUTION_15_BITS
 870:.\Generated_Source\PSoC4/CapSense.c **** *			   CapSense_RESOLUTION_16_BITS
 871:.\Generated_Source\PSoC4/CapSense.c **** *
 872:.\Generated_Source\PSoC4/CapSense.c **** * Global Variables:
 873:.\Generated_Source\PSoC4/CapSense.c **** *  CapSense_widgetResolution[] - used to store scan resolution of every widget.
 874:.\Generated_Source\PSoC4/CapSense.c **** *
 875:.\Generated_Source\PSoC4/CapSense.c **** * Side Effects: 
 876:.\Generated_Source\PSoC4/CapSense.c **** *  None
 877:.\Generated_Source\PSoC4/CapSense.c **** *
 878:.\Generated_Source\PSoC4/CapSense.c **** *******************************************************************************/
 879:.\Generated_Source\PSoC4/CapSense.c **** uint32 CapSense_GetScanResolution(uint32 widget)
 880:.\Generated_Source\PSoC4/CapSense.c **** {
 347              		.loc 1 880 0
 348              		.cfi_startproc
 349              	.LVL33:
 881:.\Generated_Source\PSoC4/CapSense.c **** 	return(CapSense_widgetResolution[widget]);
 350              		.loc 1 881 0
 351 0000 8000     		lsl	r0, r0, #2
 352              	.LVL34:
 353 0002 014B     		ldr	r3, .L23
 354 0004 C058     		ldr	r0, [r0, r3]
 882:.\Generated_Source\PSoC4/CapSense.c **** }
 355              		.loc 1 882 0
 356              		@ sp needed
 357 0006 7047     		bx	lr
 358              	.L24:
 359              		.align	2
 360              	.L23:
 361 0008 00000000 		.word	.LANCHOR1
 362              		.cfi_endproc
 363              	.LFE47:
 364              		.size	CapSense_GetScanResolution, .-CapSense_GetScanResolution
 365              		.section	.text.CapSense_EnableSensor,"ax",%progbits
 366              		.align	2
 367              		.global	CapSense_EnableSensor
 368              		.code	16
 369              		.thumb_func
 370              		.type	CapSense_EnableSensor, %function
 371              	CapSense_EnableSensor:
 372              	.LFB49:
ARM GAS  C:\Users\merlin\AppData\Local\Temp\ccZOZwzR.s 			page 23


 883:.\Generated_Source\PSoC4/CapSense.c **** 
 884:.\Generated_Source\PSoC4/CapSense.c **** 
 885:.\Generated_Source\PSoC4/CapSense.c **** /*******************************************************************************
 886:.\Generated_Source\PSoC4/CapSense.c **** * Function Name: CapSense_ClearSensors
 887:.\Generated_Source\PSoC4/CapSense.c **** ********************************************************************************
 888:.\Generated_Source\PSoC4/CapSense.c **** *
 889:.\Generated_Source\PSoC4/CapSense.c **** * Summary:
 890:.\Generated_Source\PSoC4/CapSense.c **** *  Resets all the sensors to the non-sampling state by sequentially disconnecting
 891:.\Generated_Source\PSoC4/CapSense.c **** *  all the sensors from Analog MUX Bus and putting them to an inactive state.
 892:.\Generated_Source\PSoC4/CapSense.c **** *
 893:.\Generated_Source\PSoC4/CapSense.c **** * Parameters:
 894:.\Generated_Source\PSoC4/CapSense.c **** *  None
 895:.\Generated_Source\PSoC4/CapSense.c **** *
 896:.\Generated_Source\PSoC4/CapSense.c **** * Return:
 897:.\Generated_Source\PSoC4/CapSense.c **** *  None
 898:.\Generated_Source\PSoC4/CapSense.c **** *
 899:.\Generated_Source\PSoC4/CapSense.c **** * Global Variables:
 900:.\Generated_Source\PSoC4/CapSense.c **** *  None
 901:.\Generated_Source\PSoC4/CapSense.c **** *
 902:.\Generated_Source\PSoC4/CapSense.c **** * Side Effects: 
 903:.\Generated_Source\PSoC4/CapSense.c **** *  None
 904:.\Generated_Source\PSoC4/CapSense.c **** *
 905:.\Generated_Source\PSoC4/CapSense.c **** *******************************************************************************/
 906:.\Generated_Source\PSoC4/CapSense.c **** void CapSense_ClearSensors(void)
 907:.\Generated_Source\PSoC4/CapSense.c **** {
 908:.\Generated_Source\PSoC4/CapSense.c **** 	uint32 snsIndex;
 909:.\Generated_Source\PSoC4/CapSense.c **** 	
 910:.\Generated_Source\PSoC4/CapSense.c ****     for (snsIndex = 0u; snsIndex < CapSense_TOTAL_SENSOR_COUNT; snsIndex++)
 911:.\Generated_Source\PSoC4/CapSense.c ****     {
 912:.\Generated_Source\PSoC4/CapSense.c ****         CapSense_DisableScanSlot(snsIndex);
 913:.\Generated_Source\PSoC4/CapSense.c ****     }
 914:.\Generated_Source\PSoC4/CapSense.c **** }
 915:.\Generated_Source\PSoC4/CapSense.c **** 
 916:.\Generated_Source\PSoC4/CapSense.c **** 
 917:.\Generated_Source\PSoC4/CapSense.c **** #if (CapSense_IS_COMPLEX_SCANSLOTS)
 918:.\Generated_Source\PSoC4/CapSense.c ****     /*******************************************************************************
 919:.\Generated_Source\PSoC4/CapSense.c ****     * Function Name: CapSense_EnableScanSlot
 920:.\Generated_Source\PSoC4/CapSense.c ****     ********************************************************************************
 921:.\Generated_Source\PSoC4/CapSense.c ****     *
 922:.\Generated_Source\PSoC4/CapSense.c ****     * Summary:
 923:.\Generated_Source\PSoC4/CapSense.c ****     *  Configures the selected slot to measure during the next measurement 
 924:.\Generated_Source\PSoC4/CapSense.c ****     *  cycle. The corresponding pin/pins are set to Analog High-Z mode and 
 925:.\Generated_Source\PSoC4/CapSense.c ****     *  connected to the Analog Mux Bus. This also enables the comparator function.
 926:.\Generated_Source\PSoC4/CapSense.c ****     *
 927:.\Generated_Source\PSoC4/CapSense.c ****     * Parameters:
 928:.\Generated_Source\PSoC4/CapSense.c ****     *  slot:  Slot number.
 929:.\Generated_Source\PSoC4/CapSense.c ****     *
 930:.\Generated_Source\PSoC4/CapSense.c ****     * Return:
 931:.\Generated_Source\PSoC4/CapSense.c ****     *  None
 932:.\Generated_Source\PSoC4/CapSense.c ****     *
 933:.\Generated_Source\PSoC4/CapSense.c ****     * Global Constants:
 934:.\Generated_Source\PSoC4/CapSense.c ****     *  CapSense_portTable[]  - used to store the port number that pin 
 935:.\Generated_Source\PSoC4/CapSense.c ****     *  belongs to for each sensor.
 936:.\Generated_Source\PSoC4/CapSense.c ****     *  CapSense_maskTable[]  - used to store the pin within the port for 
 937:.\Generated_Source\PSoC4/CapSense.c ****     *  each sensor.
 938:.\Generated_Source\PSoC4/CapSense.c ****     *  CapSense_indexTable[] - used to store indexes of complex sensors.
 939:.\Generated_Source\PSoC4/CapSense.c ****     *  The offset and position in this array are stored in a port and mask table for 
ARM GAS  C:\Users\merlin\AppData\Local\Temp\ccZOZwzR.s 			page 24


 940:.\Generated_Source\PSoC4/CapSense.c ****     *  complex sensors.
 941:.\Generated_Source\PSoC4/CapSense.c ****     *  Bit 7 (msb) is used to define the sensor type: single or complex.
 942:.\Generated_Source\PSoC4/CapSense.c ****     *
 943:.\Generated_Source\PSoC4/CapSense.c **** 	* Side Effects: 
 944:.\Generated_Source\PSoC4/CapSense.c **** 	*  None
 945:.\Generated_Source\PSoC4/CapSense.c **** 	*
 946:.\Generated_Source\PSoC4/CapSense.c ****     *******************************************************************************/
 947:.\Generated_Source\PSoC4/CapSense.c ****     void CapSense_EnableScanSlot(uint32 slot)
 948:.\Generated_Source\PSoC4/CapSense.c ****     {
 949:.\Generated_Source\PSoC4/CapSense.c ****         uint8 j;
 950:.\Generated_Source\PSoC4/CapSense.c ****         uint8 snsNumber;
 951:.\Generated_Source\PSoC4/CapSense.c ****         const uint8 *index;
 952:.\Generated_Source\PSoC4/CapSense.c ****         /* Read sensor type: single or complex */
 953:.\Generated_Source\PSoC4/CapSense.c ****         uint8 snsType = CapSense_portTable[slot];
 954:.\Generated_Source\PSoC4/CapSense.c **** 
 955:.\Generated_Source\PSoC4/CapSense.c ****         /* Check if sensor is complex */
 956:.\Generated_Source\PSoC4/CapSense.c ****         if ((snsType & CapSense_COMPLEX_SS_FLAG) == 0u)
 957:.\Generated_Source\PSoC4/CapSense.c ****         {
 958:.\Generated_Source\PSoC4/CapSense.c ****             /* Enable sensor (single) */
 959:.\Generated_Source\PSoC4/CapSense.c ****             CapSense_EnableSensor(slot);
 960:.\Generated_Source\PSoC4/CapSense.c ****         }
 961:.\Generated_Source\PSoC4/CapSense.c ****         else
 962:.\Generated_Source\PSoC4/CapSense.c ****         {
 963:.\Generated_Source\PSoC4/CapSense.c ****             /* Enable complex sensor */
 964:.\Generated_Source\PSoC4/CapSense.c ****             snsType &= ~CapSense_COMPLEX_SS_FLAG;
 965:.\Generated_Source\PSoC4/CapSense.c ****             index = &CapSense_indexTable[snsType];
 966:.\Generated_Source\PSoC4/CapSense.c ****             snsNumber = CapSense_maskTable[slot];
 967:.\Generated_Source\PSoC4/CapSense.c ****                         
 968:.\Generated_Source\PSoC4/CapSense.c ****             for (j = 0u; j < snsNumber; j++)
 969:.\Generated_Source\PSoC4/CapSense.c ****             {
 970:.\Generated_Source\PSoC4/CapSense.c ****                 CapSense_EnableSensor(index[j]);
 971:.\Generated_Source\PSoC4/CapSense.c ****             }
 972:.\Generated_Source\PSoC4/CapSense.c ****         }
 973:.\Generated_Source\PSoC4/CapSense.c ****     }
 974:.\Generated_Source\PSoC4/CapSense.c ****     
 975:.\Generated_Source\PSoC4/CapSense.c ****     
 976:.\Generated_Source\PSoC4/CapSense.c ****     /*******************************************************************************
 977:.\Generated_Source\PSoC4/CapSense.c ****     * Function Name: CapSense_DisableScanSlot
 978:.\Generated_Source\PSoC4/CapSense.c ****     ********************************************************************************
 979:.\Generated_Source\PSoC4/CapSense.c ****     *
 980:.\Generated_Source\PSoC4/CapSense.c ****     * Summary:
 981:.\Generated_Source\PSoC4/CapSense.c ****     *  Disables the selected slot. The corresponding pin/pins is/are disconnected 
 982:.\Generated_Source\PSoC4/CapSense.c ****     *  from the Analog Mux Bus and connected to GND, High_Z or Shield electrode.
 983:.\Generated_Source\PSoC4/CapSense.c ****     *
 984:.\Generated_Source\PSoC4/CapSense.c ****     * Parameters:
 985:.\Generated_Source\PSoC4/CapSense.c ****     *  slot:  Slot number.
 986:.\Generated_Source\PSoC4/CapSense.c ****     *
 987:.\Generated_Source\PSoC4/CapSense.c ****     * Return:
 988:.\Generated_Source\PSoC4/CapSense.c ****     *  None
 989:.\Generated_Source\PSoC4/CapSense.c ****     *
 990:.\Generated_Source\PSoC4/CapSense.c ****     * Global Variables:
 991:.\Generated_Source\PSoC4/CapSense.c ****     *  CapSense_portTable[]  - used to store the port number that pin 
 992:.\Generated_Source\PSoC4/CapSense.c ****     *  belongs to for each sensor.
 993:.\Generated_Source\PSoC4/CapSense.c ****     *  CapSense_maskTable[]  - used to store the pin within the port for 
 994:.\Generated_Source\PSoC4/CapSense.c ****     *  each sensor.
 995:.\Generated_Source\PSoC4/CapSense.c ****     *  CapSense_indexTable[] - used to store indexes of complex sensors.
 996:.\Generated_Source\PSoC4/CapSense.c ****     *  The offset and position in this array are stored in a port and mask table for 
ARM GAS  C:\Users\merlin\AppData\Local\Temp\ccZOZwzR.s 			page 25


 997:.\Generated_Source\PSoC4/CapSense.c ****     *  complex sensors.
 998:.\Generated_Source\PSoC4/CapSense.c ****     *  7bit(msb) is used to define the sensor type: single or complex.
 999:.\Generated_Source\PSoC4/CapSense.c ****     *
1000:.\Generated_Source\PSoC4/CapSense.c **** 	* Side Effects: 
1001:.\Generated_Source\PSoC4/CapSense.c **** 	*  None
1002:.\Generated_Source\PSoC4/CapSense.c **** 	*
1003:.\Generated_Source\PSoC4/CapSense.c ****     *******************************************************************************/
1004:.\Generated_Source\PSoC4/CapSense.c ****     void CapSense_DisableScanSlot(uint32 slot)
1005:.\Generated_Source\PSoC4/CapSense.c ****     {
1006:.\Generated_Source\PSoC4/CapSense.c ****         uint8 j;
1007:.\Generated_Source\PSoC4/CapSense.c ****         uint8 snsNumber;
1008:.\Generated_Source\PSoC4/CapSense.c ****         const uint8 *index;
1009:.\Generated_Source\PSoC4/CapSense.c **** 
1010:.\Generated_Source\PSoC4/CapSense.c ****         /* Read sensor type: single or complex */
1011:.\Generated_Source\PSoC4/CapSense.c ****         uint8 snsType = CapSense_portTable[slot];
1012:.\Generated_Source\PSoC4/CapSense.c ****         
1013:.\Generated_Source\PSoC4/CapSense.c ****         /* Check if sensor is complex */
1014:.\Generated_Source\PSoC4/CapSense.c ****         if ((snsType & CapSense_COMPLEX_SS_FLAG) == 0u)
1015:.\Generated_Source\PSoC4/CapSense.c ****         {
1016:.\Generated_Source\PSoC4/CapSense.c ****             /* Disable sensor (single) */
1017:.\Generated_Source\PSoC4/CapSense.c ****             CapSense_DisableSensor(slot);
1018:.\Generated_Source\PSoC4/CapSense.c ****         }
1019:.\Generated_Source\PSoC4/CapSense.c ****         else
1020:.\Generated_Source\PSoC4/CapSense.c ****         {
1021:.\Generated_Source\PSoC4/CapSense.c ****             /* Disable complex sensor */
1022:.\Generated_Source\PSoC4/CapSense.c ****             snsType &= ~CapSense_COMPLEX_SS_FLAG;
1023:.\Generated_Source\PSoC4/CapSense.c ****             index = &CapSense_indexTable[snsType];
1024:.\Generated_Source\PSoC4/CapSense.c ****             snsNumber = CapSense_maskTable[slot];
1025:.\Generated_Source\PSoC4/CapSense.c ****                         
1026:.\Generated_Source\PSoC4/CapSense.c ****             for (j=0; j < snsNumber; j++)
1027:.\Generated_Source\PSoC4/CapSense.c ****             {
1028:.\Generated_Source\PSoC4/CapSense.c ****                 CapSense_DisableSensor(index[j]);
1029:.\Generated_Source\PSoC4/CapSense.c ****             }
1030:.\Generated_Source\PSoC4/CapSense.c ****         } 
1031:.\Generated_Source\PSoC4/CapSense.c ****     }
1032:.\Generated_Source\PSoC4/CapSense.c **** #endif  /* CapSense_IS_COMPLEX_SCANSLOTS */
1033:.\Generated_Source\PSoC4/CapSense.c **** 
1034:.\Generated_Source\PSoC4/CapSense.c **** 
1035:.\Generated_Source\PSoC4/CapSense.c **** /*******************************************************************************
1036:.\Generated_Source\PSoC4/CapSense.c **** * Function Name: CapSense_EnableSensor
1037:.\Generated_Source\PSoC4/CapSense.c **** ********************************************************************************
1038:.\Generated_Source\PSoC4/CapSense.c **** *
1039:.\Generated_Source\PSoC4/CapSense.c **** * Summary:
1040:.\Generated_Source\PSoC4/CapSense.c **** *  Configures the selected sensor to measure during the next measurement cycle.
1041:.\Generated_Source\PSoC4/CapSense.c **** *  The corresponding pins are set to Analog High-Z mode and connected to the
1042:.\Generated_Source\PSoC4/CapSense.c **** *  Analog Mux Bus. This also enables the comparator function.
1043:.\Generated_Source\PSoC4/CapSense.c **** *
1044:.\Generated_Source\PSoC4/CapSense.c **** * Parameters:
1045:.\Generated_Source\PSoC4/CapSense.c **** *  sensor:  Sensor number.
1046:.\Generated_Source\PSoC4/CapSense.c **** *
1047:.\Generated_Source\PSoC4/CapSense.c **** * Return:
1048:.\Generated_Source\PSoC4/CapSense.c **** *  None
1049:.\Generated_Source\PSoC4/CapSense.c **** *
1050:.\Generated_Source\PSoC4/CapSense.c **** * Global Variables:
1051:.\Generated_Source\PSoC4/CapSense.c **** *  CapSense_portTable[] - used to store the port number that pin 
1052:.\Generated_Source\PSoC4/CapSense.c **** *  belongs to for each sensor.
1053:.\Generated_Source\PSoC4/CapSense.c **** *  CapSense_pinShiftTbl[] - used to store position of pin that 
ARM GAS  C:\Users\merlin\AppData\Local\Temp\ccZOZwzR.s 			page 26


1054:.\Generated_Source\PSoC4/CapSense.c **** *  configured as sensor in port. 
1055:.\Generated_Source\PSoC4/CapSense.c **** *  CapSense_prtSelTbl[] - Contains pointers to the HSIOM 
1056:.\Generated_Source\PSoC4/CapSense.c **** *  registers for each port. 
1057:.\Generated_Source\PSoC4/CapSense.c **** *  CapSense_PrtCfgTb[] - Contains pointers to the port config 
1058:.\Generated_Source\PSoC4/CapSense.c **** *  registers for each port.
1059:.\Generated_Source\PSoC4/CapSense.c **** *
1060:.\Generated_Source\PSoC4/CapSense.c **** * Side Effects: 
1061:.\Generated_Source\PSoC4/CapSense.c **** *  None
1062:.\Generated_Source\PSoC4/CapSense.c **** *
1063:.\Generated_Source\PSoC4/CapSense.c **** *******************************************************************************/
1064:.\Generated_Source\PSoC4/CapSense.c **** void CapSense_EnableSensor(uint32 sensor)
1065:.\Generated_Source\PSoC4/CapSense.c **** {
 373              		.loc 1 1065 0
 374              		.cfi_startproc
 375              	.LVL35:
 376 0000 38B5     		push	{r3, r4, r5, lr}
 377              		.cfi_def_cfa_offset 16
 378              		.cfi_offset 3, -16
 379              		.cfi_offset 4, -12
 380              		.cfi_offset 5, -8
 381              		.cfi_offset 14, -4
 382              	.LVL36:
1066:.\Generated_Source\PSoC4/CapSense.c **** 	uint8  pinModeShift;
1067:.\Generated_Source\PSoC4/CapSense.c ****     uint8  pinHSIOMShift;
1068:.\Generated_Source\PSoC4/CapSense.c **** 	uint8 interruptState;
1069:.\Generated_Source\PSoC4/CapSense.c **** 	uint32 newRegisterValue;
1070:.\Generated_Source\PSoC4/CapSense.c ****     uint32 port;
1071:.\Generated_Source\PSoC4/CapSense.c **** 	
1072:.\Generated_Source\PSoC4/CapSense.c **** 	port = (uint32) CapSense_portTable[sensor];
1073:.\Generated_Source\PSoC4/CapSense.c ****     pinModeShift = CapSense_pinShiftTbl[sensor]  * CapSense_PC_PIN_CFG_SIZE;
1074:.\Generated_Source\PSoC4/CapSense.c ****     pinHSIOMShift = CapSense_pinShiftTbl[sensor] * CapSense_HSIOM_PIN_CFG_SIZE;
1075:.\Generated_Source\PSoC4/CapSense.c **** 
1076:.\Generated_Source\PSoC4/CapSense.c **** 	interruptState = CyEnterCriticalSection();
 383              		.loc 1 1076 0
 384 0002 FFF7FEFF 		bl	CyEnterCriticalSection
 385              	.LVL37:
1077:.\Generated_Source\PSoC4/CapSense.c **** 	
1078:.\Generated_Source\PSoC4/CapSense.c **** 	newRegisterValue = *CapSense_prtSelTbl[port];
 386              		.loc 1 1078 0
 387 0006 0849     		ldr	r1, .L26
 388 0008 0B68     		ldr	r3, [r1]
 389              	.LVL38:
1079:.\Generated_Source\PSoC4/CapSense.c **** 	newRegisterValue &= ~(CapSense_CSD_HSIOM_MASK << pinHSIOMShift);
 390              		.loc 1 1079 0
 391 000a 1B01     		lsl	r3, r3, #4
 392              	.LVL39:
 393 000c 1B09     		lsr	r3, r3, #4
 394              	.LVL40:
1080:.\Generated_Source\PSoC4/CapSense.c **** 	newRegisterValue |= (uint32)((uint32)CapSense_CSD_SENSE_PORT_MODE << pinHSIOMShift);
 395              		.loc 1 1080 0
 396 000e 8022     		mov	r2, #128
 397 0010 D205     		lsl	r2, r2, #23
 398 0012 1343     		orr	r3, r2
 399              	.LVL41:
1081:.\Generated_Source\PSoC4/CapSense.c ****    
1082:.\Generated_Source\PSoC4/CapSense.c ****     *CapSense_prtCfgTbl[port] &= (uint32)~((uint32)CapSense_CSD_PIN_MODE_MASK << pinModeShift);
 400              		.loc 1 1082 0
ARM GAS  C:\Users\merlin\AppData\Local\Temp\ccZOZwzR.s 			page 27


 401 0014 054C     		ldr	r4, .L26+4
 402 0016 2568     		ldr	r5, [r4]
 403 0018 054A     		ldr	r2, .L26+8
 404 001a 2A40     		and	r2, r5
 405 001c 2260     		str	r2, [r4]
1083:.\Generated_Source\PSoC4/CapSense.c ****     *CapSense_prtSelTbl[port] = newRegisterValue;
 406              		.loc 1 1083 0
 407 001e 0B60     		str	r3, [r1]
1084:.\Generated_Source\PSoC4/CapSense.c **** 	
1085:.\Generated_Source\PSoC4/CapSense.c **** 	CyExitCriticalSection(interruptState);
 408              		.loc 1 1085 0
 409 0020 FFF7FEFF 		bl	CyExitCriticalSection
 410              	.LVL42:
1086:.\Generated_Source\PSoC4/CapSense.c **** }
 411              		.loc 1 1086 0
 412              		@ sp needed
 413 0024 38BD     		pop	{r3, r4, r5, pc}
 414              	.L27:
 415 0026 C046     		.align	2
 416              	.L26:
 417 0028 00030240 		.word	1073873664
 418 002c 08030440 		.word	1074004744
 419 0030 FFFF1FFF 		.word	-14680065
 420              		.cfi_endproc
 421              	.LFE49:
 422              		.size	CapSense_EnableSensor, .-CapSense_EnableSensor
 423              		.section	.text.CapSense_DisableSensor,"ax",%progbits
 424              		.align	2
 425              		.global	CapSense_DisableSensor
 426              		.code	16
 427              		.thumb_func
 428              		.type	CapSense_DisableSensor, %function
 429              	CapSense_DisableSensor:
 430              	.LFB50:
1087:.\Generated_Source\PSoC4/CapSense.c **** 
1088:.\Generated_Source\PSoC4/CapSense.c **** 
1089:.\Generated_Source\PSoC4/CapSense.c **** /*******************************************************************************
1090:.\Generated_Source\PSoC4/CapSense.c **** * Function Name: CapSense_DisableSensor
1091:.\Generated_Source\PSoC4/CapSense.c **** ********************************************************************************
1092:.\Generated_Source\PSoC4/CapSense.c **** *
1093:.\Generated_Source\PSoC4/CapSense.c **** * Summary:
1094:.\Generated_Source\PSoC4/CapSense.c **** *  Disables the selected sensor. The corresponding pin is disconnected from the
1095:.\Generated_Source\PSoC4/CapSense.c **** *  Analog Mux Bus and connected to GND, High_Z or Shield electrode.
1096:.\Generated_Source\PSoC4/CapSense.c **** *
1097:.\Generated_Source\PSoC4/CapSense.c **** * Parameters:
1098:.\Generated_Source\PSoC4/CapSense.c **** *  sensor:  Sensor number
1099:.\Generated_Source\PSoC4/CapSense.c **** *
1100:.\Generated_Source\PSoC4/CapSense.c **** * Return:
1101:.\Generated_Source\PSoC4/CapSense.c **** *  None
1102:.\Generated_Source\PSoC4/CapSense.c **** *
1103:.\Generated_Source\PSoC4/CapSense.c **** * Global Variables:
1104:.\Generated_Source\PSoC4/CapSense.c **** *  CapSense_portTable[] - used to store the port number that pin 
1105:.\Generated_Source\PSoC4/CapSense.c **** *  belongs to for each sensor.
1106:.\Generated_Source\PSoC4/CapSense.c **** *  CapSense_pinShiftTbl[] - used to store position of pin that 
1107:.\Generated_Source\PSoC4/CapSense.c **** *  configured as a sensor in the port. 
1108:.\Generated_Source\PSoC4/CapSense.c **** *  CapSense_prtSelTbl[] - Contains pointers to the HSIOM 
1109:.\Generated_Source\PSoC4/CapSense.c **** *  registers for each port. 
ARM GAS  C:\Users\merlin\AppData\Local\Temp\ccZOZwzR.s 			page 28


1110:.\Generated_Source\PSoC4/CapSense.c **** *  CapSense_PrtCfgTb[] - Contains pointers to the port config 
1111:.\Generated_Source\PSoC4/CapSense.c **** *  registers for each port.
1112:.\Generated_Source\PSoC4/CapSense.c **** *
1113:.\Generated_Source\PSoC4/CapSense.c **** * Side Effects: 
1114:.\Generated_Source\PSoC4/CapSense.c **** *  None
1115:.\Generated_Source\PSoC4/CapSense.c **** *
1116:.\Generated_Source\PSoC4/CapSense.c **** *******************************************************************************/
1117:.\Generated_Source\PSoC4/CapSense.c **** void CapSense_DisableSensor(uint32 sensor)
1118:.\Generated_Source\PSoC4/CapSense.c **** {
 431              		.loc 1 1118 0
 432              		.cfi_startproc
 433              	.LVL43:
 434 0000 10B5     		push	{r4, lr}
 435              		.cfi_def_cfa_offset 8
 436              		.cfi_offset 4, -8
 437              		.cfi_offset 14, -4
 438              	.LVL44:
1119:.\Generated_Source\PSoC4/CapSense.c ****     uint8 interruptState;
1120:.\Generated_Source\PSoC4/CapSense.c **** 	uint32 newRegisterValue;
1121:.\Generated_Source\PSoC4/CapSense.c **** 	
1122:.\Generated_Source\PSoC4/CapSense.c ****     uint32 port = (uint32) CapSense_portTable[sensor];
1123:.\Generated_Source\PSoC4/CapSense.c ****     uint8  pinHSIOMShift = CapSense_pinShiftTbl[sensor] * CapSense_HSIOM_PIN_CFG_SIZE;
1124:.\Generated_Source\PSoC4/CapSense.c ****     uint8  pinModeShift = CapSense_pinShiftTbl[sensor]  * CapSense_PC_PIN_CFG_SIZE;
1125:.\Generated_Source\PSoC4/CapSense.c **** 
1126:.\Generated_Source\PSoC4/CapSense.c **** 	uint32 inactiveConnect = CapSense_SNS_HIZANALOG_CONNECT;
1127:.\Generated_Source\PSoC4/CapSense.c **** 	uint32 sensorState = CapSense_unscannedSnsDriveMode[sensor];
 439              		.loc 1 1127 0
 440 0002 104B     		ldr	r3, .L33
 441 0004 1A5C     		ldrb	r2, [r3, r0]
 442              	.LVL45:
1128:.\Generated_Source\PSoC4/CapSense.c **** 
1129:.\Generated_Source\PSoC4/CapSense.c ****     *CapSense_prtSelTbl[port] &= ~(CapSense_CSD_HSIOM_MASK << pinHSIOMShift);
 443              		.loc 1 1129 0
 444 0006 1049     		ldr	r1, .L33+4
 445 0008 0B68     		ldr	r3, [r1]
 446 000a 1B01     		lsl	r3, r3, #4
 447 000c 1B09     		lsr	r3, r3, #4
 448 000e 0B60     		str	r3, [r1]
1130:.\Generated_Source\PSoC4/CapSense.c **** 
1131:.\Generated_Source\PSoC4/CapSense.c **** 	#if(CapSense_IS_SHIELD_ENABLE != 0)
1132:.\Generated_Source\PSoC4/CapSense.c **** 	if(sensorState != (uint32)CapSense__SHIELD)
1133:.\Generated_Source\PSoC4/CapSense.c **** 	{
1134:.\Generated_Source\PSoC4/CapSense.c **** 	#else
1135:.\Generated_Source\PSoC4/CapSense.c **** 	    /* Connected to Ground if shield is disabled */
1136:.\Generated_Source\PSoC4/CapSense.c **** 	    if(sensorState == (uint32)CapSense__SHIELD)
 449              		.loc 1 1136 0
 450 0010 022A     		cmp	r2, #2
 451 0012 00D1     		bne	.L29
1137:.\Generated_Source\PSoC4/CapSense.c **** 		{
1138:.\Generated_Source\PSoC4/CapSense.c **** 			sensorState = (uint32)CapSense__GROUND;
 452              		.loc 1 1138 0
 453 0014 0022     		mov	r2, #0
 454              	.LVL46:
 455              	.L29:
1139:.\Generated_Source\PSoC4/CapSense.c **** 		}
1140:.\Generated_Source\PSoC4/CapSense.c **** 	#endif /* (CapSense_IS_SHIELD_ENABLE) */
1141:.\Generated_Source\PSoC4/CapSense.c **** 	    if(sensorState != (uint32)CapSense__HIZ_ANALOG)
ARM GAS  C:\Users\merlin\AppData\Local\Temp\ccZOZwzR.s 			page 29


 456              		.loc 1 1141 0
 457 0016 012A     		cmp	r2, #1
 458 0018 01D1     		bne	.L32
1126:.\Generated_Source\PSoC4/CapSense.c **** 	uint32 sensorState = CapSense_unscannedSnsDriveMode[sensor];
 459              		.loc 1 1126 0
 460 001a 0024     		mov	r4, #0
 461 001c 00E0     		b	.L30
 462              	.L32:
1142:.\Generated_Source\PSoC4/CapSense.c **** 		{   
1143:.\Generated_Source\PSoC4/CapSense.c **** 		    /* Connected to Ground */
1144:.\Generated_Source\PSoC4/CapSense.c **** 		    inactiveConnect = (uint32)CapSense_SNS_GROUND_CONNECT;
 463              		.loc 1 1144 0
 464 001e 0624     		mov	r4, #6
 465              	.L30:
 466              	.LVL47:
1145:.\Generated_Source\PSoC4/CapSense.c **** 		}
1146:.\Generated_Source\PSoC4/CapSense.c **** 		
1147:.\Generated_Source\PSoC4/CapSense.c ****         interruptState = CyEnterCriticalSection();
 467              		.loc 1 1147 0
 468 0020 FFF7FEFF 		bl	CyEnterCriticalSection
 469              	.LVL48:
1148:.\Generated_Source\PSoC4/CapSense.c **** 
1149:.\Generated_Source\PSoC4/CapSense.c ****         /* Set drive mode */
1150:.\Generated_Source\PSoC4/CapSense.c ****     	newRegisterValue = *CapSense_prtCfgTbl[port];
 470              		.loc 1 1150 0
 471 0024 0949     		ldr	r1, .L33+8
 472 0026 0B68     		ldr	r3, [r1]
 473              	.LVL49:
1151:.\Generated_Source\PSoC4/CapSense.c ****     	newRegisterValue &= ~(CapSense_CSD_PIN_MODE_MASK << pinModeShift);
 474              		.loc 1 1151 0
 475 0028 094A     		ldr	r2, .L33+12
 476 002a 1A40     		and	r2, r3
 477              	.LVL50:
1152:.\Generated_Source\PSoC4/CapSense.c ****     	newRegisterValue |=  (uint32)(inactiveConnect << pinModeShift);
 478              		.loc 1 1152 0
 479 002c 6305     		lsl	r3, r4, #21
 480 002e 1343     		orr	r3, r2
 481              	.LVL51:
1153:.\Generated_Source\PSoC4/CapSense.c ****         *CapSense_prtCfgTbl[port] =  newRegisterValue;
 482              		.loc 1 1153 0
 483 0030 0B60     		str	r3, [r1]
1154:.\Generated_Source\PSoC4/CapSense.c ****         
1155:.\Generated_Source\PSoC4/CapSense.c ****         CyExitCriticalSection(interruptState);
 484              		.loc 1 1155 0
 485 0032 FFF7FEFF 		bl	CyExitCriticalSection
 486              	.LVL52:
1156:.\Generated_Source\PSoC4/CapSense.c **** 
1157:.\Generated_Source\PSoC4/CapSense.c ****     	*CapSense_prtDRTbl[port]  &=  (uint32)~(uint32)((uint32)1u << CapSense_pinShiftTbl[sensor]); 
 487              		.loc 1 1157 0
 488 0036 074A     		ldr	r2, .L33+16
 489 0038 1368     		ldr	r3, [r2]
 490 003a 8021     		mov	r1, #128
 491 003c 8B43     		bic	r3, r1
 492 003e 1360     		str	r3, [r2]
1158:.\Generated_Source\PSoC4/CapSense.c **** 	#if(CapSense_IS_SHIELD_ENABLE != 0)
1159:.\Generated_Source\PSoC4/CapSense.c **** 	}
1160:.\Generated_Source\PSoC4/CapSense.c **** 	else
ARM GAS  C:\Users\merlin\AppData\Local\Temp\ccZOZwzR.s 			page 30


1161:.\Generated_Source\PSoC4/CapSense.c **** 	{
1162:.\Generated_Source\PSoC4/CapSense.c **** 		/* Connect to Shield */
1163:.\Generated_Source\PSoC4/CapSense.c **** 		*CapSense_prtSelTbl[port] |= (CapSense_CSD_SHIELD_PORT_MODE << pinHSIOMShift);
1164:.\Generated_Source\PSoC4/CapSense.c **** 	}
1165:.\Generated_Source\PSoC4/CapSense.c **** 	#endif /* (CapSense_IS_SHIELD_ENABLE) */
1166:.\Generated_Source\PSoC4/CapSense.c **** }
 493              		.loc 1 1166 0
 494              		@ sp needed
 495              	.LVL53:
 496 0040 10BD     		pop	{r4, pc}
 497              	.L34:
 498 0042 C046     		.align	2
 499              	.L33:
 500 0044 00000000 		.word	CapSense_unscannedSnsDriveMode
 501 0048 00030240 		.word	1073873664
 502 004c 08030440 		.word	1074004744
 503 0050 FFFF1FFF 		.word	-14680065
 504 0054 00030440 		.word	1074004736
 505              		.cfi_endproc
 506              	.LFE50:
 507              		.size	CapSense_DisableSensor, .-CapSense_DisableSensor
 508              		.section	.text.CapSense_ClearSensors,"ax",%progbits
 509              		.align	2
 510              		.global	CapSense_ClearSensors
 511              		.code	16
 512              		.thumb_func
 513              		.type	CapSense_ClearSensors, %function
 514              	CapSense_ClearSensors:
 515              	.LFB48:
 907:.\Generated_Source\PSoC4/CapSense.c **** 	uint32 snsIndex;
 516              		.loc 1 907 0
 517              		.cfi_startproc
 518 0000 10B5     		push	{r4, lr}
 519              		.cfi_def_cfa_offset 8
 520              		.cfi_offset 4, -8
 521              		.cfi_offset 14, -4
 522              	.LVL54:
 910:.\Generated_Source\PSoC4/CapSense.c ****     {
 523              		.loc 1 910 0
 524 0002 0024     		mov	r4, #0
 525 0004 03E0     		b	.L36
 526              	.LVL55:
 527              	.L37:
 912:.\Generated_Source\PSoC4/CapSense.c ****     }
 528              		.loc 1 912 0 discriminator 3
 529 0006 201C     		mov	r0, r4
 530 0008 FFF7FEFF 		bl	CapSense_DisableSensor
 531              	.LVL56:
 910:.\Generated_Source\PSoC4/CapSense.c ****     {
 532              		.loc 1 910 0 discriminator 3
 533 000c 0134     		add	r4, r4, #1
 534              	.LVL57:
 535              	.L36:
 910:.\Generated_Source\PSoC4/CapSense.c ****     {
 536              		.loc 1 910 0 is_stmt 0 discriminator 1
 537 000e 002C     		cmp	r4, #0
 538 0010 F9D0     		beq	.L37
ARM GAS  C:\Users\merlin\AppData\Local\Temp\ccZOZwzR.s 			page 31


 914:.\Generated_Source\PSoC4/CapSense.c **** 
 539              		.loc 1 914 0 is_stmt 1
 540              		@ sp needed
 541              	.LVL58:
 542 0012 10BD     		pop	{r4, pc}
 543              		.cfi_endproc
 544              	.LFE48:
 545              		.size	CapSense_ClearSensors, .-CapSense_ClearSensors
 546              		.section	.text.CapSense_SetPinDriveMode,"ax",%progbits
 547              		.align	2
 548              		.global	CapSense_SetPinDriveMode
 549              		.code	16
 550              		.thumb_func
 551              		.type	CapSense_SetPinDriveMode, %function
 552              	CapSense_SetPinDriveMode:
 553              	.LFB53:
1167:.\Generated_Source\PSoC4/CapSense.c **** 
1168:.\Generated_Source\PSoC4/CapSense.c **** 
1169:.\Generated_Source\PSoC4/CapSense.c **** /*******************************************************************************
1170:.\Generated_Source\PSoC4/CapSense.c **** * Function Name: CapSense_SetDriveModeAllPins
1171:.\Generated_Source\PSoC4/CapSense.c **** ********************************************************************************
1172:.\Generated_Source\PSoC4/CapSense.c **** *
1173:.\Generated_Source\PSoC4/CapSense.c **** * Summary:
1174:.\Generated_Source\PSoC4/CapSense.c **** * This API sets the drive mode of port pins used by the CapSense
1175:.\Generated_Source\PSoC4/CapSense.c **** * component (sensors, guard, shield, shield tank and Cmod) to drive the 
1176:.\Generated_Source\PSoC4/CapSense.c **** * mode specified by the argument.
1177:.\Generated_Source\PSoC4/CapSense.c **** *
1178:.\Generated_Source\PSoC4/CapSense.c **** * Parameters:
1179:.\Generated_Source\PSoC4/CapSense.c **** *  driveMode:  Drive mode definition.
1180:.\Generated_Source\PSoC4/CapSense.c **** *
1181:.\Generated_Source\PSoC4/CapSense.c **** * Return:
1182:.\Generated_Source\PSoC4/CapSense.c **** *  None
1183:.\Generated_Source\PSoC4/CapSense.c **** *
1184:.\Generated_Source\PSoC4/CapSense.c **** * Global Variables:
1185:.\Generated_Source\PSoC4/CapSense.c **** *  CapSense_portTable[] - used to store the port number that pin 
1186:.\Generated_Source\PSoC4/CapSense.c **** *  belongs to for each sensor.
1187:.\Generated_Source\PSoC4/CapSense.c **** *  CapSense_pinShiftTbl[] - used to store position of pin that 
1188:.\Generated_Source\PSoC4/CapSense.c **** *  configured as a sensor in the port. 
1189:.\Generated_Source\PSoC4/CapSense.c **** *
1190:.\Generated_Source\PSoC4/CapSense.c **** * Side Effects: 
1191:.\Generated_Source\PSoC4/CapSense.c **** *  This API shall be called only after CapSense component is stopped.
1192:.\Generated_Source\PSoC4/CapSense.c **** *
1193:.\Generated_Source\PSoC4/CapSense.c **** *******************************************************************************/
1194:.\Generated_Source\PSoC4/CapSense.c **** void CapSense_SetDriveModeAllPins(uint32 driveMode)
1195:.\Generated_Source\PSoC4/CapSense.c **** {
1196:.\Generated_Source\PSoC4/CapSense.c **** 	uint8 curSensor;
1197:.\Generated_Source\PSoC4/CapSense.c **** 	#if (CapSense_IS_COMPLEX_SCANSLOTS)
1198:.\Generated_Source\PSoC4/CapSense.c **** 		uint8 snsNumber;
1199:.\Generated_Source\PSoC4/CapSense.c **** 		uint8 snsType;
1200:.\Generated_Source\PSoC4/CapSense.c **** 	#endif  /* CapSense_IS_COMPLEX_SCANSLOTS */
1201:.\Generated_Source\PSoC4/CapSense.c **** 	uint32 prtNumberTmp;
1202:.\Generated_Source\PSoC4/CapSense.c **** 	uint32 pinNumberTmp;
1203:.\Generated_Source\PSoC4/CapSense.c **** 
1204:.\Generated_Source\PSoC4/CapSense.c **** 	for(curSensor = 0u; curSensor < CapSense_TOTAL_SENSOR_COUNT; curSensor++)
1205:.\Generated_Source\PSoC4/CapSense.c **** 	{	
1206:.\Generated_Source\PSoC4/CapSense.c **** 		#if (CapSense_IS_COMPLEX_SCANSLOTS)
1207:.\Generated_Source\PSoC4/CapSense.c **** 			/* Read sensor type: single or complex */
ARM GAS  C:\Users\merlin\AppData\Local\Temp\ccZOZwzR.s 			page 32


1208:.\Generated_Source\PSoC4/CapSense.c **** 			snsType = CapSense_portTable[curSensor];
1209:.\Generated_Source\PSoC4/CapSense.c **** 		
1210:.\Generated_Source\PSoC4/CapSense.c **** 			/* Check if sensor is complex */
1211:.\Generated_Source\PSoC4/CapSense.c **** 			if ((snsType & CapSense_COMPLEX_SS_FLAG) == 0u)
1212:.\Generated_Source\PSoC4/CapSense.c **** 			{
1213:.\Generated_Source\PSoC4/CapSense.c **** 				/* The sensor is not complex */
1214:.\Generated_Source\PSoC4/CapSense.c **** 				snsNumber = curSensor;
1215:.\Generated_Source\PSoC4/CapSense.c **** 			}
1216:.\Generated_Source\PSoC4/CapSense.c **** 			else
1217:.\Generated_Source\PSoC4/CapSense.c **** 			{
1218:.\Generated_Source\PSoC4/CapSense.c **** 				/* Get dedicated sensor ID of the complex sensor */
1219:.\Generated_Source\PSoC4/CapSense.c **** 				snsType &= ~CapSense_COMPLEX_SS_FLAG;
1220:.\Generated_Source\PSoC4/CapSense.c **** 				snsNumber = CapSense_indexTable[snsType];
1221:.\Generated_Source\PSoC4/CapSense.c **** 			}
1222:.\Generated_Source\PSoC4/CapSense.c **** 
1223:.\Generated_Source\PSoC4/CapSense.c **** 			prtNumberTmp = CapSense_portTable[snsNumber];
1224:.\Generated_Source\PSoC4/CapSense.c **** 			pinNumberTmp = CapSense_pinShiftTbl[snsNumber];
1225:.\Generated_Source\PSoC4/CapSense.c **** 		#else
1226:.\Generated_Source\PSoC4/CapSense.c **** 			prtNumberTmp = CapSense_portTable[curSensor];
1227:.\Generated_Source\PSoC4/CapSense.c **** 			pinNumberTmp = CapSense_pinShiftTbl[curSensor];
1228:.\Generated_Source\PSoC4/CapSense.c **** 		#endif  /* CapSense_IS_COMPLEX_SCANSLOTS */
1229:.\Generated_Source\PSoC4/CapSense.c **** 	
1230:.\Generated_Source\PSoC4/CapSense.c **** 		CapSense_SetPinDriveMode(driveMode, pinNumberTmp, prtNumberTmp);
1231:.\Generated_Source\PSoC4/CapSense.c **** 	}
1232:.\Generated_Source\PSoC4/CapSense.c **** 	
1233:.\Generated_Source\PSoC4/CapSense.c **** 	CapSense_SetPinDriveMode(driveMode, (uint32)CapSense_CMOD_PIN_NUMBER, (uint32)CapSense_CMOD_PRT_NU
1234:.\Generated_Source\PSoC4/CapSense.c **** 	
1235:.\Generated_Source\PSoC4/CapSense.c **** 	#if(0u != CapSense_CSH_TANK_ENABLE)
1236:.\Generated_Source\PSoC4/CapSense.c **** 		CapSense_SetPinDriveMode(driveMode, (uint32)CapSense_CTANK_PIN_NUMBER, (uint32)CapSense_CTANK_PRT
1237:.\Generated_Source\PSoC4/CapSense.c **** 	#endif /* (0u != CapSense_CSH_TANK_ENABLE) */	
1238:.\Generated_Source\PSoC4/CapSense.c **** 	
1239:.\Generated_Source\PSoC4/CapSense.c **** 	#if(0u != CapSense_IS_SHIELD_ENABLE)
1240:.\Generated_Source\PSoC4/CapSense.c **** 		CapSense_SetPinDriveMode(driveMode, (uint32)CapSense_SHIELD_PIN_NUMBER, (uint32)CapSense_SHIELD_P
1241:.\Generated_Source\PSoC4/CapSense.c **** 	#endif /* (0u != CapSense_IS_SHIELD_ENABLE) */	
1242:.\Generated_Source\PSoC4/CapSense.c **** }
1243:.\Generated_Source\PSoC4/CapSense.c **** 
1244:.\Generated_Source\PSoC4/CapSense.c **** 
1245:.\Generated_Source\PSoC4/CapSense.c **** /*******************************************************************************
1246:.\Generated_Source\PSoC4/CapSense.c **** * Function Name: CapSense_RestoreDriveModeAllPins
1247:.\Generated_Source\PSoC4/CapSense.c **** ********************************************************************************
1248:.\Generated_Source\PSoC4/CapSense.c **** *
1249:.\Generated_Source\PSoC4/CapSense.c **** * Summary:
1250:.\Generated_Source\PSoC4/CapSense.c **** *  This API restores the drive for all the CapSense port pins to the original
1251:.\Generated_Source\PSoC4/CapSense.c **** *  state.
1252:.\Generated_Source\PSoC4/CapSense.c **** *
1253:.\Generated_Source\PSoC4/CapSense.c **** * Parameters:
1254:.\Generated_Source\PSoC4/CapSense.c **** *  None
1255:.\Generated_Source\PSoC4/CapSense.c **** *
1256:.\Generated_Source\PSoC4/CapSense.c **** * Return:
1257:.\Generated_Source\PSoC4/CapSense.c **** *  None
1258:.\Generated_Source\PSoC4/CapSense.c **** *
1259:.\Generated_Source\PSoC4/CapSense.c **** * Global Variables:
1260:.\Generated_Source\PSoC4/CapSense.c **** *  CapSense_prtSelTbl[] - Contains pointers to the HSIOM 
1261:.\Generated_Source\PSoC4/CapSense.c **** *  registers for each port. 
1262:.\Generated_Source\PSoC4/CapSense.c **** *
1263:.\Generated_Source\PSoC4/CapSense.c **** * Side Effects: 
1264:.\Generated_Source\PSoC4/CapSense.c **** *  This API is called only after the CapSense component is stopped.
ARM GAS  C:\Users\merlin\AppData\Local\Temp\ccZOZwzR.s 			page 33


1265:.\Generated_Source\PSoC4/CapSense.c **** *
1266:.\Generated_Source\PSoC4/CapSense.c **** *******************************************************************************/
1267:.\Generated_Source\PSoC4/CapSense.c **** void CapSense_RestoreDriveModeAllPins(void)
1268:.\Generated_Source\PSoC4/CapSense.c **** {
1269:.\Generated_Source\PSoC4/CapSense.c **** 	uint32 newRegisterValue;
1270:.\Generated_Source\PSoC4/CapSense.c **** 	
1271:.\Generated_Source\PSoC4/CapSense.c **** 	CapSense_SetDriveModeAllPins(CY_SYS_PINS_DM_ALG_HIZ);
1272:.\Generated_Source\PSoC4/CapSense.c **** 	
1273:.\Generated_Source\PSoC4/CapSense.c **** 	newRegisterValue = CapSense_CMOD_CONNECTION_REG; 
1274:.\Generated_Source\PSoC4/CapSense.c ****     newRegisterValue &= ~(CapSense_CSD_CMOD_CONNECTION_MASK);
1275:.\Generated_Source\PSoC4/CapSense.c ****     newRegisterValue |= CapSense_CSD_CMOD_TO_AMUXBUS_A;
1276:.\Generated_Source\PSoC4/CapSense.c ****     CapSense_CMOD_CONNECTION_REG = newRegisterValue;
1277:.\Generated_Source\PSoC4/CapSense.c **** 	
1278:.\Generated_Source\PSoC4/CapSense.c **** 	#if(0u != CapSense_CSH_TANK_ENABLE)
1279:.\Generated_Source\PSoC4/CapSense.c **** 		newRegisterValue = CapSense_CTANK_CONNECTION_REG;
1280:.\Generated_Source\PSoC4/CapSense.c ****         newRegisterValue &= ~(CapSense_CSD_CTANK_CONNECTION_MASK);
1281:.\Generated_Source\PSoC4/CapSense.c **** 		newRegisterValue |= CapSense_CSD_CTANK_TO_AMUXBUS_B;
1282:.\Generated_Source\PSoC4/CapSense.c ****         CapSense_CTANK_CONNECTION_REG = newRegisterValue;
1283:.\Generated_Source\PSoC4/CapSense.c **** 	#endif/* (0u != CapSense_CSH_TANK_ENABLE) */
1284:.\Generated_Source\PSoC4/CapSense.c **** 	
1285:.\Generated_Source\PSoC4/CapSense.c **** 	#if(0u != CapSense_IS_SHIELD_ENABLE)
1286:.\Generated_Source\PSoC4/CapSense.c **** 		newRegisterValue = *CapSense_prtSelTbl[CapSense_SHIELD_PORT_NUMBER];
1287:.\Generated_Source\PSoC4/CapSense.c ****         newRegisterValue &= ~(CapSense_CSD_HSIOM_MASK << ((uint32)CapSense_SHIELD_PIN_NUMBER * CapS
1288:.\Generated_Source\PSoC4/CapSense.c ****         newRegisterValue |= (CapSense_CSD_SHIELD_PORT_MODE << ((uint32)CapSense_SHIELD_PIN_NUMBER *
1289:.\Generated_Source\PSoC4/CapSense.c ****         *CapSense_prtSelTbl[CapSense_SHIELD_PORT_NUMBER] = newRegisterValue;
1290:.\Generated_Source\PSoC4/CapSense.c **** 	#endif /* (0u != CapSense_IS_SHIELD_ENABLE) */	
1291:.\Generated_Source\PSoC4/CapSense.c **** }
1292:.\Generated_Source\PSoC4/CapSense.c **** 
1293:.\Generated_Source\PSoC4/CapSense.c **** 
1294:.\Generated_Source\PSoC4/CapSense.c **** /*******************************************************************************
1295:.\Generated_Source\PSoC4/CapSense.c **** * Function Name: CapSense_SetPinDriveMode
1296:.\Generated_Source\PSoC4/CapSense.c **** ********************************************************************************
1297:.\Generated_Source\PSoC4/CapSense.c **** *
1298:.\Generated_Source\PSoC4/CapSense.c **** * Summary:
1299:.\Generated_Source\PSoC4/CapSense.c **** * This API sets the drive mode for the appropriate port/pin.
1300:.\Generated_Source\PSoC4/CapSense.c **** *
1301:.\Generated_Source\PSoC4/CapSense.c **** * Parameters:
1302:.\Generated_Source\PSoC4/CapSense.c **** *  driveMode:  Drive mode definition.
1303:.\Generated_Source\PSoC4/CapSense.c **** *  portNumber: contains port number (0, 1, 2).
1304:.\Generated_Source\PSoC4/CapSense.c **** *  pinNumber: contains pin number (0, 1, 2, ... , 7).
1305:.\Generated_Source\PSoC4/CapSense.c **** *
1306:.\Generated_Source\PSoC4/CapSense.c **** * Return:
1307:.\Generated_Source\PSoC4/CapSense.c **** *  None
1308:.\Generated_Source\PSoC4/CapSense.c **** *
1309:.\Generated_Source\PSoC4/CapSense.c **** * Global Variables:
1310:.\Generated_Source\PSoC4/CapSense.c **** *  CapSense_prtSelTbl[] - Contains pointers to the HSIOM 
1311:.\Generated_Source\PSoC4/CapSense.c **** *  registers for each port. 
1312:.\Generated_Source\PSoC4/CapSense.c **** *  CapSense_prtCfgTb[] - Contains pointers to the port config 
1313:.\Generated_Source\PSoC4/CapSense.c **** *  registers for each port.
1314:.\Generated_Source\PSoC4/CapSense.c **** *
1315:.\Generated_Source\PSoC4/CapSense.c **** * Side Effects: 
1316:.\Generated_Source\PSoC4/CapSense.c **** *  This API is called only after CapSense component is stopped.
1317:.\Generated_Source\PSoC4/CapSense.c **** *
1318:.\Generated_Source\PSoC4/CapSense.c **** *******************************************************************************/
1319:.\Generated_Source\PSoC4/CapSense.c **** void CapSense_SetPinDriveMode(uint32 driveMode, uint32 pinNumber, uint32 portNumber)
1320:.\Generated_Source\PSoC4/CapSense.c **** {	
 554              		.loc 1 1320 0
ARM GAS  C:\Users\merlin\AppData\Local\Temp\ccZOZwzR.s 			page 34


 555              		.cfi_startproc
 556              	.LVL59:
 557 0000 10B5     		push	{r4, lr}
 558              		.cfi_def_cfa_offset 8
 559              		.cfi_offset 4, -8
 560              		.cfi_offset 14, -4
1321:.\Generated_Source\PSoC4/CapSense.c **** 	uint32  pinModeShift;
1322:.\Generated_Source\PSoC4/CapSense.c **** 	uint32 newRegisterValue;
1323:.\Generated_Source\PSoC4/CapSense.c **** 	
1324:.\Generated_Source\PSoC4/CapSense.c **** 	pinModeShift  = pinNumber * CapSense_PC_PIN_CFG_SIZE;
 561              		.loc 1 1324 0
 562 0002 4B00     		lsl	r3, r1, #1
 563 0004 5918     		add	r1, r3, r1
 564              	.LVL60:
1325:.\Generated_Source\PSoC4/CapSense.c **** 	
1326:.\Generated_Source\PSoC4/CapSense.c **** 	newRegisterValue = *CapSense_prtCfgTbl[portNumber];
 565              		.loc 1 1326 0
 566 0006 9200     		lsl	r2, r2, #2
 567              	.LVL61:
 568 0008 044B     		ldr	r3, .L39
 569 000a D458     		ldr	r4, [r2, r3]
 570 000c 2368     		ldr	r3, [r4]
 571              	.LVL62:
1327:.\Generated_Source\PSoC4/CapSense.c **** 	newRegisterValue &= ~(CapSense_CSD_PIN_MODE_MASK << pinModeShift);
 572              		.loc 1 1327 0
 573 000e 0722     		mov	r2, #7
 574 0010 8A40     		lsl	r2, r2, r1
 575 0012 9343     		bic	r3, r2
 576              	.LVL63:
1328:.\Generated_Source\PSoC4/CapSense.c **** 	newRegisterValue |=  (uint32)((uint32)driveMode << pinModeShift);
 577              		.loc 1 1328 0
 578 0014 8840     		lsl	r0, r0, r1
 579              	.LVL64:
 580 0016 1843     		orr	r0, r3
 581              	.LVL65:
1329:.\Generated_Source\PSoC4/CapSense.c ****     *CapSense_prtCfgTbl[portNumber] =  newRegisterValue;
 582              		.loc 1 1329 0
 583 0018 2060     		str	r0, [r4]
1330:.\Generated_Source\PSoC4/CapSense.c **** }
 584              		.loc 1 1330 0
 585              		@ sp needed
 586 001a 10BD     		pop	{r4, pc}
 587              	.L40:
 588              		.align	2
 589              	.L39:
 590 001c 00000000 		.word	.LANCHOR2
 591              		.cfi_endproc
 592              	.LFE53:
 593              		.size	CapSense_SetPinDriveMode, .-CapSense_SetPinDriveMode
 594              		.section	.text.CapSense_SetDriveModeAllPins,"ax",%progbits
 595              		.align	2
 596              		.global	CapSense_SetDriveModeAllPins
 597              		.code	16
 598              		.thumb_func
 599              		.type	CapSense_SetDriveModeAllPins, %function
 600              	CapSense_SetDriveModeAllPins:
 601              	.LFB51:
ARM GAS  C:\Users\merlin\AppData\Local\Temp\ccZOZwzR.s 			page 35


1195:.\Generated_Source\PSoC4/CapSense.c **** 	uint8 curSensor;
 602              		.loc 1 1195 0
 603              		.cfi_startproc
 604              	.LVL66:
 605 0000 38B5     		push	{r3, r4, r5, lr}
 606              		.cfi_def_cfa_offset 16
 607              		.cfi_offset 3, -16
 608              		.cfi_offset 4, -12
 609              		.cfi_offset 5, -8
 610              		.cfi_offset 14, -4
 611 0002 051C     		mov	r5, r0
 612              	.LVL67:
1204:.\Generated_Source\PSoC4/CapSense.c **** 	{	
 613              		.loc 1 1204 0
 614 0004 0024     		mov	r4, #0
 615 0006 06E0     		b	.L42
 616              	.LVL68:
 617              	.L43:
1230:.\Generated_Source\PSoC4/CapSense.c **** 	}
 618              		.loc 1 1230 0 discriminator 3
 619 0008 281C     		mov	r0, r5
 620 000a 0721     		mov	r1, #7
 621 000c 0322     		mov	r2, #3
 622 000e FFF7FEFF 		bl	CapSense_SetPinDriveMode
 623              	.LVL69:
1204:.\Generated_Source\PSoC4/CapSense.c **** 	{	
 624              		.loc 1 1204 0 discriminator 3
 625 0012 0134     		add	r4, r4, #1
 626              	.LVL70:
 627 0014 E4B2     		uxtb	r4, r4
 628              	.LVL71:
 629              	.L42:
1204:.\Generated_Source\PSoC4/CapSense.c **** 	{	
 630              		.loc 1 1204 0 is_stmt 0 discriminator 1
 631 0016 002C     		cmp	r4, #0
 632 0018 F6D0     		beq	.L43
1233:.\Generated_Source\PSoC4/CapSense.c **** 	
 633              		.loc 1 1233 0 is_stmt 1
 634 001a 281C     		mov	r0, r5
 635 001c 0221     		mov	r1, #2
 636 001e 0422     		mov	r2, #4
 637 0020 FFF7FEFF 		bl	CapSense_SetPinDriveMode
 638              	.LVL72:
1242:.\Generated_Source\PSoC4/CapSense.c **** 
 639              		.loc 1 1242 0
 640              		@ sp needed
 641              	.LVL73:
 642              	.LVL74:
 643 0024 38BD     		pop	{r3, r4, r5, pc}
 644              		.cfi_endproc
 645              	.LFE51:
 646              		.size	CapSense_SetDriveModeAllPins, .-CapSense_SetDriveModeAllPins
 647 0026 C046     		.section	.text.CapSense_RestoreDriveModeAllPins,"ax",%progbits
 648              		.align	2
 649              		.global	CapSense_RestoreDriveModeAllPins
 650              		.code	16
 651              		.thumb_func
ARM GAS  C:\Users\merlin\AppData\Local\Temp\ccZOZwzR.s 			page 36


 652              		.type	CapSense_RestoreDriveModeAllPins, %function
 653              	CapSense_RestoreDriveModeAllPins:
 654              	.LFB52:
1268:.\Generated_Source\PSoC4/CapSense.c **** 	uint32 newRegisterValue;
 655              		.loc 1 1268 0
 656              		.cfi_startproc
 657 0000 08B5     		push	{r3, lr}
 658              		.cfi_def_cfa_offset 8
 659              		.cfi_offset 3, -8
 660              		.cfi_offset 14, -4
1271:.\Generated_Source\PSoC4/CapSense.c **** 	
 661              		.loc 1 1271 0
 662 0002 0020     		mov	r0, #0
 663 0004 FFF7FEFF 		bl	CapSense_SetDriveModeAllPins
 664              	.LVL75:
1273:.\Generated_Source\PSoC4/CapSense.c ****     newRegisterValue &= ~(CapSense_CSD_CMOD_CONNECTION_MASK);
 665              		.loc 1 1273 0
 666 0008 044A     		ldr	r2, .L45
 667 000a 1168     		ldr	r1, [r2]
 668              	.LVL76:
1274:.\Generated_Source\PSoC4/CapSense.c ****     newRegisterValue |= CapSense_CSD_CMOD_TO_AMUXBUS_A;
 669              		.loc 1 1274 0
 670 000c 044B     		ldr	r3, .L45+4
 671 000e 0B40     		and	r3, r1
 672              	.LVL77:
1275:.\Generated_Source\PSoC4/CapSense.c ****     CapSense_CMOD_CONNECTION_REG = newRegisterValue;
 673              		.loc 1 1275 0
 674 0010 C021     		mov	r1, #192
 675 0012 C900     		lsl	r1, r1, #3
 676 0014 0B43     		orr	r3, r1
 677              	.LVL78:
1276:.\Generated_Source\PSoC4/CapSense.c **** 	
 678              		.loc 1 1276 0
 679 0016 1360     		str	r3, [r2]
1291:.\Generated_Source\PSoC4/CapSense.c **** 
 680              		.loc 1 1291 0
 681              		@ sp needed
 682 0018 08BD     		pop	{r3, pc}
 683              	.L46:
 684 001a C046     		.align	2
 685              	.L45:
 686 001c 00040240 		.word	1073873920
 687 0020 FFF0FFFF 		.word	-3841
 688              		.cfi_endproc
 689              	.LFE52:
 690              		.size	CapSense_RestoreDriveModeAllPins, .-CapSense_RestoreDriveModeAllPins
 691              		.section	.text.CapSense_PreScan,"ax",%progbits
 692              		.align	2
 693              		.global	CapSense_PreScan
 694              		.code	16
 695              		.thumb_func
 696              		.type	CapSense_PreScan, %function
 697              	CapSense_PreScan:
 698              	.LFB54:
1331:.\Generated_Source\PSoC4/CapSense.c **** 
1332:.\Generated_Source\PSoC4/CapSense.c **** 
1333:.\Generated_Source\PSoC4/CapSense.c **** /*******************************************************************************
ARM GAS  C:\Users\merlin\AppData\Local\Temp\ccZOZwzR.s 			page 37


1334:.\Generated_Source\PSoC4/CapSense.c **** * Function Name: CapSense_PreScan
1335:.\Generated_Source\PSoC4/CapSense.c **** ********************************************************************************
1336:.\Generated_Source\PSoC4/CapSense.c **** *
1337:.\Generated_Source\PSoC4/CapSense.c **** * Summary:
1338:.\Generated_Source\PSoC4/CapSense.c **** *  Sets required settings, enables a sensor, removes Vref from AMUX and starts the 
1339:.\Generated_Source\PSoC4/CapSense.c **** *  scanning process of the sensor.
1340:.\Generated_Source\PSoC4/CapSense.c **** *
1341:.\Generated_Source\PSoC4/CapSense.c **** * Parameters:
1342:.\Generated_Source\PSoC4/CapSense.c **** *  sensor:  Sensor number.
1343:.\Generated_Source\PSoC4/CapSense.c **** *
1344:.\Generated_Source\PSoC4/CapSense.c **** * Return:
1345:.\Generated_Source\PSoC4/CapSense.c **** *  None
1346:.\Generated_Source\PSoC4/CapSense.c **** *
1347:.\Generated_Source\PSoC4/CapSense.c **** * Global Variables:
1348:.\Generated_Source\PSoC4/CapSense.c **** * CapSense_widgetNumber[] - This array contains numbers of widgets for each sensor.
1349:.\Generated_Source\PSoC4/CapSense.c **** * CapSense_widgetResolution[] - Contains the widget resolution.
1350:.\Generated_Source\PSoC4/CapSense.c **** *
1351:.\Generated_Source\PSoC4/CapSense.c **** * Side Effects: 
1352:.\Generated_Source\PSoC4/CapSense.c **** *  None
1353:.\Generated_Source\PSoC4/CapSense.c **** *
1354:.\Generated_Source\PSoC4/CapSense.c **** *******************************************************************************/
1355:.\Generated_Source\PSoC4/CapSense.c **** void CapSense_PreScan(uint32 sensor)
1356:.\Generated_Source\PSoC4/CapSense.c **** {
 699              		.loc 1 1356 0
 700              		.cfi_startproc
 701              	.LVL79:
 702 0000 F8B5     		push	{r3, r4, r5, r6, r7, lr}
 703              		.cfi_def_cfa_offset 24
 704              		.cfi_offset 3, -24
 705              		.cfi_offset 4, -20
 706              		.cfi_offset 5, -16
 707              		.cfi_offset 6, -12
 708              		.cfi_offset 7, -8
 709              		.cfi_offset 14, -4
 710 0002 051C     		mov	r5, r0
 711              	.LVL80:
1357:.\Generated_Source\PSoC4/CapSense.c ****     uint8 widget;
1358:.\Generated_Source\PSoC4/CapSense.c ****     uint8 interruptState;
1359:.\Generated_Source\PSoC4/CapSense.c **** 	uint32 newRegValue;
1360:.\Generated_Source\PSoC4/CapSense.c **** 	uint32 counterResolution;
1361:.\Generated_Source\PSoC4/CapSense.c **** 	
1362:.\Generated_Source\PSoC4/CapSense.c **** 	#if(CapSense_PRS_OPTIONS == CapSense__PRS_AUTO)
1363:.\Generated_Source\PSoC4/CapSense.c **** 		uint8 senseClkDivMath;
1364:.\Generated_Source\PSoC4/CapSense.c **** 		uint8 sampleClkDivMath;
1365:.\Generated_Source\PSoC4/CapSense.c **** 	#endif /* (CapSense_PRS_OPTIONS == CapSense__PRS_AUTO) */	
1366:.\Generated_Source\PSoC4/CapSense.c **** 	
1367:.\Generated_Source\PSoC4/CapSense.c **** 	#if ((CapSense_TUNING_METHOD == CapSense__TUNING_AUTO) &&\
1368:.\Generated_Source\PSoC4/CapSense.c **** 		 (0 != CapSense_IS_OVERSAMPLING_EN))
1369:.\Generated_Source\PSoC4/CapSense.c **** 		uint32 oversamplingFactor;
1370:.\Generated_Source\PSoC4/CapSense.c **** 	#endif /* ((CapSense_TUNING_METHOD == CapSense__TUNING_AUTO) &&\
1371:.\Generated_Source\PSoC4/CapSense.c **** 	           (0 != CapSense_IS_OVERSAMPLING_EN)) */
1372:.\Generated_Source\PSoC4/CapSense.c **** 
1373:.\Generated_Source\PSoC4/CapSense.c ****     /* Define widget sensor belongs to */
1374:.\Generated_Source\PSoC4/CapSense.c ****     widget = CapSense_widgetNumber[sensor];
1375:.\Generated_Source\PSoC4/CapSense.c **** 
1376:.\Generated_Source\PSoC4/CapSense.c **** 	/* Recalculate Counter Resolution to MSB 16 bits */
1377:.\Generated_Source\PSoC4/CapSense.c **** 	counterResolution = CapSense_widgetResolution[widget];
ARM GAS  C:\Users\merlin\AppData\Local\Temp\ccZOZwzR.s 			page 38


 712              		.loc 1 1377 0
 713 0004 244C     		ldr	r4, .L48
 714 0006 2768     		ldr	r7, [r4]
 715              	.LVL81:
1378:.\Generated_Source\PSoC4/CapSense.c **** 	
1379:.\Generated_Source\PSoC4/CapSense.c **** 	#if ((CapSense_TUNING_METHOD == CapSense__TUNING_AUTO) &&\
1380:.\Generated_Source\PSoC4/CapSense.c **** 		 (0 != CapSense_IS_OVERSAMPLING_EN))
1381:.\Generated_Source\PSoC4/CapSense.c **** 	    oversamplingFactor = CapSense_GetBitValue(scanSpeedTbl, sensor);
1382:.\Generated_Source\PSoC4/CapSense.c **** 
1383:.\Generated_Source\PSoC4/CapSense.c **** 		if(counterResolution < CapSense_RESOLUTION_16_BITS)
1384:.\Generated_Source\PSoC4/CapSense.c **** 		{
1385:.\Generated_Source\PSoC4/CapSense.c **** 			counterResolution <<= oversamplingFactor;
1386:.\Generated_Source\PSoC4/CapSense.c **** 			counterResolution |= (uint32)(CapSense_RESOLUTION_8_BITS);
1387:.\Generated_Source\PSoC4/CapSense.c **** 		}
1388:.\Generated_Source\PSoC4/CapSense.c **** 	#endif /* ((CapSense_TUNING_METHOD == CapSense__TUNING_AUTO) &&\
1389:.\Generated_Source\PSoC4/CapSense.c **** 	           (0 != CapSense_IS_OVERSAMPLING_EN)) */
1390:.\Generated_Source\PSoC4/CapSense.c **** 	
1391:.\Generated_Source\PSoC4/CapSense.c **** 	#if (0u != CapSense_IS_M0S8PERI_BLOCK)
1392:.\Generated_Source\PSoC4/CapSense.c **** 		CapSense_SenseClk_Stop();
 716              		.loc 1 1392 0
 717 0008 FFF7FEFF 		bl	CapSense_SenseClk_Stop
 718              	.LVL82:
1393:.\Generated_Source\PSoC4/CapSense.c **** 		CapSense_SampleClk_Stop();
 719              		.loc 1 1393 0
 720 000c FFF7FEFF 		bl	CapSense_SampleClk_Stop
 721              	.LVL83:
1394:.\Generated_Source\PSoC4/CapSense.c **** 	#endif /* (0u != CapSense_IS_M0S8PERI_BLOCK) */
1395:.\Generated_Source\PSoC4/CapSense.c **** 
1396:.\Generated_Source\PSoC4/CapSense.c **** 	#if (0u != CapSense_MULTIPLE_FREQUENCY_SET)
1397:.\Generated_Source\PSoC4/CapSense.c **** 		CapSense_SampleClk_SetDividerValue((uint16)CapSense_sampleClkDividerVal[sensor]);
 722              		.loc 1 1397 0
 723 0010 6419     		add	r4, r4, r5
 724 0012 2079     		ldrb	r0, [r4, #4]
 725 0014 0138     		sub	r0, r0, #1
 726 0016 80B2     		uxth	r0, r0
 727 0018 0021     		mov	r1, #0
 728 001a FFF7FEFF 		bl	CapSense_SampleClk_SetFractionalDividerRegister
 729              	.LVL84:
1398:.\Generated_Source\PSoC4/CapSense.c **** 		CapSense_SenseClk_SetDividerValue((uint16)CapSense_senseClkDividerVal[sensor]);
 730              		.loc 1 1398 0
 731 001e 207A     		ldrb	r0, [r4, #8]
 732 0020 0138     		sub	r0, r0, #1
 733 0022 80B2     		uxth	r0, r0
 734 0024 0021     		mov	r1, #0
 735 0026 FFF7FEFF 		bl	CapSense_SenseClk_SetFractionalDividerRegister
 736              	.LVL85:
1399:.\Generated_Source\PSoC4/CapSense.c **** 	#else
1400:.\Generated_Source\PSoC4/CapSense.c **** 		CapSense_SampleClk_SetDividerValue((uint16)CapSense_sampleClkDividerVal);
1401:.\Generated_Source\PSoC4/CapSense.c **** 		CapSense_SenseClk_SetDividerValue((uint16)CapSense_senseClkDividerVal);
1402:.\Generated_Source\PSoC4/CapSense.c **** 	#endif /* (0u != CapSense_MULTIPLE_FREQUENCY_SET) */
1403:.\Generated_Source\PSoC4/CapSense.c **** 
1404:.\Generated_Source\PSoC4/CapSense.c **** 	#if (0u != CapSense_IS_M0S8PERI_BLOCK)
1405:.\Generated_Source\PSoC4/CapSense.c **** 		CapSense_SampleClk_Start();
 737              		.loc 1 1405 0
 738 002a FF20     		mov	r0, #255
 739 002c FFF7FEFF 		bl	CapSense_SampleClk_StartEx
 740              	.LVL86:
ARM GAS  C:\Users\merlin\AppData\Local\Temp\ccZOZwzR.s 			page 39


1406:.\Generated_Source\PSoC4/CapSense.c **** 		CapSense_SenseClk_StartEx(CapSense_SampleClk__DIV_ID);
 741              		.loc 1 1406 0
 742 0030 4020     		mov	r0, #64
 743 0032 FFF7FEFF 		bl	CapSense_SenseClk_StartEx
 744              	.LVL87:
1407:.\Generated_Source\PSoC4/CapSense.c **** 		
1408:.\Generated_Source\PSoC4/CapSense.c **** 		#if(CapSense_PRS_OPTIONS == CapSense__PRS_NONE)
1409:.\Generated_Source\PSoC4/CapSense.c **** 			CyIntDisable(CapSense_ISR_NUMBER);
1410:.\Generated_Source\PSoC4/CapSense.c **** 			CapSense_CSD_CNT_REG = CapSense_ONE_CYCLE;
1411:.\Generated_Source\PSoC4/CapSense.c **** 			while(0u != (CapSense_CSD_CNT_REG & CapSense_RESOLUTION_16_BITS))
1412:.\Generated_Source\PSoC4/CapSense.c **** 			{
1413:.\Generated_Source\PSoC4/CapSense.c **** 			/* Wait until scanning is complete */ 
1414:.\Generated_Source\PSoC4/CapSense.c **** 			}
1415:.\Generated_Source\PSoC4/CapSense.c **** 			CapSense_CSD_INTR_REG = 1u;
1416:.\Generated_Source\PSoC4/CapSense.c **** 			CyIntClearPending(CapSense_ISR_NUMBER);
1417:.\Generated_Source\PSoC4/CapSense.c **** 			CyIntEnable(CapSense_ISR_NUMBER); 
1418:.\Generated_Source\PSoC4/CapSense.c **** 		#endif /* CapSense_PRS_OPTIONS == CapSense__PRS_NONE */
1419:.\Generated_Source\PSoC4/CapSense.c **** 	#endif /* (0u != CapSense_IS_M0S8PERI_BLOCK) */
1420:.\Generated_Source\PSoC4/CapSense.c **** 
1421:.\Generated_Source\PSoC4/CapSense.c **** #if(CapSense_PRS_OPTIONS != CapSense__PRS_NONE)
1422:.\Generated_Source\PSoC4/CapSense.c **** 
1423:.\Generated_Source\PSoC4/CapSense.c **** 	#if(CapSense_TUNING_METHOD == CapSense__TUNING_AUTO)
1424:.\Generated_Source\PSoC4/CapSense.c **** 		if(CapSense_prescalersTuningDone != 0u)
1425:.\Generated_Source\PSoC4/CapSense.c **** 		{
1426:.\Generated_Source\PSoC4/CapSense.c **** 	#endif /* (CapSense_TUNING_METHOD == CapSense__TUNING_AUTO) */
1427:.\Generated_Source\PSoC4/CapSense.c **** 			
1428:.\Generated_Source\PSoC4/CapSense.c **** 			CyIntDisable(CapSense_ISR_NUMBER);
 745              		.loc 1 1428 0
 746 0036 1120     		mov	r0, #17
 747 0038 FFF7FEFF 		bl	CyIntDisable
 748              	.LVL88:
1429:.\Generated_Source\PSoC4/CapSense.c **** 			
1430:.\Generated_Source\PSoC4/CapSense.c **** 			newRegValue = CapSense_CSD_CFG_REG;
 749              		.loc 1 1430 0
 750 003c 174E     		ldr	r6, .L48+4
 751 003e 3268     		ldr	r2, [r6]
 752              	.LVL89:
1431:.\Generated_Source\PSoC4/CapSense.c **** 			newRegValue |= CapSense_CSD_CFG_PRS_SELECT;
 753              		.loc 1 1431 0
 754 0040 4023     		mov	r3, #64
 755 0042 1343     		orr	r3, r2
 756              	.LVL90:
1432:.\Generated_Source\PSoC4/CapSense.c **** 			
1433:.\Generated_Source\PSoC4/CapSense.c **** 			#if(CapSense_PRS_OPTIONS == CapSense__PRS_AUTO)
1434:.\Generated_Source\PSoC4/CapSense.c **** 				
1435:.\Generated_Source\PSoC4/CapSense.c **** 				newRegValue &= ~(CapSense_PRS_MODE_MASK);
1436:.\Generated_Source\PSoC4/CapSense.c **** 				
1437:.\Generated_Source\PSoC4/CapSense.c **** 				#if (0u != CapSense_MULTIPLE_FREQUENCY_SET)
1438:.\Generated_Source\PSoC4/CapSense.c **** 					senseClkDivMath = CapSense_senseClkDividerVal[sensor];
1439:.\Generated_Source\PSoC4/CapSense.c **** 					sampleClkDivMath = CapSense_sampleClkDividerVal[sensor];
1440:.\Generated_Source\PSoC4/CapSense.c **** 				#else
1441:.\Generated_Source\PSoC4/CapSense.c **** 					senseClkDivMath = CapSense_senseClkDividerVal;
1442:.\Generated_Source\PSoC4/CapSense.c **** 					sampleClkDivMath = CapSense_sampleClkDividerVal;
1443:.\Generated_Source\PSoC4/CapSense.c **** 				#endif /* ( CapSense_MULTIPLE_FREQUENCY_SET) */
1444:.\Generated_Source\PSoC4/CapSense.c **** 				
1445:.\Generated_Source\PSoC4/CapSense.c **** 				#if(0u == CapSense_IS_M0S8PERI_BLOCK)
1446:.\Generated_Source\PSoC4/CapSense.c **** 					senseClkDivMath *= sampleClkDivMath;
ARM GAS  C:\Users\merlin\AppData\Local\Temp\ccZOZwzR.s 			page 40


1447:.\Generated_Source\PSoC4/CapSense.c **** 				#endif /* (0u == CapSense_IS_M0S8PERI_BLOCK) */	
1448:.\Generated_Source\PSoC4/CapSense.c **** 				
1449:.\Generated_Source\PSoC4/CapSense.c **** 				if((senseClkDivMath * CapSense_RESOLUTION_12_BITS) <
1450:.\Generated_Source\PSoC4/CapSense.c **** 				   (sampleClkDivMath * CapSense_widgetResolution[widget]))
1451:.\Generated_Source\PSoC4/CapSense.c **** 				{
1452:.\Generated_Source\PSoC4/CapSense.c **** 					newRegValue |= CapSense_CSD_PRS_12_BIT;
1453:.\Generated_Source\PSoC4/CapSense.c **** 				}
1454:.\Generated_Source\PSoC4/CapSense.c **** 			#endif /* (CapSense_PRS_OPTIONS == CapSense__PRS_AUTO) */
1455:.\Generated_Source\PSoC4/CapSense.c **** 			
1456:.\Generated_Source\PSoC4/CapSense.c **** 			CapSense_CSD_CFG_REG = newRegValue;
 757              		.loc 1 1456 0
 758 0044 3360     		str	r3, [r6]
1457:.\Generated_Source\PSoC4/CapSense.c **** 			
1458:.\Generated_Source\PSoC4/CapSense.c **** 			CyIntEnable(CapSense_ISR_NUMBER);
 759              		.loc 1 1458 0
 760 0046 1120     		mov	r0, #17
 761 0048 FFF7FEFF 		bl	CyIntEnable
 762              	.LVL91:
1459:.\Generated_Source\PSoC4/CapSense.c **** 			
1460:.\Generated_Source\PSoC4/CapSense.c **** 	#if(CapSense_TUNING_METHOD == CapSense__TUNING_AUTO)	
1461:.\Generated_Source\PSoC4/CapSense.c **** 		}
1462:.\Generated_Source\PSoC4/CapSense.c **** 	#endif /* (CapSense_PRS_OPTIONS != CapSense__PRS_NONE) */
1463:.\Generated_Source\PSoC4/CapSense.c **** 
1464:.\Generated_Source\PSoC4/CapSense.c **** #endif /* (CapSense_PRS_OPTIONS == CapSense__PRS_NONE) */
1465:.\Generated_Source\PSoC4/CapSense.c **** 	
1466:.\Generated_Source\PSoC4/CapSense.c **** 	/* Set Idac Value */
1467:.\Generated_Source\PSoC4/CapSense.c **** 	CyIntDisable(CapSense_ISR_NUMBER);
 763              		.loc 1 1467 0
 764 004c 1120     		mov	r0, #17
 765 004e FFF7FEFF 		bl	CyIntDisable
 766              	.LVL92:
1468:.\Generated_Source\PSoC4/CapSense.c ****     newRegValue = CapSense_CSD_IDAC_REG;
 767              		.loc 1 1468 0
 768 0052 1349     		ldr	r1, .L48+8
 769 0054 0A68     		ldr	r2, [r1]
 770              	.LVL93:
1469:.\Generated_Source\PSoC4/CapSense.c ****  
1470:.\Generated_Source\PSoC4/CapSense.c **** #if (CapSense_IDAC_CNT == 1u)    
1471:.\Generated_Source\PSoC4/CapSense.c **** 	newRegValue &= ~(CapSense_CSD_IDAC1_DATA_MASK);
1472:.\Generated_Source\PSoC4/CapSense.c **** 	newRegValue |= CapSense_modulationIDAC[sensor];
1473:.\Generated_Source\PSoC4/CapSense.c **** #else
1474:.\Generated_Source\PSoC4/CapSense.c **** 	newRegValue &= ~(CapSense_CSD_IDAC1_DATA_MASK | CapSense_CSD_IDAC2_DATA_MASK);
 771              		.loc 1 1474 0
 772 0056 134B     		ldr	r3, .L48+12
 773 0058 1A40     		and	r2, r3
 774              	.LVL94:
1475:.\Generated_Source\PSoC4/CapSense.c **** 	newRegValue |= (CapSense_modulationIDAC[sensor] | 
 775              		.loc 1 1475 0
 776 005a 207B     		ldrb	r0, [r4, #12]
1476:.\Generated_Source\PSoC4/CapSense.c **** 							(uint32)((uint32)CapSense_compensationIDAC[sensor] <<
 777              		.loc 1 1476 0
 778 005c 237C     		ldrb	r3, [r4, #16]
 779 005e 1B04     		lsl	r3, r3, #16
1475:.\Generated_Source\PSoC4/CapSense.c **** 	newRegValue |= (CapSense_modulationIDAC[sensor] | 
 780              		.loc 1 1475 0
 781 0060 0343     		orr	r3, r0
 782 0062 1343     		orr	r3, r2
ARM GAS  C:\Users\merlin\AppData\Local\Temp\ccZOZwzR.s 			page 41


 783              	.LVL95:
1477:.\Generated_Source\PSoC4/CapSense.c **** 							CapSense_CSD_IDAC2_DATA_OFFSET));                               
1478:.\Generated_Source\PSoC4/CapSense.c **** #endif /* (CapSense_IDAC_CNT == 1u) */
1479:.\Generated_Source\PSoC4/CapSense.c **** 	
1480:.\Generated_Source\PSoC4/CapSense.c **** 	CapSense_CSD_IDAC_REG = newRegValue;
 784              		.loc 1 1480 0
 785 0064 0B60     		str	r3, [r1]
1481:.\Generated_Source\PSoC4/CapSense.c **** 
1482:.\Generated_Source\PSoC4/CapSense.c **** #if(CapSense_CMOD_PREGARGE_OPTION == CapSense__CAPPRIOBUF)
1483:.\Generated_Source\PSoC4/CapSense.c **** 	newRegValue = CapSense_CMOD_CONNECTION_REG;
1484:.\Generated_Source\PSoC4/CapSense.c **** 	newRegValue &= ~(CapSense_CSD_CMOD_CONNECTION_MASK);
1485:.\Generated_Source\PSoC4/CapSense.c **** 	newRegValue |= CapSense_CSD_CMOD_TO_AMUXBUS_A;
1486:.\Generated_Source\PSoC4/CapSense.c **** 	CapSense_CMOD_CONNECTION_REG = newRegValue;
1487:.\Generated_Source\PSoC4/CapSense.c **** 	
1488:.\Generated_Source\PSoC4/CapSense.c **** 	newRegValue = CapSense_CMOD_PORT_PC_REG;
1489:.\Generated_Source\PSoC4/CapSense.c **** 	newRegValue &= ~(CapSense_CSD_CMOD_PC_MASK);
1490:.\Generated_Source\PSoC4/CapSense.c **** 	newRegValue |= CapSense_CMOD_PC_HIGH_Z_MODE;
1491:.\Generated_Source\PSoC4/CapSense.c **** 	CapSense_CMOD_PORT_PC_REG = newRegValue;
1492:.\Generated_Source\PSoC4/CapSense.c **** #endif /* (CapSense_CMOD_PREGARGE_OPTION == CapSense__CAPPRIOBUF) */
1493:.\Generated_Source\PSoC4/CapSense.c **** 
1494:.\Generated_Source\PSoC4/CapSense.c ****     /* Disconnect Vref Buffer from AMUX */
1495:.\Generated_Source\PSoC4/CapSense.c **** 	newRegValue = CapSense_CSD_CFG_REG;
 786              		.loc 1 1495 0
 787 0066 3468     		ldr	r4, [r6]
 788              	.LVL96:
1496:.\Generated_Source\PSoC4/CapSense.c **** 	newRegValue &= ~(CapSense_PRECHARGE_CONFIG_MASK);
 789              		.loc 1 1496 0
 790 0068 0F4B     		ldr	r3, .L48+16
 791 006a 1C40     		and	r4, r3
 792              	.LVL97:
1497:.\Generated_Source\PSoC4/CapSense.c **** 	newRegValue |= CapSense_CTANK_PRECHARGE_CONFIG;
 793              		.loc 1 1497 0
 794 006c 0F4B     		ldr	r3, .L48+20
 795 006e 1C43     		orr	r4, r3
 796              	.LVL98:
1498:.\Generated_Source\PSoC4/CapSense.c **** 	
1499:.\Generated_Source\PSoC4/CapSense.c **** 	CyIntEnable(CapSense_ISR_NUMBER);
 797              		.loc 1 1499 0
 798 0070 1120     		mov	r0, #17
 799 0072 FFF7FEFF 		bl	CyIntEnable
 800              	.LVL99:
1500:.\Generated_Source\PSoC4/CapSense.c **** 	
1501:.\Generated_Source\PSoC4/CapSense.c ****     /* Enable Sensor */
1502:.\Generated_Source\PSoC4/CapSense.c ****     CapSense_EnableScanSlot(sensor);
 801              		.loc 1 1502 0
 802 0076 281C     		mov	r0, r5
 803 0078 FFF7FEFF 		bl	CapSense_EnableSensor
 804              	.LVL100:
1503:.\Generated_Source\PSoC4/CapSense.c ****     
1504:.\Generated_Source\PSoC4/CapSense.c **** 	interruptState = CyEnterCriticalSection();
 805              		.loc 1 1504 0
 806 007c FFF7FEFF 		bl	CyEnterCriticalSection
 807              	.LVL101:
 808 0080 051C     		mov	r5, r0
 809              	.LVL102:
1505:.\Generated_Source\PSoC4/CapSense.c **** 	CapSense_CSD_CFG_REG = newRegValue;
 810              		.loc 1 1505 0
ARM GAS  C:\Users\merlin\AppData\Local\Temp\ccZOZwzR.s 			page 42


 811 0082 3460     		str	r4, [r6]
1506:.\Generated_Source\PSoC4/CapSense.c **** 	
1507:.\Generated_Source\PSoC4/CapSense.c **** 	/* `#START CapSense_PreSettlingDelay_Debug` */
1508:.\Generated_Source\PSoC4/CapSense.c **** 
1509:.\Generated_Source\PSoC4/CapSense.c **** 	/* `#END` */
1510:.\Generated_Source\PSoC4/CapSense.c **** 	
1511:.\Generated_Source\PSoC4/CapSense.c **** 	CyDelayCycles(CapSense_GLITCH_ELIMINATION_CYCLES);
 812              		.loc 1 1511 0
 813 0084 0020     		mov	r0, #0
 814 0086 FFF7FEFF 		bl	CyDelayCycles
 815              	.LVL103:
1512:.\Generated_Source\PSoC4/CapSense.c **** 	
1513:.\Generated_Source\PSoC4/CapSense.c **** 	/* `#START CapSense_PreScan_Debug` */
1514:.\Generated_Source\PSoC4/CapSense.c **** 
1515:.\Generated_Source\PSoC4/CapSense.c **** 	/* `#END` */
1516:.\Generated_Source\PSoC4/CapSense.c **** 	
1517:.\Generated_Source\PSoC4/CapSense.c ****     CapSense_CSD_CNT_REG = counterResolution;
 816              		.loc 1 1517 0
 817 008a 094B     		ldr	r3, .L48+24
 818 008c 1F60     		str	r7, [r3]
1518:.\Generated_Source\PSoC4/CapSense.c ****     CyExitCriticalSection(interruptState);
 819              		.loc 1 1518 0
 820 008e 281C     		mov	r0, r5
 821 0090 FFF7FEFF 		bl	CyExitCriticalSection
 822              	.LVL104:
1519:.\Generated_Source\PSoC4/CapSense.c **** }
 823              		.loc 1 1519 0
 824              		@ sp needed
 825              	.LVL105:
 826              	.LVL106:
 827              	.LVL107:
 828 0094 F8BD     		pop	{r3, r4, r5, r6, r7, pc}
 829              	.L49:
 830 0096 C046     		.align	2
 831              	.L48:
 832 0098 00000000 		.word	.LANCHOR1
 833 009c 04002840 		.word	1076363268
 834 00a0 08002840 		.word	1076363272
 835 00a4 00FF80FF 		.word	-8323328
 836 00a8 FF1FDFFF 		.word	-2154497
 837 00ac 20002000 		.word	2097184
 838 00b0 0C002840 		.word	1076363276
 839              		.cfi_endproc
 840              	.LFE54:
 841              		.size	CapSense_PreScan, .-CapSense_PreScan
 842              		.section	.text.CapSense_ScanSensor,"ax",%progbits
 843              		.align	2
 844              		.global	CapSense_ScanSensor
 845              		.code	16
 846              		.thumb_func
 847              		.type	CapSense_ScanSensor, %function
 848              	CapSense_ScanSensor:
 849              	.LFB40:
 575:.\Generated_Source\PSoC4/CapSense.c ****     /* Clears status/control variable and set sensorIndex */
 850              		.loc 1 575 0
 851              		.cfi_startproc
 852              	.LVL108:
ARM GAS  C:\Users\merlin\AppData\Local\Temp\ccZOZwzR.s 			page 43


 853 0000 08B5     		push	{r3, lr}
 854              		.cfi_def_cfa_offset 8
 855              		.cfi_offset 3, -8
 856              		.cfi_offset 14, -4
 577:.\Generated_Source\PSoC4/CapSense.c ****     CapSense_sensorIndex = (uint8)sensor;
 857              		.loc 1 577 0
 858 0002 054B     		ldr	r3, .L51
 859 0004 0022     		mov	r2, #0
 860 0006 1A70     		strb	r2, [r3]
 578:.\Generated_Source\PSoC4/CapSense.c ****     
 861              		.loc 1 578 0
 862 0008 C2B2     		uxtb	r2, r0
 863 000a 9A71     		strb	r2, [r3, #6]
 581:.\Generated_Source\PSoC4/CapSense.c ****     CapSense_PreScan(sensor);
 864              		.loc 1 581 0
 865 000c 8122     		mov	r2, #129
 866 000e 1A70     		strb	r2, [r3]
 582:.\Generated_Source\PSoC4/CapSense.c **** }
 867              		.loc 1 582 0
 868 0010 FFF7FEFF 		bl	CapSense_PreScan
 869              	.LVL109:
 583:.\Generated_Source\PSoC4/CapSense.c **** 
 870              		.loc 1 583 0
 871              		@ sp needed
 872 0014 08BD     		pop	{r3, pc}
 873              	.L52:
 874 0016 C046     		.align	2
 875              	.L51:
 876 0018 00000000 		.word	.LANCHOR0
 877              		.cfi_endproc
 878              	.LFE40:
 879              		.size	CapSense_ScanSensor, .-CapSense_ScanSensor
 880              		.section	.text.CapSense_PostScan,"ax",%progbits
 881              		.align	2
 882              		.global	CapSense_PostScan
 883              		.code	16
 884              		.thumb_func
 885              		.type	CapSense_PostScan, %function
 886              	CapSense_PostScan:
 887              	.LFB55:
1520:.\Generated_Source\PSoC4/CapSense.c **** 
1521:.\Generated_Source\PSoC4/CapSense.c **** 
1522:.\Generated_Source\PSoC4/CapSense.c **** /*******************************************************************************
1523:.\Generated_Source\PSoC4/CapSense.c **** * Function Name: CapSense_PostScan
1524:.\Generated_Source\PSoC4/CapSense.c **** ********************************************************************************
1525:.\Generated_Source\PSoC4/CapSense.c **** *
1526:.\Generated_Source\PSoC4/CapSense.c **** * Summary:
1527:.\Generated_Source\PSoC4/CapSense.c **** *  Stores the results of measurement in the CapSense_sensorRaw[] array,
1528:.\Generated_Source\PSoC4/CapSense.c **** *  sets the scanning sensor in the non-sampling state, turns off Idac(Current Source IDAC),
1529:.\Generated_Source\PSoC4/CapSense.c **** *  disconnects the IDAC(Sink mode), and applies Vref on AMUX.
1530:.\Generated_Source\PSoC4/CapSense.c **** *
1531:.\Generated_Source\PSoC4/CapSense.c **** * Parameters:
1532:.\Generated_Source\PSoC4/CapSense.c **** *  sensor:  Sensor number.
1533:.\Generated_Source\PSoC4/CapSense.c **** *
1534:.\Generated_Source\PSoC4/CapSense.c **** * Return:
1535:.\Generated_Source\PSoC4/CapSense.c **** *  None
1536:.\Generated_Source\PSoC4/CapSense.c **** *
ARM GAS  C:\Users\merlin\AppData\Local\Temp\ccZOZwzR.s 			page 44


1537:.\Generated_Source\PSoC4/CapSense.c **** * Global Variables:
1538:.\Generated_Source\PSoC4/CapSense.c **** *  CapSense_sensorRaw[] - used to store sensors raw data.
1539:.\Generated_Source\PSoC4/CapSense.c **** *
1540:.\Generated_Source\PSoC4/CapSense.c **** * Side Effects: 
1541:.\Generated_Source\PSoC4/CapSense.c **** *  None
1542:.\Generated_Source\PSoC4/CapSense.c **** *
1543:.\Generated_Source\PSoC4/CapSense.c **** *******************************************************************************/
1544:.\Generated_Source\PSoC4/CapSense.c **** void CapSense_PostScan(uint32 sensor)
1545:.\Generated_Source\PSoC4/CapSense.c **** {	
 888              		.loc 1 1545 0
 889              		.cfi_startproc
 890              	.LVL110:
 891 0000 08B5     		push	{r3, lr}
 892              		.cfi_def_cfa_offset 8
 893              		.cfi_offset 3, -8
 894              		.cfi_offset 14, -4
1546:.\Generated_Source\PSoC4/CapSense.c **** 	uint32 newRegValue;
1547:.\Generated_Source\PSoC4/CapSense.c **** #if ((CapSense_TUNING_METHOD == CapSense__TUNING_AUTO) &&\
1548:.\Generated_Source\PSoC4/CapSense.c **** 	 (0 != CapSense_IS_OVERSAMPLING_EN))
1549:.\Generated_Source\PSoC4/CapSense.c ****     uint32 oversamplingFactor;
1550:.\Generated_Source\PSoC4/CapSense.c ****     uint32 widget;
1551:.\Generated_Source\PSoC4/CapSense.c **** #endif /* ((CapSense_TUNING_METHOD == CapSense__TUNING_AUTO) &&\
1552:.\Generated_Source\PSoC4/CapSense.c **** 		   (0 != CapSense_IS_OVERSAMPLING_EN)) */	
1553:.\Generated_Source\PSoC4/CapSense.c **** 
1554:.\Generated_Source\PSoC4/CapSense.c **** 	/* `#START CapSense_PostScan_Debug` */
1555:.\Generated_Source\PSoC4/CapSense.c **** 
1556:.\Generated_Source\PSoC4/CapSense.c **** 	/* `#END` */
1557:.\Generated_Source\PSoC4/CapSense.c **** 
1558:.\Generated_Source\PSoC4/CapSense.c **** 
1559:.\Generated_Source\PSoC4/CapSense.c ****     /* Read SlotResult from Raw Counter */
1560:.\Generated_Source\PSoC4/CapSense.c ****     CapSense_sensorRaw[sensor]  = (uint16)CapSense_CSD_CNT_REG;
 895              		.loc 1 1560 0
 896 0002 0E4B     		ldr	r3, .L54
 897 0004 1A68     		ldr	r2, [r3]
 898 0006 4300     		lsl	r3, r0, #1
 899 0008 0D49     		ldr	r1, .L54+4
 900 000a CB18     		add	r3, r1, r3
 901 000c 9A80     		strh	r2, [r3, #4]
1561:.\Generated_Source\PSoC4/CapSense.c **** 	
1562:.\Generated_Source\PSoC4/CapSense.c **** #if ((CapSense_TUNING_METHOD == CapSense__TUNING_AUTO) &&\
1563:.\Generated_Source\PSoC4/CapSense.c **** 	 (0 != CapSense_IS_OVERSAMPLING_EN))
1564:.\Generated_Source\PSoC4/CapSense.c **** 	widget = CapSense_widgetNumber[sensor];
1565:.\Generated_Source\PSoC4/CapSense.c **** 	if(CapSense_widgetResolution[widget] < CapSense_RESOLUTION_16_BITS)
1566:.\Generated_Source\PSoC4/CapSense.c **** 	{
1567:.\Generated_Source\PSoC4/CapSense.c **** 		oversamplingFactor = CapSense_GetBitValue(scanSpeedTbl, sensor);
1568:.\Generated_Source\PSoC4/CapSense.c **** 		CapSense_sensorRaw[sensor] >>= oversamplingFactor;
1569:.\Generated_Source\PSoC4/CapSense.c **** 	}
1570:.\Generated_Source\PSoC4/CapSense.c **** #endif /* ((CapSense_TUNING_METHOD == CapSense__TUNING_AUTO) &&\
1571:.\Generated_Source\PSoC4/CapSense.c **** 		   (0 != CapSense_IS_OVERSAMPLING_EN)) */
1572:.\Generated_Source\PSoC4/CapSense.c **** 
1573:.\Generated_Source\PSoC4/CapSense.c ****     /* Disable Sensor */
1574:.\Generated_Source\PSoC4/CapSense.c ****     CapSense_DisableScanSlot(sensor);
 902              		.loc 1 1574 0
 903 000e FFF7FEFF 		bl	CapSense_DisableSensor
 904              	.LVL111:
1575:.\Generated_Source\PSoC4/CapSense.c **** 
1576:.\Generated_Source\PSoC4/CapSense.c **** 	CyIntDisable(CapSense_ISR_NUMBER);
ARM GAS  C:\Users\merlin\AppData\Local\Temp\ccZOZwzR.s 			page 45


 905              		.loc 1 1576 0
 906 0012 1120     		mov	r0, #17
 907 0014 FFF7FEFF 		bl	CyIntDisable
 908              	.LVL112:
1577:.\Generated_Source\PSoC4/CapSense.c **** 	
1578:.\Generated_Source\PSoC4/CapSense.c **** #if(CapSense_CMOD_PREGARGE_OPTION == CapSense__CAPPRIOBUF)
1579:.\Generated_Source\PSoC4/CapSense.c **** 	newRegValue = CapSense_CMOD_CONNECTION_REG;
1580:.\Generated_Source\PSoC4/CapSense.c **** 	newRegValue &= ~(CapSense_CSD_CMOD_CONNECTION_MASK);
1581:.\Generated_Source\PSoC4/CapSense.c **** 	newRegValue |= CapSense_CSD_CMOD_TO_AMUXBUS_B;
1582:.\Generated_Source\PSoC4/CapSense.c **** 	CapSense_CMOD_CONNECTION_REG = newRegValue;
1583:.\Generated_Source\PSoC4/CapSense.c **** 	
1584:.\Generated_Source\PSoC4/CapSense.c **** 	newRegValue = CapSense_CMOD_PORT_PC_REG;
1585:.\Generated_Source\PSoC4/CapSense.c **** 	newRegValue &= ~(CapSense_CSD_CMOD_PC_MASK);
1586:.\Generated_Source\PSoC4/CapSense.c **** 	newRegValue |= CapSense_CMOD_PC_STRONG_MODE;
1587:.\Generated_Source\PSoC4/CapSense.c **** 	CapSense_CMOD_PORT_PC_REG = newRegValue;
1588:.\Generated_Source\PSoC4/CapSense.c **** 		
1589:.\Generated_Source\PSoC4/CapSense.c **** 	newRegValue = CapSense_CMOD_PORT_DR_REG;
1590:.\Generated_Source\PSoC4/CapSense.c ****     newRegValue &= ~(CapSense_CMOD_DR_MASK);
1591:.\Generated_Source\PSoC4/CapSense.c **** 	newRegValue |= CapSense_CMOD_DR_CONFIG;
1592:.\Generated_Source\PSoC4/CapSense.c ****     CapSense_CMOD_PORT_DR_REG = newRegValue;    
1593:.\Generated_Source\PSoC4/CapSense.c **** #endif /* (CapSense_CMOD_PREGARGE_OPTION == CapSense__CAPPRIOBUF) */
1594:.\Generated_Source\PSoC4/CapSense.c **** 	
1595:.\Generated_Source\PSoC4/CapSense.c **** 	/* Connect Vref Buffer to AMUX bus  */
1596:.\Generated_Source\PSoC4/CapSense.c **** 	newRegValue = CapSense_CSD_CFG_REG;
 909              		.loc 1 1596 0
 910 0018 0A4A     		ldr	r2, .L54+8
 911 001a 1168     		ldr	r1, [r2]
 912              	.LVL113:
1597:.\Generated_Source\PSoC4/CapSense.c **** 	newRegValue &= ~(CapSense_PRECHARGE_CONFIG_MASK);
 913              		.loc 1 1597 0
 914 001c 0A4B     		ldr	r3, .L54+12
 915 001e 0B40     		and	r3, r1
 916              	.LVL114:
1598:.\Generated_Source\PSoC4/CapSense.c **** 	newRegValue |= CapSense_CMOD_PRECHARGE_CONFIG;
 917              		.loc 1 1598 0
 918 0020 A021     		mov	r1, #160
 919 0022 0902     		lsl	r1, r1, #8
 920 0024 0B43     		orr	r3, r1
 921              	.LVL115:
1599:.\Generated_Source\PSoC4/CapSense.c **** 	CapSense_CSD_CFG_REG = newRegValue;
 922              		.loc 1 1599 0
 923 0026 1360     		str	r3, [r2]
1600:.\Generated_Source\PSoC4/CapSense.c **** 
1601:.\Generated_Source\PSoC4/CapSense.c **** 	/* Set Idac Value = 0 */
1602:.\Generated_Source\PSoC4/CapSense.c **** #if (CapSense_IDAC_CNT == 1u)   
1603:.\Generated_Source\PSoC4/CapSense.c **** 	CapSense_CSD_IDAC_REG &= ~(CapSense_CSD_IDAC1_DATA_MASK);
1604:.\Generated_Source\PSoC4/CapSense.c **** #else
1605:.\Generated_Source\PSoC4/CapSense.c **** 	CapSense_CSD_IDAC_REG &= ~(CapSense_CSD_IDAC1_DATA_MASK | CapSense_CSD_IDAC2_DATA_MASK);          
 924              		.loc 1 1605 0
 925 0028 084A     		ldr	r2, .L54+16
 926 002a 1168     		ldr	r1, [r2]
 927 002c 084B     		ldr	r3, .L54+20
 928              	.LVL116:
 929 002e 0B40     		and	r3, r1
 930 0030 1360     		str	r3, [r2]
 931              	.LVL117:
1606:.\Generated_Source\PSoC4/CapSense.c **** #endif /* (CapSense_IDAC_CNT == 1u) */
ARM GAS  C:\Users\merlin\AppData\Local\Temp\ccZOZwzR.s 			page 46


1607:.\Generated_Source\PSoC4/CapSense.c **** 
1608:.\Generated_Source\PSoC4/CapSense.c **** 	CyIntEnable(CapSense_ISR_NUMBER);
 932              		.loc 1 1608 0
 933 0032 1120     		mov	r0, #17
 934 0034 FFF7FEFF 		bl	CyIntEnable
 935              	.LVL118:
1609:.\Generated_Source\PSoC4/CapSense.c **** }
 936              		.loc 1 1609 0
 937              		@ sp needed
 938 0038 08BD     		pop	{r3, pc}
 939              	.L55:
 940 003a C046     		.align	2
 941              	.L54:
 942 003c 0C002840 		.word	1076363276
 943 0040 00000000 		.word	.LANCHOR0
 944 0044 04002840 		.word	1076363268
 945 0048 FF1FDFFF 		.word	-2154497
 946 004c 08002840 		.word	1076363272
 947 0050 00FF80FF 		.word	-8323328
 948              		.cfi_endproc
 949              	.LFE55:
 950              		.size	CapSense_PostScan, .-CapSense_PostScan
 951              		.section	.text.CapSense_EnableShieldElectrode,"ax",%progbits
 952              		.align	2
 953              		.global	CapSense_EnableShieldElectrode
 954              		.code	16
 955              		.thumb_func
 956              		.type	CapSense_EnableShieldElectrode, %function
 957              	CapSense_EnableShieldElectrode:
 958              	.LFB56:
1610:.\Generated_Source\PSoC4/CapSense.c **** 
1611:.\Generated_Source\PSoC4/CapSense.c **** 
1612:.\Generated_Source\PSoC4/CapSense.c **** /*******************************************************************************
1613:.\Generated_Source\PSoC4/CapSense.c **** * Function Name: CapSense_EnableShieldElectrode
1614:.\Generated_Source\PSoC4/CapSense.c **** ********************************************************************************
1615:.\Generated_Source\PSoC4/CapSense.c **** *
1616:.\Generated_Source\PSoC4/CapSense.c **** * Summary:
1617:.\Generated_Source\PSoC4/CapSense.c **** *  This API enables or disables the shield electrode on a specified port pin.
1618:.\Generated_Source\PSoC4/CapSense.c **** *
1619:.\Generated_Source\PSoC4/CapSense.c **** * Parameters:
1620:.\Generated_Source\PSoC4/CapSense.c **** *  portNumber: contains the shield electrode port number (0, 1, 2).
1621:.\Generated_Source\PSoC4/CapSense.c **** *  pinNumber: contains the shield electrode pin number (0, 1, 2, ... , 7).
1622:.\Generated_Source\PSoC4/CapSense.c **** *
1623:.\Generated_Source\PSoC4/CapSense.c **** * Return:
1624:.\Generated_Source\PSoC4/CapSense.c **** *  None
1625:.\Generated_Source\PSoC4/CapSense.c **** *
1626:.\Generated_Source\PSoC4/CapSense.c **** * Global Variables:
1627:.\Generated_Source\PSoC4/CapSense.c **** *  CapSense_prtCfgTbl[] - Contains pointers to the port config registers for each port.
1628:.\Generated_Source\PSoC4/CapSense.c **** *  CapSense_prtSelTbl[] - Contains pointers to the HSIOM registers for each port.
1629:.\Generated_Source\PSoC4/CapSense.c **** *
1630:.\Generated_Source\PSoC4/CapSense.c **** * Side Effects: 
1631:.\Generated_Source\PSoC4/CapSense.c **** *  None
1632:.\Generated_Source\PSoC4/CapSense.c **** *
1633:.\Generated_Source\PSoC4/CapSense.c **** *******************************************************************************/
1634:.\Generated_Source\PSoC4/CapSense.c **** void CapSense_EnableShieldElectrode(uint32 pinNumber, uint32 portNumber)
1635:.\Generated_Source\PSoC4/CapSense.c **** {
 959              		.loc 1 1635 0
ARM GAS  C:\Users\merlin\AppData\Local\Temp\ccZOZwzR.s 			page 47


 960              		.cfi_startproc
 961              	.LVL119:
 962 0000 70B5     		push	{r4, r5, r6, lr}
 963              		.cfi_def_cfa_offset 16
 964              		.cfi_offset 4, -16
 965              		.cfi_offset 5, -12
 966              		.cfi_offset 6, -8
 967              		.cfi_offset 14, -4
1636:.\Generated_Source\PSoC4/CapSense.c **** 	uint32 newRegValue;
1637:.\Generated_Source\PSoC4/CapSense.c **** 	
1638:.\Generated_Source\PSoC4/CapSense.c **** 	*CapSense_prtCfgTbl[portNumber] &= ~(CapSense_CSD_PIN_MODE_MASK << (pinNumber * CapSense_PC_PIN_CF
 968              		.loc 1 1638 0
 969 0002 0B4D     		ldr	r5, .L57
 970 0004 8900     		lsl	r1, r1, #2
 971              	.LVL120:
 972 0006 4E59     		ldr	r6, [r1, r5]
 973 0008 3368     		ldr	r3, [r6]
 974 000a 4200     		lsl	r2, r0, #1
 975 000c 1218     		add	r2, r2, r0
 976 000e 0724     		mov	r4, #7
 977 0010 9440     		lsl	r4, r4, r2
 978 0012 A343     		bic	r3, r4
 979 0014 3360     		str	r3, [r6]
1639:.\Generated_Source\PSoC4/CapSense.c **** 	newRegValue = *CapSense_prtSelTbl[portNumber];
 980              		.loc 1 1639 0
 981 0016 6918     		add	r1, r5, r1
 982 0018 096A     		ldr	r1, [r1, #32]
 983 001a 0B68     		ldr	r3, [r1]
 984              	.LVL121:
1640:.\Generated_Source\PSoC4/CapSense.c ****     newRegValue &= ~(CapSense_CSD_HSIOM_MASK << (pinNumber * CapSense_HSIOM_PIN_CFG_SIZE));
 985              		.loc 1 1640 0
 986 001c 8000     		lsl	r0, r0, #2
 987              	.LVL122:
 988 001e 0F22     		mov	r2, #15
 989 0020 8240     		lsl	r2, r2, r0
 990 0022 9343     		bic	r3, r2
 991              	.LVL123:
1641:.\Generated_Source\PSoC4/CapSense.c ****     newRegValue |= (CapSense_CSD_SHIELD_PORT_MODE << (pinNumber * CapSense_HSIOM_PIN_CFG_SIZE));
 992              		.loc 1 1641 0
 993 0024 0522     		mov	r2, #5
 994 0026 8240     		lsl	r2, r2, r0
 995 0028 101C     		mov	r0, r2
 996 002a 1843     		orr	r0, r3
 997              	.LVL124:
1642:.\Generated_Source\PSoC4/CapSense.c ****     *CapSense_prtSelTbl[portNumber] = newRegValue;
 998              		.loc 1 1642 0
 999 002c 0860     		str	r0, [r1]
1643:.\Generated_Source\PSoC4/CapSense.c **** }
 1000              		.loc 1 1643 0
 1001              		@ sp needed
 1002 002e 70BD     		pop	{r4, r5, r6, pc}
 1003              	.L58:
 1004              		.align	2
 1005              	.L57:
 1006 0030 00000000 		.word	.LANCHOR2
 1007              		.cfi_endproc
 1008              	.LFE56:
ARM GAS  C:\Users\merlin\AppData\Local\Temp\ccZOZwzR.s 			page 48


 1009              		.size	CapSense_EnableShieldElectrode, .-CapSense_EnableShieldElectrode
 1010              		.section	.text.CapSense_SetShieldDelay,"ax",%progbits
 1011              		.align	2
 1012              		.global	CapSense_SetShieldDelay
 1013              		.code	16
 1014              		.thumb_func
 1015              		.type	CapSense_SetShieldDelay, %function
 1016              	CapSense_SetShieldDelay:
 1017              	.LFB57:
1644:.\Generated_Source\PSoC4/CapSense.c **** 
1645:.\Generated_Source\PSoC4/CapSense.c **** 
1646:.\Generated_Source\PSoC4/CapSense.c **** /*******************************************************************************
1647:.\Generated_Source\PSoC4/CapSense.c **** * Function Name: CapSense_SetShieldDelay
1648:.\Generated_Source\PSoC4/CapSense.c **** ********************************************************************************
1649:.\Generated_Source\PSoC4/CapSense.c **** *
1650:.\Generated_Source\PSoC4/CapSense.c **** * Summary:
1651:.\Generated_Source\PSoC4/CapSense.c **** *  This API sets a shield delay.
1652:.\Generated_Source\PSoC4/CapSense.c **** *
1653:.\Generated_Source\PSoC4/CapSense.c **** * Parameters:
1654:.\Generated_Source\PSoC4/CapSense.c **** *  delay:  shield delay value:
1655:.\Generated_Source\PSoC4/CapSense.c **** *                               0 - no delay
1656:.\Generated_Source\PSoC4/CapSense.c **** *                               1 - 1 cycle delay
1657:.\Generated_Source\PSoC4/CapSense.c **** *                               2 - 2 cycles delay
1658:.\Generated_Source\PSoC4/CapSense.c **** *
1659:.\Generated_Source\PSoC4/CapSense.c **** * Return:
1660:.\Generated_Source\PSoC4/CapSense.c **** *  None
1661:.\Generated_Source\PSoC4/CapSense.c **** *
1662:.\Generated_Source\PSoC4/CapSense.c **** * Global Variables:
1663:.\Generated_Source\PSoC4/CapSense.c **** *  None
1664:.\Generated_Source\PSoC4/CapSense.c **** *
1665:.\Generated_Source\PSoC4/CapSense.c **** * Side Effects: 
1666:.\Generated_Source\PSoC4/CapSense.c **** *  None
1667:.\Generated_Source\PSoC4/CapSense.c **** *
1668:.\Generated_Source\PSoC4/CapSense.c **** *******************************************************************************/
1669:.\Generated_Source\PSoC4/CapSense.c **** void CapSense_SetShieldDelay(uint32 delay)
1670:.\Generated_Source\PSoC4/CapSense.c **** {
 1018              		.loc 1 1670 0
 1019              		.cfi_startproc
 1020              	.LVL125:
1671:.\Generated_Source\PSoC4/CapSense.c ****     uint32 newRegValue;
1672:.\Generated_Source\PSoC4/CapSense.c ****     
1673:.\Generated_Source\PSoC4/CapSense.c ****     delay &= 0x03u;
 1021              		.loc 1 1673 0
 1022 0000 0323     		mov	r3, #3
 1023 0002 1840     		and	r0, r3
 1024              	.LVL126:
1674:.\Generated_Source\PSoC4/CapSense.c ****     
1675:.\Generated_Source\PSoC4/CapSense.c ****     newRegValue = CapSense_CSD_CFG_REG;
 1025              		.loc 1 1675 0
 1026 0004 024B     		ldr	r3, .L60
 1027 0006 1A68     		ldr	r2, [r3]
 1028              	.LVL127:
1676:.\Generated_Source\PSoC4/CapSense.c ****     newRegValue &= (uint32)(~(uint32)CapSense_SHIELD_DELAY);    
1677:.\Generated_Source\PSoC4/CapSense.c ****     newRegValue |= (delay << CapSense_CSD_CFG_SHIELD_DELAY_POS);    
 1029              		.loc 1 1677 0
 1030 0008 4002     		lsl	r0, r0, #9
 1031              	.LVL128:
ARM GAS  C:\Users\merlin\AppData\Local\Temp\ccZOZwzR.s 			page 49


 1032 000a 1043     		orr	r0, r2
 1033              	.LVL129:
1678:.\Generated_Source\PSoC4/CapSense.c ****     CapSense_CSD_CFG_REG = newRegValue;
 1034              		.loc 1 1678 0
 1035 000c 1860     		str	r0, [r3]
1679:.\Generated_Source\PSoC4/CapSense.c **** }
 1036              		.loc 1 1679 0
 1037              		@ sp needed
 1038 000e 7047     		bx	lr
 1039              	.L61:
 1040              		.align	2
 1041              	.L60:
 1042 0010 04002840 		.word	1076363268
 1043              		.cfi_endproc
 1044              	.LFE57:
 1045              		.size	CapSense_SetShieldDelay, .-CapSense_SetShieldDelay
 1046              		.section	.text.CapSense_Init,"ax",%progbits
 1047              		.align	2
 1048              		.global	CapSense_Init
 1049              		.code	16
 1050              		.thumb_func
 1051              		.type	CapSense_Init, %function
 1052              	CapSense_Init:
 1053              	.LFB34:
 188:.\Generated_Source\PSoC4/CapSense.c **** 	uint32 curSensor;
 1054              		.loc 1 188 0
 1055              		.cfi_startproc
 1056 0000 08B5     		push	{r3, lr}
 1057              		.cfi_def_cfa_offset 8
 1058              		.cfi_offset 3, -8
 1059              		.cfi_offset 14, -4
 1060              	.LVL130:
 219:.\Generated_Source\PSoC4/CapSense.c **** 	{
 1061              		.loc 1 219 0
 1062 0002 0023     		mov	r3, #0
 1063 0004 03E0     		b	.L63
 1064              	.LVL131:
 1065              	.L64:
 221:.\Generated_Source\PSoC4/CapSense.c **** 	}
 1066              		.loc 1 221 0 discriminator 3
 1067 0006 0021     		mov	r1, #0
 1068 0008 064A     		ldr	r2, .L65
 1069 000a D154     		strb	r1, [r2, r3]
 219:.\Generated_Source\PSoC4/CapSense.c **** 	{
 1070              		.loc 1 219 0 discriminator 3
 1071 000c 0133     		add	r3, r3, #1
 1072              	.LVL132:
 1073              	.L63:
 219:.\Generated_Source\PSoC4/CapSense.c **** 	{
 1074              		.loc 1 219 0 is_stmt 0 discriminator 1
 1075 000e 002B     		cmp	r3, #0
 1076 0010 F9D0     		beq	.L64
 224:.\Generated_Source\PSoC4/CapSense.c ****     CapSense_SetShieldDelay(CapSense_SHIELD_DELAY );
 1077              		.loc 1 224 0 is_stmt 1
 1078 0012 FFF7FEFF 		bl	CapSense_CsdHwBlockInit
 1079              	.LVL133:
 225:.\Generated_Source\PSoC4/CapSense.c **** 	
ARM GAS  C:\Users\merlin\AppData\Local\Temp\ccZOZwzR.s 			page 50


 1080              		.loc 1 225 0
 1081 0016 0020     		mov	r0, #0
 1082 0018 FFF7FEFF 		bl	CapSense_SetShieldDelay
 1083              	.LVL134:
 228:.\Generated_Source\PSoC4/CapSense.c **** }
 1084              		.loc 1 228 0
 1085 001c FFF7FEFF 		bl	CapSense_ClearSensors
 1086              	.LVL135:
 229:.\Generated_Source\PSoC4/CapSense.c **** 
 1087              		.loc 1 229 0
 1088              		@ sp needed
 1089 0020 08BD     		pop	{r3, pc}
 1090              	.L66:
 1091 0022 C046     		.align	2
 1092              	.L65:
 1093 0024 00000000 		.word	CapSense_unscannedSnsDriveMode
 1094              		.cfi_endproc
 1095              	.LFE34:
 1096              		.size	CapSense_Init, .-CapSense_Init
 1097              		.section	.text.CapSense_ReadCurrentScanningSensor,"ax",%progbits
 1098              		.align	2
 1099              		.global	CapSense_ReadCurrentScanningSensor
 1100              		.code	16
 1101              		.thumb_func
 1102              		.type	CapSense_ReadCurrentScanningSensor, %function
 1103              	CapSense_ReadCurrentScanningSensor:
 1104              	.LFB58:
1680:.\Generated_Source\PSoC4/CapSense.c **** 
1681:.\Generated_Source\PSoC4/CapSense.c **** 
1682:.\Generated_Source\PSoC4/CapSense.c **** /*******************************************************************************
1683:.\Generated_Source\PSoC4/CapSense.c **** * Function Name: CapSense_ReadCurrentScanningSensor
1684:.\Generated_Source\PSoC4/CapSense.c **** ********************************************************************************
1685:.\Generated_Source\PSoC4/CapSense.c **** *
1686:.\Generated_Source\PSoC4/CapSense.c **** * Summary:
1687:.\Generated_Source\PSoC4/CapSense.c **** *  This API returns scanning sensor number when sensor scan is in progress. 
1688:.\Generated_Source\PSoC4/CapSense.c **** *  When sensor scan is completed the API returns 
1689:.\Generated_Source\PSoC4/CapSense.c **** *  $INSTANCE_NAME`_NOT_SENSOR (0xFFFFFFFF) (when no sensor is scanned).
1690:.\Generated_Source\PSoC4/CapSense.c **** *
1691:.\Generated_Source\PSoC4/CapSense.c **** * Parameters:
1692:.\Generated_Source\PSoC4/CapSense.c **** *	None.
1693:.\Generated_Source\PSoC4/CapSense.c **** *
1694:.\Generated_Source\PSoC4/CapSense.c **** * Return:
1695:.\Generated_Source\PSoC4/CapSense.c **** *  Returns Sensor number if sensor is being scanned and 
1696:.\Generated_Source\PSoC4/CapSense.c **** *  $INSTANCE_NAME`_NOT_SENSOR (0xFFFFFFFF) if scanning is complete.
1697:.\Generated_Source\PSoC4/CapSense.c **** *
1698:.\Generated_Source\PSoC4/CapSense.c **** * Global Variables:
1699:.\Generated_Source\PSoC4/CapSense.c **** *  CapSense_sensorIndex - the sensor number is being scanned.
1700:.\Generated_Source\PSoC4/CapSense.c **** *
1701:.\Generated_Source\PSoC4/CapSense.c **** * Side Effects: 
1702:.\Generated_Source\PSoC4/CapSense.c **** *  None
1703:.\Generated_Source\PSoC4/CapSense.c **** *
1704:.\Generated_Source\PSoC4/CapSense.c **** *******************************************************************************/
1705:.\Generated_Source\PSoC4/CapSense.c **** uint32 CapSense_ReadCurrentScanningSensor(void)
1706:.\Generated_Source\PSoC4/CapSense.c **** {
 1105              		.loc 1 1706 0
 1106              		.cfi_startproc
1707:.\Generated_Source\PSoC4/CapSense.c ****     return ((uint32)(( 0u != (CapSense_csdStatusVar & CapSense_SW_STS_BUSY)) ? 
ARM GAS  C:\Users\merlin\AppData\Local\Temp\ccZOZwzR.s 			page 51


 1107              		.loc 1 1707 0
 1108 0000 054B     		ldr	r3, .L70
 1109 0002 1B78     		ldrb	r3, [r3]
 1110 0004 DB07     		lsl	r3, r3, #31
 1111 0006 03D5     		bpl	.L69
 1112              		.loc 1 1707 0 is_stmt 0 discriminator 1
 1113 0008 034B     		ldr	r3, .L70
 1114 000a 9879     		ldrb	r0, [r3, #6]
 1115 000c C0B2     		uxtb	r0, r0
 1116 000e 01E0     		b	.L68
 1117              	.L69:
 1118              		.loc 1 1707 0
 1119 0010 0120     		mov	r0, #1
 1120 0012 4042     		neg	r0, r0
 1121              	.L68:
1708:.\Generated_Source\PSoC4/CapSense.c ****                      CapSense_sensorIndex : CapSense_NOT_SENSOR));
1709:.\Generated_Source\PSoC4/CapSense.c **** }
 1122              		.loc 1 1709 0 is_stmt 1 discriminator 4
 1123              		@ sp needed
 1124 0014 7047     		bx	lr
 1125              	.L71:
 1126 0016 C046     		.align	2
 1127              	.L70:
 1128 0018 00000000 		.word	.LANCHOR0
 1129              		.cfi_endproc
 1130              	.LFE58:
 1131              		.size	CapSense_ReadCurrentScanningSensor, .-CapSense_ReadCurrentScanningSensor
 1132              		.section	.text.CapSense_GetBitValue,"ax",%progbits
 1133              		.align	2
 1134              		.global	CapSense_GetBitValue
 1135              		.code	16
 1136              		.thumb_func
 1137              		.type	CapSense_GetBitValue, %function
 1138              	CapSense_GetBitValue:
 1139              	.LFB59:
1710:.\Generated_Source\PSoC4/CapSense.c **** 
1711:.\Generated_Source\PSoC4/CapSense.c **** 
1712:.\Generated_Source\PSoC4/CapSense.c **** /*******************************************************************************
1713:.\Generated_Source\PSoC4/CapSense.c **** * Function Name: CapSense_GetBitValue
1714:.\Generated_Source\PSoC4/CapSense.c **** ********************************************************************************
1715:.\Generated_Source\PSoC4/CapSense.c **** *
1716:.\Generated_Source\PSoC4/CapSense.c **** * Summary:
1717:.\Generated_Source\PSoC4/CapSense.c **** *  The API returns a bit status of the bit in the table array which contains the masks.
1718:.\Generated_Source\PSoC4/CapSense.c **** * 
1719:.\Generated_Source\PSoC4/CapSense.c **** * Parameters:
1720:.\Generated_Source\PSoC4/CapSense.c **** *  table[] - array with bit masks.
1721:.\Generated_Source\PSoC4/CapSense.c **** *  position - position of bit in the table[] array.
1722:.\Generated_Source\PSoC4/CapSense.c **** *
1723:.\Generated_Source\PSoC4/CapSense.c **** * Return:
1724:.\Generated_Source\PSoC4/CapSense.c **** *  0 - bit is not set; 1 - bit is set.
1725:.\Generated_Source\PSoC4/CapSense.c **** *
1726:.\Generated_Source\PSoC4/CapSense.c **** * Global Variables:
1727:.\Generated_Source\PSoC4/CapSense.c **** *  None
1728:.\Generated_Source\PSoC4/CapSense.c **** *
1729:.\Generated_Source\PSoC4/CapSense.c **** * Side Effects:
1730:.\Generated_Source\PSoC4/CapSense.c **** *  None
1731:.\Generated_Source\PSoC4/CapSense.c **** *
ARM GAS  C:\Users\merlin\AppData\Local\Temp\ccZOZwzR.s 			page 52


1732:.\Generated_Source\PSoC4/CapSense.c **** *******************************************************************************/
1733:.\Generated_Source\PSoC4/CapSense.c **** uint32 CapSense_GetBitValue(const uint8 table[], uint32 position)
1734:.\Generated_Source\PSoC4/CapSense.c **** {
 1140              		.loc 1 1734 0
 1141              		.cfi_startproc
 1142              	.LVL136:
1735:.\Generated_Source\PSoC4/CapSense.c ****     uint32 offset;
1736:.\Generated_Source\PSoC4/CapSense.c **** 	uint8 enMask;
1737:.\Generated_Source\PSoC4/CapSense.c **** 	
1738:.\Generated_Source\PSoC4/CapSense.c **** 	/* position is divided by 8 to calculate the element of the 
1739:.\Generated_Source\PSoC4/CapSense.c **** 	   table[] array that contains the enable bit 
1740:.\Generated_Source\PSoC4/CapSense.c **** 	   for an appropriate sensor.
1741:.\Generated_Source\PSoC4/CapSense.c **** 	*/
1742:.\Generated_Source\PSoC4/CapSense.c **** 	offset = (position >> 3u);
 1143              		.loc 1 1742 0
 1144 0000 CA08     		lsr	r2, r1, #3
 1145              	.LVL137:
1743:.\Generated_Source\PSoC4/CapSense.c **** 	
1744:.\Generated_Source\PSoC4/CapSense.c **** 	/* The enMask calculation for the appropriate sensor. Operation (position & 0x07u) 
1745:.\Generated_Source\PSoC4/CapSense.c **** 	   intends to calculate the enable bit offset for the 8-bit element of the 
1746:.\Generated_Source\PSoC4/CapSense.c **** 	   table[] array.
1747:.\Generated_Source\PSoC4/CapSense.c **** 	*/
1748:.\Generated_Source\PSoC4/CapSense.c **** 	enMask = 0x01u << (position & 0x07u);
 1146              		.loc 1 1748 0
 1147 0002 0723     		mov	r3, #7
 1148 0004 1940     		and	r1, r3
 1149              	.LVL138:
 1150 0006 063B     		sub	r3, r3, #6
 1151 0008 8B40     		lsl	r3, r3, r1
 1152 000a 191C     		mov	r1, r3
 1153              	.LVL139:
1749:.\Generated_Source\PSoC4/CapSense.c ****     
1750:.\Generated_Source\PSoC4/CapSense.c ****     return ((0u !=(table[offset] & enMask)) ? 1Lu : 0Lu);
 1154              		.loc 1 1750 0
 1155 000c 835C     		ldrb	r3, [r0, r2]
 1156 000e 1942     		tst	r1, r3
 1157 0010 01D0     		beq	.L74
 1158 0012 0120     		mov	r0, #1
 1159              	.LVL140:
 1160 0014 00E0     		b	.L73
 1161              	.LVL141:
 1162              	.L74:
 1163 0016 0020     		mov	r0, #0
 1164              	.LVL142:
 1165              	.L73:
1751:.\Generated_Source\PSoC4/CapSense.c **** }
 1166              		.loc 1 1751 0 discriminator 4
 1167              		@ sp needed
 1168 0018 7047     		bx	lr
 1169              		.cfi_endproc
 1170              	.LFE59:
 1171              		.size	CapSense_GetBitValue, .-CapSense_GetBitValue
 1172 001a C046     		.section	.text.CapSense_FindNextSensor,"ax",%progbits
 1173              		.align	2
 1174              		.global	CapSense_FindNextSensor
 1175              		.code	16
 1176              		.thumb_func
ARM GAS  C:\Users\merlin\AppData\Local\Temp\ccZOZwzR.s 			page 53


 1177              		.type	CapSense_FindNextSensor, %function
 1178              	CapSense_FindNextSensor:
 1179              	.LFB39:
 527:.\Generated_Source\PSoC4/CapSense.c ****     uint32 enableFlag;
 1180              		.loc 1 527 0
 1181              		.cfi_startproc
 1182              	.LVL143:
 1183 0000 10B5     		push	{r4, lr}
 1184              		.cfi_def_cfa_offset 8
 1185              		.cfi_offset 4, -8
 1186              		.cfi_offset 14, -4
 1187 0002 041C     		mov	r4, r0
 1188              	.LVL144:
 1189              	.L77:
 534:.\Generated_Source\PSoC4/CapSense.c ****         if(snsIndex == CapSense_TOTAL_SENSOR_COUNT)
 1190              		.loc 1 534 0
 1191 0004 0134     		add	r4, r4, #1
 1192              	.LVL145:
 1193 0006 E4B2     		uxtb	r4, r4
 1194              	.LVL146:
 535:.\Generated_Source\PSoC4/CapSense.c ****         {
 1195              		.loc 1 535 0
 1196 0008 012C     		cmp	r4, #1
 1197 000a 06D0     		beq	.L76
 539:.\Generated_Source\PSoC4/CapSense.c ****     }    
 1198              		.loc 1 539 0
 1199 000c 0448     		ldr	r0, .L78
 1200 000e 0830     		add	r0, r0, #8
 1201 0010 211C     		mov	r1, r4
 1202 0012 FFF7FEFF 		bl	CapSense_GetBitValue
 1203              	.LVL147:
 541:.\Generated_Source\PSoC4/CapSense.c ****     
 1204              		.loc 1 541 0
 1205 0016 0028     		cmp	r0, #0
 1206 0018 F4D0     		beq	.L77
 1207              	.LVL148:
 1208              	.L76:
 544:.\Generated_Source\PSoC4/CapSense.c **** 
 1209              		.loc 1 544 0
 1210 001a 201C     		mov	r0, r4
 1211              		@ sp needed
 1212              	.LVL149:
 1213 001c 10BD     		pop	{r4, pc}
 1214              	.L79:
 1215 001e C046     		.align	2
 1216              	.L78:
 1217 0020 00000000 		.word	.LANCHOR0
 1218              		.cfi_endproc
 1219              	.LFE39:
 1220              		.size	CapSense_FindNextSensor, .-CapSense_FindNextSensor
 1221              		.section	.text.CapSense_ScanEnabledWidgets,"ax",%progbits
 1222              		.align	2
 1223              		.global	CapSense_ScanEnabledWidgets
 1224              		.code	16
 1225              		.thumb_func
 1226              		.type	CapSense_ScanEnabledWidgets, %function
 1227              	CapSense_ScanEnabledWidgets:
ARM GAS  C:\Users\merlin\AppData\Local\Temp\ccZOZwzR.s 			page 54


 1228              	.LFB42:
 699:.\Generated_Source\PSoC4/CapSense.c ****     /* Clears status/control variable and set sensorIndex */
 1229              		.loc 1 699 0
 1230              		.cfi_startproc
 1231 0000 10B5     		push	{r4, lr}
 1232              		.cfi_def_cfa_offset 8
 1233              		.cfi_offset 4, -8
 1234              		.cfi_offset 14, -4
 701:.\Generated_Source\PSoC4/CapSense.c ****     CapSense_sensorIndex = 0xFFu;
 1235              		.loc 1 701 0
 1236 0002 0B4C     		ldr	r4, .L82
 1237 0004 0023     		mov	r3, #0
 1238 0006 2370     		strb	r3, [r4]
 702:.\Generated_Source\PSoC4/CapSense.c ****     
 1239              		.loc 1 702 0
 1240 0008 FF33     		add	r3, r3, #255
 1241 000a A371     		strb	r3, [r4, #6]
 705:.\Generated_Source\PSoC4/CapSense.c **** 
 1242              		.loc 1 705 0
 1243 000c A079     		ldrb	r0, [r4, #6]
 1244 000e C0B2     		uxtb	r0, r0
 1245 0010 FFF7FEFF 		bl	CapSense_FindNextSensor
 1246              	.LVL150:
 1247 0014 A071     		strb	r0, [r4, #6]
 708:.\Generated_Source\PSoC4/CapSense.c ****     {
 1248              		.loc 1 708 0
 1249 0016 A379     		ldrb	r3, [r4, #6]
 1250 0018 002B     		cmp	r3, #0
 1251 001a 07D1     		bne	.L80
 710:.\Generated_Source\PSoC4/CapSense.c ****         CapSense_PreScan((uint32)CapSense_sensorIndex);
 1252              		.loc 1 710 0
 1253 001c 2178     		ldrb	r1, [r4]
 1254 001e 0122     		mov	r2, #1
 1255 0020 0A43     		orr	r2, r1
 1256 0022 2270     		strb	r2, [r4]
 711:.\Generated_Source\PSoC4/CapSense.c ****     }
 1257              		.loc 1 711 0
 1258 0024 A079     		ldrb	r0, [r4, #6]
 1259 0026 C0B2     		uxtb	r0, r0
 1260 0028 FFF7FEFF 		bl	CapSense_PreScan
 1261              	.LVL151:
 1262              	.L80:
 713:.\Generated_Source\PSoC4/CapSense.c **** 
 1263              		.loc 1 713 0
 1264              		@ sp needed
 1265 002c 10BD     		pop	{r4, pc}
 1266              	.L83:
 1267 002e C046     		.align	2
 1268              	.L82:
 1269 0030 00000000 		.word	.LANCHOR0
 1270              		.cfi_endproc
 1271              	.LFE42:
 1272              		.size	CapSense_ScanEnabledWidgets, .-CapSense_ScanEnabledWidgets
 1273              		.section	.text.CapSense_SetBitValue,"ax",%progbits
 1274              		.align	2
 1275              		.global	CapSense_SetBitValue
 1276              		.code	16
ARM GAS  C:\Users\merlin\AppData\Local\Temp\ccZOZwzR.s 			page 55


 1277              		.thumb_func
 1278              		.type	CapSense_SetBitValue, %function
 1279              	CapSense_SetBitValue:
 1280              	.LFB60:
1752:.\Generated_Source\PSoC4/CapSense.c **** 
1753:.\Generated_Source\PSoC4/CapSense.c **** 
1754:.\Generated_Source\PSoC4/CapSense.c **** /*******************************************************************************
1755:.\Generated_Source\PSoC4/CapSense.c **** * Function Name: CapSense_SetBitValue
1756:.\Generated_Source\PSoC4/CapSense.c **** ********************************************************************************
1757:.\Generated_Source\PSoC4/CapSense.c **** *
1758:.\Generated_Source\PSoC4/CapSense.c **** * Summary:
1759:.\Generated_Source\PSoC4/CapSense.c **** *  The API sets a bit status of the bit in the table array which contains masks.
1760:.\Generated_Source\PSoC4/CapSense.c **** * 
1761:.\Generated_Source\PSoC4/CapSense.c **** * Parameters:
1762:.\Generated_Source\PSoC4/CapSense.c **** *  table[] - array with bit masks.
1763:.\Generated_Source\PSoC4/CapSense.c **** *  position - position of bit in the table[] array.
1764:.\Generated_Source\PSoC4/CapSense.c **** *  value: 0 - bit is not set; 1 - bit is set.
1765:.\Generated_Source\PSoC4/CapSense.c **** *
1766:.\Generated_Source\PSoC4/CapSense.c **** * Return:
1767:.\Generated_Source\PSoC4/CapSense.c **** *  None
1768:.\Generated_Source\PSoC4/CapSense.c **** *
1769:.\Generated_Source\PSoC4/CapSense.c **** * Global Variables:
1770:.\Generated_Source\PSoC4/CapSense.c **** *  None
1771:.\Generated_Source\PSoC4/CapSense.c **** *
1772:.\Generated_Source\PSoC4/CapSense.c **** * Side Effects:
1773:.\Generated_Source\PSoC4/CapSense.c **** *  None
1774:.\Generated_Source\PSoC4/CapSense.c **** *
1775:.\Generated_Source\PSoC4/CapSense.c **** *******************************************************************************/
1776:.\Generated_Source\PSoC4/CapSense.c **** void CapSense_SetBitValue(uint8 table[], uint32 position, uint32 value)
1777:.\Generated_Source\PSoC4/CapSense.c **** {
 1281              		.loc 1 1777 0
 1282              		.cfi_startproc
 1283              	.LVL152:
 1284 0000 10B5     		push	{r4, lr}
 1285              		.cfi_def_cfa_offset 8
 1286              		.cfi_offset 4, -8
 1287              		.cfi_offset 14, -4
1778:.\Generated_Source\PSoC4/CapSense.c ****     uint32 offset;
1779:.\Generated_Source\PSoC4/CapSense.c **** 	uint8 enMask;
1780:.\Generated_Source\PSoC4/CapSense.c **** 	
1781:.\Generated_Source\PSoC4/CapSense.c **** 	/* position is divided by 8 to calculate the element of the 
1782:.\Generated_Source\PSoC4/CapSense.c **** 	   table[] array that contains the enable bit 
1783:.\Generated_Source\PSoC4/CapSense.c **** 	   for an appropriate sensor.
1784:.\Generated_Source\PSoC4/CapSense.c **** 	*/
1785:.\Generated_Source\PSoC4/CapSense.c **** 	offset = (position >> 3u);
 1288              		.loc 1 1785 0
 1289 0002 CC08     		lsr	r4, r1, #3
 1290              	.LVL153:
1786:.\Generated_Source\PSoC4/CapSense.c **** 	
1787:.\Generated_Source\PSoC4/CapSense.c **** 	/* The enMask calculation for the appropriate sensor. Operation (position & 0x07u) 
1788:.\Generated_Source\PSoC4/CapSense.c **** 	   intends to calculate the enable bit offset for the 8-bit element of the 
1789:.\Generated_Source\PSoC4/CapSense.c **** 	   table[] array.
1790:.\Generated_Source\PSoC4/CapSense.c **** 	*/
1791:.\Generated_Source\PSoC4/CapSense.c **** 	enMask = 0x01u << (position & 0x07u);
 1291              		.loc 1 1791 0
 1292 0004 0723     		mov	r3, #7
 1293 0006 1940     		and	r1, r3
ARM GAS  C:\Users\merlin\AppData\Local\Temp\ccZOZwzR.s 			page 56


 1294              	.LVL154:
 1295 0008 063B     		sub	r3, r3, #6
 1296 000a 8B40     		lsl	r3, r3, r1
 1297 000c D9B2     		uxtb	r1, r3
 1298              	.LVL155:
1792:.\Generated_Source\PSoC4/CapSense.c **** 	
1793:.\Generated_Source\PSoC4/CapSense.c **** 	if(0u != value)
 1299              		.loc 1 1793 0
 1300 000e 002A     		cmp	r2, #0
 1301 0010 04D0     		beq	.L85
1794:.\Generated_Source\PSoC4/CapSense.c **** 	{
1795:.\Generated_Source\PSoC4/CapSense.c **** 		table[offset] |= enMask;
 1302              		.loc 1 1795 0
 1303 0012 0419     		add	r4, r0, r4
 1304              	.LVL156:
 1305 0014 2378     		ldrb	r3, [r4]
 1306 0016 1943     		orr	r1, r3
 1307              	.LVL157:
 1308 0018 2170     		strb	r1, [r4]
 1309 001a 03E0     		b	.L84
 1310              	.LVL158:
 1311              	.L85:
1796:.\Generated_Source\PSoC4/CapSense.c **** 	}
1797:.\Generated_Source\PSoC4/CapSense.c **** 	else
1798:.\Generated_Source\PSoC4/CapSense.c **** 	{
1799:.\Generated_Source\PSoC4/CapSense.c **** 		table[offset] &= (uint8)~(enMask);
 1312              		.loc 1 1799 0
 1313 001c 0419     		add	r4, r0, r4
 1314              	.LVL159:
 1315 001e 2378     		ldrb	r3, [r4]
 1316 0020 8B43     		bic	r3, r1
 1317 0022 2370     		strb	r3, [r4]
 1318              	.LVL160:
 1319              	.L84:
1800:.\Generated_Source\PSoC4/CapSense.c **** 	}
1801:.\Generated_Source\PSoC4/CapSense.c **** }
 1320              		.loc 1 1801 0
 1321              		@ sp needed
 1322 0024 10BD     		pop	{r4, pc}
 1323              		.cfi_endproc
 1324              	.LFE60:
 1325              		.size	CapSense_SetBitValue, .-CapSense_SetBitValue
 1326 0026 C046     		.section	.text.CapSense_ScanWidget,"ax",%progbits
 1327              		.align	2
 1328              		.global	CapSense_ScanWidget
 1329              		.code	16
 1330              		.thumb_func
 1331              		.type	CapSense_ScanWidget, %function
 1332              	CapSense_ScanWidget:
 1333              	.LFB41:
 614:.\Generated_Source\PSoC4/CapSense.c ****     uint32 sensorsPerWidget;
 1334              		.loc 1 614 0
 1335              		.cfi_startproc
 1336              	.LVL161:
 1337 0000 38B5     		push	{r3, r4, r5, lr}
 1338              		.cfi_def_cfa_offset 16
 1339              		.cfi_offset 3, -16
ARM GAS  C:\Users\merlin\AppData\Local\Temp\ccZOZwzR.s 			page 57


 1340              		.cfi_offset 4, -12
 1341              		.cfi_offset 5, -8
 1342              		.cfi_offset 14, -4
 620:.\Generated_Source\PSoC4/CapSense.c **** 	
 1343              		.loc 1 620 0
 1344 0002 1D4B     		ldr	r3, .L97
 1345 0004 1D5C     		ldrb	r5, [r3, r0]
 1346 0006 1D4B     		ldr	r3, .L97+4
 1347 0008 9D71     		strb	r5, [r3, #6]
 623:.\Generated_Source\PSoC4/CapSense.c **** 	
 1348              		.loc 1 623 0
 1349 000a 1D4B     		ldr	r3, .L97+8
 1350 000c 1B5C     		ldrb	r3, [r3, r0]
 1351              	.LVL162:
 626:.\Generated_Source\PSoC4/CapSense.c **** 	{
 1352              		.loc 1 626 0
 1353 000e 002B     		cmp	r3, #0
 1354 0010 00D1     		bne	.L88
 628:.\Generated_Source\PSoC4/CapSense.c **** 	}
 1355              		.loc 1 628 0
 1356 0012 0133     		add	r3, r3, #1
 1357              	.LVL163:
 1358              	.L88:
 632:.\Generated_Source\PSoC4/CapSense.c **** 
 1359              		.loc 1 632 0
 1360 0014 ED18     		add	r5, r5, r3
 1361 0016 013D     		sub	r5, r5, #1
 1362              	.LVL164:
 635:.\Generated_Source\PSoC4/CapSense.c **** 	{
 1363              		.loc 1 635 0
 1364 0018 0023     		mov	r3, #0
 1365              	.LVL165:
 1366 001a 05E0     		b	.L89
 1367              	.LVL166:
 1368              	.L90:
 638:.\Generated_Source\PSoC4/CapSense.c **** 	}
 1369              		.loc 1 638 0 discriminator 3
 1370 001c 174A     		ldr	r2, .L97+4
 1371 001e D218     		add	r2, r2, r3
 1372 0020 117A     		ldrb	r1, [r2, #8]
 1373 0022 184A     		ldr	r2, .L97+12
 1374 0024 D154     		strb	r1, [r2, r3]
 635:.\Generated_Source\PSoC4/CapSense.c **** 	{
 1375              		.loc 1 635 0 discriminator 3
 1376 0026 0133     		add	r3, r3, #1
 1377              	.LVL167:
 1378              	.L89:
 635:.\Generated_Source\PSoC4/CapSense.c **** 	{
 1379              		.loc 1 635 0 is_stmt 0 discriminator 1
 1380 0028 002B     		cmp	r3, #0
 1381 002a F7D0     		beq	.L90
 1382 002c 0024     		mov	r4, #0
 1383 002e 14E0     		b	.L91
 1384              	.LVL168:
 1385              	.L94:
 645:.\Generated_Source\PSoC4/CapSense.c **** 		{
 1386              		.loc 1 645 0 is_stmt 1
ARM GAS  C:\Users\merlin\AppData\Local\Temp\ccZOZwzR.s 			page 58


 1387 0030 124B     		ldr	r3, .L97+4
 1388 0032 9B79     		ldrb	r3, [r3, #6]
 1389 0034 DBB2     		uxtb	r3, r3
 1390 0036 A342     		cmp	r3, r4
 1391 0038 08D8     		bhi	.L92
 645:.\Generated_Source\PSoC4/CapSense.c **** 		{
 1392              		.loc 1 645 0 is_stmt 0 discriminator 1
 1393 003a AC42     		cmp	r4, r5
 1394 003c 06D8     		bhi	.L92
 648:.\Generated_Source\PSoC4/CapSense.c **** 		}
 1395              		.loc 1 648 0 is_stmt 1
 1396 003e 0F48     		ldr	r0, .L97+4
 1397 0040 0830     		add	r0, r0, #8
 1398 0042 211C     		mov	r1, r4
 1399 0044 0122     		mov	r2, #1
 1400 0046 FFF7FEFF 		bl	CapSense_SetBitValue
 1401              	.LVL169:
 1402 004a 05E0     		b	.L93
 1403              	.L92:
 653:.\Generated_Source\PSoC4/CapSense.c **** 		}
 1404              		.loc 1 653 0
 1405 004c 0B48     		ldr	r0, .L97+4
 1406 004e 0830     		add	r0, r0, #8
 1407 0050 211C     		mov	r1, r4
 1408 0052 0022     		mov	r2, #0
 1409 0054 FFF7FEFF 		bl	CapSense_SetBitValue
 1410              	.LVL170:
 1411              	.L93:
 642:.\Generated_Source\PSoC4/CapSense.c **** 	{
 1412              		.loc 1 642 0 discriminator 2
 1413 0058 0134     		add	r4, r4, #1
 1414              	.LVL171:
 1415              	.L91:
 642:.\Generated_Source\PSoC4/CapSense.c **** 	{
 1416              		.loc 1 642 0 is_stmt 0 discriminator 1
 1417 005a 002C     		cmp	r4, #0
 1418 005c E8D0     		beq	.L94
 658:.\Generated_Source\PSoC4/CapSense.c ****     {
 1419              		.loc 1 658 0 is_stmt 1
 1420 005e 074B     		ldr	r3, .L97+4
 1421 0060 9B79     		ldrb	r3, [r3, #6]
 1422 0062 002B     		cmp	r3, #0
 1423 0064 06D1     		bne	.L87
 661:.\Generated_Source\PSoC4/CapSense.c **** 		/* Scan first sensor of widget*/ 
 1424              		.loc 1 661 0
 1425 0066 054B     		ldr	r3, .L97+4
 1426 0068 4122     		mov	r2, #65
 1427 006a 1A70     		strb	r2, [r3]
 663:.\Generated_Source\PSoC4/CapSense.c ****     }
 1428              		.loc 1 663 0
 1429 006c 9879     		ldrb	r0, [r3, #6]
 1430 006e C0B2     		uxtb	r0, r0
 1431 0070 FFF7FEFF 		bl	CapSense_PreScan
 1432              	.LVL172:
 1433              	.L87:
 665:.\Generated_Source\PSoC4/CapSense.c **** #endif /* (0u != CapSense_CSHL_API_GENERATE) */
 1434              		.loc 1 665 0
ARM GAS  C:\Users\merlin\AppData\Local\Temp\ccZOZwzR.s 			page 59


 1435              		@ sp needed
 1436              	.LVL173:
 1437              	.LVL174:
 1438 0074 38BD     		pop	{r3, r4, r5, pc}
 1439              	.L98:
 1440 0076 C046     		.align	2
 1441              	.L97:
 1442 0078 00000000 		.word	CapSense_rawDataIndex
 1443 007c 00000000 		.word	.LANCHOR0
 1444 0080 00000000 		.word	CapSense_numberOfSensors
 1445 0084 00000000 		.word	CapSense_sensorEnableMaskBackup
 1446              		.cfi_endproc
 1447              	.LFE41:
 1448              		.size	CapSense_ScanWidget, .-CapSense_ScanWidget
 1449              		.section	.text.CapSense_GetSenseClkDivider,"ax",%progbits
 1450              		.align	2
 1451              		.global	CapSense_GetSenseClkDivider
 1452              		.code	16
 1453              		.thumb_func
 1454              		.type	CapSense_GetSenseClkDivider, %function
 1455              	CapSense_GetSenseClkDivider:
 1456              	.LFB61:
1802:.\Generated_Source\PSoC4/CapSense.c **** 
1803:.\Generated_Source\PSoC4/CapSense.c **** 
1804:.\Generated_Source\PSoC4/CapSense.c **** 
1805:.\Generated_Source\PSoC4/CapSense.c **** /*******************************************************************************
1806:.\Generated_Source\PSoC4/CapSense.c **** * Function Name: CapSense_GetSenseClkDivider
1807:.\Generated_Source\PSoC4/CapSense.c **** ********************************************************************************
1808:.\Generated_Source\PSoC4/CapSense.c **** *
1809:.\Generated_Source\PSoC4/CapSense.c **** * Summary:
1810:.\Generated_Source\PSoC4/CapSense.c **** *  This API returns a value of the sense clock divider for the  sensor.
1811:.\Generated_Source\PSoC4/CapSense.c **** *
1812:.\Generated_Source\PSoC4/CapSense.c **** * Parameters:
1813:.\Generated_Source\PSoC4/CapSense.c **** *  sensor: sensor index. The index value can be 
1814:.\Generated_Source\PSoC4/CapSense.c **** *  from 0 to (CapSense_TOTAL_SENSOR_COUNT-1).
1815:.\Generated_Source\PSoC4/CapSense.c **** *
1816:.\Generated_Source\PSoC4/CapSense.c **** * Return:
1817:.\Generated_Source\PSoC4/CapSense.c **** *  This API returns the sense clock divider of the sensor. 
1818:.\Generated_Source\PSoC4/CapSense.c **** *
1819:.\Generated_Source\PSoC4/CapSense.c **** * Global Variables:
1820:.\Generated_Source\PSoC4/CapSense.c **** *  CapSense_senseClkDividerVal[] - stores the sense clock divider values.
1821:.\Generated_Source\PSoC4/CapSense.c **** * 
1822:.\Generated_Source\PSoC4/CapSense.c **** * Side Effects:
1823:.\Generated_Source\PSoC4/CapSense.c **** *  None
1824:.\Generated_Source\PSoC4/CapSense.c **** *
1825:.\Generated_Source\PSoC4/CapSense.c **** *******************************************************************************/
1826:.\Generated_Source\PSoC4/CapSense.c **** uint32 CapSense_GetSenseClkDivider(uint32 sensor)
1827:.\Generated_Source\PSoC4/CapSense.c **** {
 1457              		.loc 1 1827 0
 1458              		.cfi_startproc
 1459              	.LVL175:
1828:.\Generated_Source\PSoC4/CapSense.c **** 	#if(0u != CapSense_MULTIPLE_FREQUENCY_SET)
1829:.\Generated_Source\PSoC4/CapSense.c **** 		return((uint32)CapSense_senseClkDividerVal[sensor]);
 1460              		.loc 1 1829 0
 1461 0000 014B     		ldr	r3, .L100
 1462 0002 1818     		add	r0, r3, r0
 1463              	.LVL176:
ARM GAS  C:\Users\merlin\AppData\Local\Temp\ccZOZwzR.s 			page 60


 1464 0004 007A     		ldrb	r0, [r0, #8]
1830:.\Generated_Source\PSoC4/CapSense.c **** 	#else
1831:.\Generated_Source\PSoC4/CapSense.c **** 		return((uint32)CapSense_senseClkDividerVal);
1832:.\Generated_Source\PSoC4/CapSense.c **** 	#endif /* (0u != CapSense_MULTIPLE_FREQUENCY_SET) */
1833:.\Generated_Source\PSoC4/CapSense.c **** }
 1465              		.loc 1 1833 0
 1466              		@ sp needed
 1467 0006 7047     		bx	lr
 1468              	.L101:
 1469              		.align	2
 1470              	.L100:
 1471 0008 00000000 		.word	.LANCHOR1
 1472              		.cfi_endproc
 1473              	.LFE61:
 1474              		.size	CapSense_GetSenseClkDivider, .-CapSense_GetSenseClkDivider
 1475              		.section	.text.CapSense_SetSenseClkDivider,"ax",%progbits
 1476              		.align	2
 1477              		.global	CapSense_SetSenseClkDivider
 1478              		.code	16
 1479              		.thumb_func
 1480              		.type	CapSense_SetSenseClkDivider, %function
 1481              	CapSense_SetSenseClkDivider:
 1482              	.LFB62:
1834:.\Generated_Source\PSoC4/CapSense.c **** 
1835:.\Generated_Source\PSoC4/CapSense.c **** #if (CapSense_TUNING_METHOD != CapSense__TUNING_NONE)
1836:.\Generated_Source\PSoC4/CapSense.c **** 	/*******************************************************************************
1837:.\Generated_Source\PSoC4/CapSense.c **** 	* Function Name: CapSense_SetSenseClkDivider
1838:.\Generated_Source\PSoC4/CapSense.c **** 	********************************************************************************
1839:.\Generated_Source\PSoC4/CapSense.c **** 	*
1840:.\Generated_Source\PSoC4/CapSense.c **** 	* Summary:
1841:.\Generated_Source\PSoC4/CapSense.c **** 	*  This API sets a value of the sense clock divider for the  sensor. 
1842:.\Generated_Source\PSoC4/CapSense.c **** 	*
1843:.\Generated_Source\PSoC4/CapSense.c **** 	* Parameters:
1844:.\Generated_Source\PSoC4/CapSense.c **** 	*  sensor:  Sensor index.
1845:.\Generated_Source\PSoC4/CapSense.c **** 	*  senseClk: represents the sense clock value.
1846:.\Generated_Source\PSoC4/CapSense.c **** 	*
1847:.\Generated_Source\PSoC4/CapSense.c **** 	* Return:
1848:.\Generated_Source\PSoC4/CapSense.c **** 	*  None.
1849:.\Generated_Source\PSoC4/CapSense.c **** 	*
1850:.\Generated_Source\PSoC4/CapSense.c **** 	* Global Variables:
1851:.\Generated_Source\PSoC4/CapSense.c **** 	*  CapSense_senseClkDividerVal[] - stores the sense clock divider values.
1852:.\Generated_Source\PSoC4/CapSense.c **** 	* 
1853:.\Generated_Source\PSoC4/CapSense.c **** 	* Side Effects:
1854:.\Generated_Source\PSoC4/CapSense.c **** 	*  None
1855:.\Generated_Source\PSoC4/CapSense.c **** 	*
1856:.\Generated_Source\PSoC4/CapSense.c **** 	*******************************************************************************/
1857:.\Generated_Source\PSoC4/CapSense.c **** 	void CapSense_SetSenseClkDivider(uint32 sensor, uint32 senseClk)
1858:.\Generated_Source\PSoC4/CapSense.c **** 	{
 1483              		.loc 1 1858 0
 1484              		.cfi_startproc
 1485              	.LVL177:
1859:.\Generated_Source\PSoC4/CapSense.c **** 		#if(0u != CapSense_MULTIPLE_FREQUENCY_SET)
1860:.\Generated_Source\PSoC4/CapSense.c **** 			CapSense_senseClkDividerVal[sensor] = (uint8)senseClk;
 1486              		.loc 1 1860 0
 1487 0000 014B     		ldr	r3, .L103
 1488 0002 1818     		add	r0, r3, r0
 1489              	.LVL178:
ARM GAS  C:\Users\merlin\AppData\Local\Temp\ccZOZwzR.s 			page 61


 1490 0004 0172     		strb	r1, [r0, #8]
1861:.\Generated_Source\PSoC4/CapSense.c **** 		#else
1862:.\Generated_Source\PSoC4/CapSense.c **** 			CapSense_senseClkDividerVal = (uint8)senseClk;
1863:.\Generated_Source\PSoC4/CapSense.c **** 		#endif /* (0u != CapSense_MULTIPLE_FREQUENCY_SET) */
1864:.\Generated_Source\PSoC4/CapSense.c **** 	}
 1491              		.loc 1 1864 0
 1492              		@ sp needed
 1493 0006 7047     		bx	lr
 1494              	.L104:
 1495              		.align	2
 1496              	.L103:
 1497 0008 00000000 		.word	.LANCHOR1
 1498              		.cfi_endproc
 1499              	.LFE62:
 1500              		.size	CapSense_SetSenseClkDivider, .-CapSense_SetSenseClkDivider
 1501              		.section	.text.CapSense_GetModulatorClkDivider,"ax",%progbits
 1502              		.align	2
 1503              		.global	CapSense_GetModulatorClkDivider
 1504              		.code	16
 1505              		.thumb_func
 1506              		.type	CapSense_GetModulatorClkDivider, %function
 1507              	CapSense_GetModulatorClkDivider:
 1508              	.LFB63:
1865:.\Generated_Source\PSoC4/CapSense.c **** #endif /* (CapSense_TUNING_METHOD != CapSense__TUNING_NONE) */
1866:.\Generated_Source\PSoC4/CapSense.c **** 
1867:.\Generated_Source\PSoC4/CapSense.c **** 
1868:.\Generated_Source\PSoC4/CapSense.c **** /*******************************************************************************
1869:.\Generated_Source\PSoC4/CapSense.c **** * Function Name: CapSense_GetModulatorClkDivider
1870:.\Generated_Source\PSoC4/CapSense.c **** ********************************************************************************
1871:.\Generated_Source\PSoC4/CapSense.c **** *
1872:.\Generated_Source\PSoC4/CapSense.c **** * Summary:
1873:.\Generated_Source\PSoC4/CapSense.c **** *  This API returns a value of the modulator sample clock divider for the  sensor.
1874:.\Generated_Source\PSoC4/CapSense.c **** *
1875:.\Generated_Source\PSoC4/CapSense.c **** * Parameters:
1876:.\Generated_Source\PSoC4/CapSense.c **** *  sensor: sensor index. The value of index can be 
1877:.\Generated_Source\PSoC4/CapSense.c **** *  from 0 to (CapSense_TOTAL_SENSOR_COUNT-1).
1878:.\Generated_Source\PSoC4/CapSense.c **** *
1879:.\Generated_Source\PSoC4/CapSense.c **** * Return:
1880:.\Generated_Source\PSoC4/CapSense.c **** *  This API returns the modulator sample clock divider for the  sensor.
1881:.\Generated_Source\PSoC4/CapSense.c **** *
1882:.\Generated_Source\PSoC4/CapSense.c **** * Global Variables:
1883:.\Generated_Source\PSoC4/CapSense.c **** *  CapSense_sampleClkDividerVal[] - stores the modulator sample divider values.
1884:.\Generated_Source\PSoC4/CapSense.c **** * 
1885:.\Generated_Source\PSoC4/CapSense.c **** * Side Effects:
1886:.\Generated_Source\PSoC4/CapSense.c **** *  None
1887:.\Generated_Source\PSoC4/CapSense.c **** *
1888:.\Generated_Source\PSoC4/CapSense.c **** *******************************************************************************/
1889:.\Generated_Source\PSoC4/CapSense.c **** uint32 CapSense_GetModulatorClkDivider(uint32 sensor)
1890:.\Generated_Source\PSoC4/CapSense.c **** {
 1509              		.loc 1 1890 0
 1510              		.cfi_startproc
 1511              	.LVL179:
1891:.\Generated_Source\PSoC4/CapSense.c **** 	#if(0u != CapSense_MULTIPLE_FREQUENCY_SET)
1892:.\Generated_Source\PSoC4/CapSense.c **** 		return((uint32)CapSense_sampleClkDividerVal[sensor]);
 1512              		.loc 1 1892 0
 1513 0000 014B     		ldr	r3, .L106
 1514 0002 1818     		add	r0, r3, r0
ARM GAS  C:\Users\merlin\AppData\Local\Temp\ccZOZwzR.s 			page 62


 1515              	.LVL180:
 1516 0004 0079     		ldrb	r0, [r0, #4]
1893:.\Generated_Source\PSoC4/CapSense.c **** 	#else
1894:.\Generated_Source\PSoC4/CapSense.c **** 		return((uint32)CapSense_sampleClkDividerVal);
1895:.\Generated_Source\PSoC4/CapSense.c **** 	#endif /* (0u != CapSense_MULTIPLE_FREQUENCY_SET) */
1896:.\Generated_Source\PSoC4/CapSense.c **** }
 1517              		.loc 1 1896 0
 1518              		@ sp needed
 1519 0006 7047     		bx	lr
 1520              	.L107:
 1521              		.align	2
 1522              	.L106:
 1523 0008 00000000 		.word	.LANCHOR1
 1524              		.cfi_endproc
 1525              	.LFE63:
 1526              		.size	CapSense_GetModulatorClkDivider, .-CapSense_GetModulatorClkDivider
 1527              		.section	.text.CapSense_SetModulatorClkDivider,"ax",%progbits
 1528              		.align	2
 1529              		.global	CapSense_SetModulatorClkDivider
 1530              		.code	16
 1531              		.thumb_func
 1532              		.type	CapSense_SetModulatorClkDivider, %function
 1533              	CapSense_SetModulatorClkDivider:
 1534              	.LFB64:
1897:.\Generated_Source\PSoC4/CapSense.c **** 
1898:.\Generated_Source\PSoC4/CapSense.c **** #if (CapSense_TUNING_METHOD != CapSense__TUNING_NONE)
1899:.\Generated_Source\PSoC4/CapSense.c **** 	/*******************************************************************************
1900:.\Generated_Source\PSoC4/CapSense.c **** 	* Function Name: CapSense_SetModulatorClkDivider
1901:.\Generated_Source\PSoC4/CapSense.c **** 	********************************************************************************
1902:.\Generated_Source\PSoC4/CapSense.c **** 	*
1903:.\Generated_Source\PSoC4/CapSense.c **** 	* Summary:
1904:.\Generated_Source\PSoC4/CapSense.c **** 	*  This API sets a value of the modulator sample clock divider for the  sensor.
1905:.\Generated_Source\PSoC4/CapSense.c **** 	*
1906:.\Generated_Source\PSoC4/CapSense.c **** 	* Parameters:
1907:.\Generated_Source\PSoC4/CapSense.c **** 	*  sensor:  Sensor index.
1908:.\Generated_Source\PSoC4/CapSense.c **** 	*  modulatorClk: represents the modulator sample clock value.
1909:.\Generated_Source\PSoC4/CapSense.c **** 	*
1910:.\Generated_Source\PSoC4/CapSense.c **** 	* Return:
1911:.\Generated_Source\PSoC4/CapSense.c **** 	*  None.
1912:.\Generated_Source\PSoC4/CapSense.c **** 	*
1913:.\Generated_Source\PSoC4/CapSense.c **** 	* Global Variables:
1914:.\Generated_Source\PSoC4/CapSense.c **** 	*  CapSense_sampleClkDividerVal[] - stores the modulator sample divider values.
1915:.\Generated_Source\PSoC4/CapSense.c **** 	* 
1916:.\Generated_Source\PSoC4/CapSense.c **** 	* Side Effects:
1917:.\Generated_Source\PSoC4/CapSense.c **** 	*  None
1918:.\Generated_Source\PSoC4/CapSense.c **** 	*
1919:.\Generated_Source\PSoC4/CapSense.c **** 	*******************************************************************************/
1920:.\Generated_Source\PSoC4/CapSense.c **** 	void CapSense_SetModulatorClkDivider(uint32 sensor, uint32 modulatorClk)
1921:.\Generated_Source\PSoC4/CapSense.c **** 	{
 1535              		.loc 1 1921 0
 1536              		.cfi_startproc
 1537              	.LVL181:
1922:.\Generated_Source\PSoC4/CapSense.c **** 		#if(0u != CapSense_MULTIPLE_FREQUENCY_SET)
1923:.\Generated_Source\PSoC4/CapSense.c **** 			CapSense_sampleClkDividerVal[sensor] = (uint8)modulatorClk;
 1538              		.loc 1 1923 0
 1539 0000 014B     		ldr	r3, .L109
 1540 0002 1818     		add	r0, r3, r0
ARM GAS  C:\Users\merlin\AppData\Local\Temp\ccZOZwzR.s 			page 63


 1541              	.LVL182:
 1542 0004 0171     		strb	r1, [r0, #4]
1924:.\Generated_Source\PSoC4/CapSense.c **** 		#else
1925:.\Generated_Source\PSoC4/CapSense.c **** 			CapSense_sampleClkDividerVal = (uint8)modulatorClk;
1926:.\Generated_Source\PSoC4/CapSense.c **** 		#endif /* (0u != CapSense_MULTIPLE_FREQUENCY_SET) */
1927:.\Generated_Source\PSoC4/CapSense.c **** 	}
 1543              		.loc 1 1927 0
 1544              		@ sp needed
 1545 0006 7047     		bx	lr
 1546              	.L110:
 1547              		.align	2
 1548              	.L109:
 1549 0008 00000000 		.word	.LANCHOR1
 1550              		.cfi_endproc
 1551              	.LFE64:
 1552              		.size	CapSense_SetModulatorClkDivider, .-CapSense_SetModulatorClkDivider
 1553              		.section	.text.CapSense_GetModulationIDAC,"ax",%progbits
 1554              		.align	2
 1555              		.global	CapSense_GetModulationIDAC
 1556              		.code	16
 1557              		.thumb_func
 1558              		.type	CapSense_GetModulationIDAC, %function
 1559              	CapSense_GetModulationIDAC:
 1560              	.LFB65:
1928:.\Generated_Source\PSoC4/CapSense.c **** #endif /* (CapSense_TUNING_METHOD != CapSense__TUNING_NONE) */
1929:.\Generated_Source\PSoC4/CapSense.c **** 
1930:.\Generated_Source\PSoC4/CapSense.c **** /*******************************************************************************
1931:.\Generated_Source\PSoC4/CapSense.c **** * Function Name: CapSense_GetModulationIDAC
1932:.\Generated_Source\PSoC4/CapSense.c **** ********************************************************************************
1933:.\Generated_Source\PSoC4/CapSense.c **** *
1934:.\Generated_Source\PSoC4/CapSense.c **** * Summary:
1935:.\Generated_Source\PSoC4/CapSense.c **** *  This API returns a value of the modulation IDAC for the  sensor.
1936:.\Generated_Source\PSoC4/CapSense.c **** *
1937:.\Generated_Source\PSoC4/CapSense.c **** * Parameters:
1938:.\Generated_Source\PSoC4/CapSense.c **** *  sensor: sensor index. The index value can be 
1939:.\Generated_Source\PSoC4/CapSense.c **** *  from 0 to (CapSense_TOTAL_SENSOR_COUNT-1).
1940:.\Generated_Source\PSoC4/CapSense.c **** *
1941:.\Generated_Source\PSoC4/CapSense.c **** * Return:
1942:.\Generated_Source\PSoC4/CapSense.c **** *  This API returns the modulation IDAC of the sensor. 
1943:.\Generated_Source\PSoC4/CapSense.c **** *
1944:.\Generated_Source\PSoC4/CapSense.c **** * Global Variables:
1945:.\Generated_Source\PSoC4/CapSense.c **** *  CapSense_modulationIDAC[] - stores modulation IDAC values.
1946:.\Generated_Source\PSoC4/CapSense.c **** * 
1947:.\Generated_Source\PSoC4/CapSense.c **** * Side Effects:
1948:.\Generated_Source\PSoC4/CapSense.c **** *  None
1949:.\Generated_Source\PSoC4/CapSense.c **** *
1950:.\Generated_Source\PSoC4/CapSense.c **** *******************************************************************************/
1951:.\Generated_Source\PSoC4/CapSense.c **** uint32 CapSense_GetModulationIDAC(uint32 sensor)
1952:.\Generated_Source\PSoC4/CapSense.c **** {
 1561              		.loc 1 1952 0
 1562              		.cfi_startproc
 1563              	.LVL183:
1953:.\Generated_Source\PSoC4/CapSense.c **** 		return((uint32)CapSense_modulationIDAC[sensor]);
 1564              		.loc 1 1953 0
 1565 0000 014B     		ldr	r3, .L112
 1566 0002 1818     		add	r0, r3, r0
 1567              	.LVL184:
ARM GAS  C:\Users\merlin\AppData\Local\Temp\ccZOZwzR.s 			page 64


 1568 0004 007B     		ldrb	r0, [r0, #12]
1954:.\Generated_Source\PSoC4/CapSense.c **** }
 1569              		.loc 1 1954 0
 1570              		@ sp needed
 1571 0006 7047     		bx	lr
 1572              	.L113:
 1573              		.align	2
 1574              	.L112:
 1575 0008 00000000 		.word	.LANCHOR1
 1576              		.cfi_endproc
 1577              	.LFE65:
 1578              		.size	CapSense_GetModulationIDAC, .-CapSense_GetModulationIDAC
 1579              		.section	.text.CapSense_SetModulationIDAC,"ax",%progbits
 1580              		.align	2
 1581              		.global	CapSense_SetModulationIDAC
 1582              		.code	16
 1583              		.thumb_func
 1584              		.type	CapSense_SetModulationIDAC, %function
 1585              	CapSense_SetModulationIDAC:
 1586              	.LFB66:
1955:.\Generated_Source\PSoC4/CapSense.c **** 
1956:.\Generated_Source\PSoC4/CapSense.c **** #if (CapSense_TUNING_METHOD != CapSense__TUNING_NONE)
1957:.\Generated_Source\PSoC4/CapSense.c **** 	/*******************************************************************************
1958:.\Generated_Source\PSoC4/CapSense.c **** 	* Function Name: CapSense_SetModulationIDAC
1959:.\Generated_Source\PSoC4/CapSense.c **** 	********************************************************************************
1960:.\Generated_Source\PSoC4/CapSense.c **** 	*
1961:.\Generated_Source\PSoC4/CapSense.c **** 	* Summary:
1962:.\Generated_Source\PSoC4/CapSense.c **** 	*  This API sets a value of the modulation IDAC for the  sensor.
1963:.\Generated_Source\PSoC4/CapSense.c **** 	*
1964:.\Generated_Source\PSoC4/CapSense.c **** 	* Parameters:
1965:.\Generated_Source\PSoC4/CapSense.c **** 	*  sensor:  Sensor index.
1966:.\Generated_Source\PSoC4/CapSense.c **** 	*  compIdacValue: represents the modulation IDAC data register value.
1967:.\Generated_Source\PSoC4/CapSense.c **** 	*
1968:.\Generated_Source\PSoC4/CapSense.c **** 	* Return:
1969:.\Generated_Source\PSoC4/CapSense.c **** 	*  None.
1970:.\Generated_Source\PSoC4/CapSense.c **** 	*
1971:.\Generated_Source\PSoC4/CapSense.c **** 	* Global Variables:
1972:.\Generated_Source\PSoC4/CapSense.c **** 	*  CapSense_modulationIDAC[] - array with modulation IDAC values
1973:.\Generated_Source\PSoC4/CapSense.c **** 	* 
1974:.\Generated_Source\PSoC4/CapSense.c **** 	* Side Effects:
1975:.\Generated_Source\PSoC4/CapSense.c **** 	*  None
1976:.\Generated_Source\PSoC4/CapSense.c **** 	*
1977:.\Generated_Source\PSoC4/CapSense.c **** 	*******************************************************************************/
1978:.\Generated_Source\PSoC4/CapSense.c **** 	void CapSense_SetModulationIDAC(uint32 sensor, uint32 modIdacValue)
1979:.\Generated_Source\PSoC4/CapSense.c **** 	{
 1587              		.loc 1 1979 0
 1588              		.cfi_startproc
 1589              	.LVL185:
1980:.\Generated_Source\PSoC4/CapSense.c **** 		CapSense_modulationIDAC[sensor] = (uint8)modIdacValue;
 1590              		.loc 1 1980 0
 1591 0000 014B     		ldr	r3, .L115
 1592 0002 1818     		add	r0, r3, r0
 1593              	.LVL186:
 1594 0004 0173     		strb	r1, [r0, #12]
1981:.\Generated_Source\PSoC4/CapSense.c **** 	}
 1595              		.loc 1 1981 0
 1596              		@ sp needed
ARM GAS  C:\Users\merlin\AppData\Local\Temp\ccZOZwzR.s 			page 65


 1597 0006 7047     		bx	lr
 1598              	.L116:
 1599              		.align	2
 1600              	.L115:
 1601 0008 00000000 		.word	.LANCHOR1
 1602              		.cfi_endproc
 1603              	.LFE66:
 1604              		.size	CapSense_SetModulationIDAC, .-CapSense_SetModulationIDAC
 1605              		.section	.text.CapSense_GetCompensationIDAC,"ax",%progbits
 1606              		.align	2
 1607              		.global	CapSense_GetCompensationIDAC
 1608              		.code	16
 1609              		.thumb_func
 1610              		.type	CapSense_GetCompensationIDAC, %function
 1611              	CapSense_GetCompensationIDAC:
 1612              	.LFB67:
1982:.\Generated_Source\PSoC4/CapSense.c **** #endif /* (CapSense_TUNING_METHOD != CapSense__TUNING_NONE) */
1983:.\Generated_Source\PSoC4/CapSense.c **** 
1984:.\Generated_Source\PSoC4/CapSense.c **** 
1985:.\Generated_Source\PSoC4/CapSense.c **** #if(CapSense_IDAC_CNT > 1u)
1986:.\Generated_Source\PSoC4/CapSense.c **** 	/*******************************************************************************
1987:.\Generated_Source\PSoC4/CapSense.c **** 	* Function Name: CapSense_GetCompensationIDAC
1988:.\Generated_Source\PSoC4/CapSense.c **** 	********************************************************************************
1989:.\Generated_Source\PSoC4/CapSense.c **** 	*
1990:.\Generated_Source\PSoC4/CapSense.c **** 	* Summary:
1991:.\Generated_Source\PSoC4/CapSense.c **** 	*  This API returns a value of the compensation IDAC for the  sensor.
1992:.\Generated_Source\PSoC4/CapSense.c **** 	*
1993:.\Generated_Source\PSoC4/CapSense.c **** 	* Parameters:
1994:.\Generated_Source\PSoC4/CapSense.c **** 	*  sensor: sensor index. The index value can be 
1995:.\Generated_Source\PSoC4/CapSense.c **** 	*  from 0 to (CapSense_TOTAL_SENSOR_COUNT-1).
1996:.\Generated_Source\PSoC4/CapSense.c **** 	*
1997:.\Generated_Source\PSoC4/CapSense.c **** 	* Return:
1998:.\Generated_Source\PSoC4/CapSense.c **** 	*  This API returns the compensation IDAC of the sensor. 
1999:.\Generated_Source\PSoC4/CapSense.c **** 	*
2000:.\Generated_Source\PSoC4/CapSense.c **** 	* Global Variables:
2001:.\Generated_Source\PSoC4/CapSense.c **** 	*  CapSense_compensationIDAC[] - stores the compensation IDAC values.
2002:.\Generated_Source\PSoC4/CapSense.c **** 	* 
2003:.\Generated_Source\PSoC4/CapSense.c **** 	* Side Effects:
2004:.\Generated_Source\PSoC4/CapSense.c **** 	*  None
2005:.\Generated_Source\PSoC4/CapSense.c **** 	*
2006:.\Generated_Source\PSoC4/CapSense.c **** 	*******************************************************************************/
2007:.\Generated_Source\PSoC4/CapSense.c **** 	uint32 CapSense_GetCompensationIDAC(uint32 sensor)
2008:.\Generated_Source\PSoC4/CapSense.c **** 	{
 1613              		.loc 1 2008 0
 1614              		.cfi_startproc
 1615              	.LVL187:
2009:.\Generated_Source\PSoC4/CapSense.c **** 		return((uint32)CapSense_compensationIDAC[sensor]);
 1616              		.loc 1 2009 0
 1617 0000 014B     		ldr	r3, .L118
 1618 0002 1818     		add	r0, r3, r0
 1619              	.LVL188:
 1620 0004 007C     		ldrb	r0, [r0, #16]
2010:.\Generated_Source\PSoC4/CapSense.c **** 	}
 1621              		.loc 1 2010 0
 1622              		@ sp needed
 1623 0006 7047     		bx	lr
 1624              	.L119:
ARM GAS  C:\Users\merlin\AppData\Local\Temp\ccZOZwzR.s 			page 66


 1625              		.align	2
 1626              	.L118:
 1627 0008 00000000 		.word	.LANCHOR1
 1628              		.cfi_endproc
 1629              	.LFE67:
 1630              		.size	CapSense_GetCompensationIDAC, .-CapSense_GetCompensationIDAC
 1631              		.section	.text.CapSense_SetCompensationIDAC,"ax",%progbits
 1632              		.align	2
 1633              		.global	CapSense_SetCompensationIDAC
 1634              		.code	16
 1635              		.thumb_func
 1636              		.type	CapSense_SetCompensationIDAC, %function
 1637              	CapSense_SetCompensationIDAC:
 1638              	.LFB68:
2011:.\Generated_Source\PSoC4/CapSense.c **** #endif /* (CapSense_IDAC_CNT > 1u) */
2012:.\Generated_Source\PSoC4/CapSense.c **** 
2013:.\Generated_Source\PSoC4/CapSense.c **** 
2014:.\Generated_Source\PSoC4/CapSense.c **** #if((CapSense_TUNING_METHOD != CapSense__TUNING_NONE) && (CapSense_IDAC_CNT > 1u))
2015:.\Generated_Source\PSoC4/CapSense.c **** 	/*******************************************************************************
2016:.\Generated_Source\PSoC4/CapSense.c **** 	* Function Name: CapSense_SetCompensationIDAC
2017:.\Generated_Source\PSoC4/CapSense.c **** 	********************************************************************************
2018:.\Generated_Source\PSoC4/CapSense.c **** 	*
2019:.\Generated_Source\PSoC4/CapSense.c **** 	* Summary:
2020:.\Generated_Source\PSoC4/CapSense.c **** 	*  This API sets a value of compensation IDAC for the  sensor.
2021:.\Generated_Source\PSoC4/CapSense.c **** 	*
2022:.\Generated_Source\PSoC4/CapSense.c **** 	* Parameters:
2023:.\Generated_Source\PSoC4/CapSense.c **** 	*  sensor:  Sensor index.
2024:.\Generated_Source\PSoC4/CapSense.c **** 	*  compIdacValue: represents the compensation IDAC data register value.
2025:.\Generated_Source\PSoC4/CapSense.c **** 	*
2026:.\Generated_Source\PSoC4/CapSense.c **** 	* Return:
2027:.\Generated_Source\PSoC4/CapSense.c **** 	*  None.
2028:.\Generated_Source\PSoC4/CapSense.c **** 	*
2029:.\Generated_Source\PSoC4/CapSense.c **** 	* Global Variables:
2030:.\Generated_Source\PSoC4/CapSense.c **** 	*  CapSense_compensationIDAC[] - an array with compensation IDAC values
2031:.\Generated_Source\PSoC4/CapSense.c **** 	* 
2032:.\Generated_Source\PSoC4/CapSense.c **** 	* Side Effects:
2033:.\Generated_Source\PSoC4/CapSense.c **** 	*  None
2034:.\Generated_Source\PSoC4/CapSense.c **** 	*
2035:.\Generated_Source\PSoC4/CapSense.c **** 	*******************************************************************************/
2036:.\Generated_Source\PSoC4/CapSense.c **** 	void CapSense_SetCompensationIDAC(uint32 sensor, uint32 compIdacValue)
2037:.\Generated_Source\PSoC4/CapSense.c **** 	{
 1639              		.loc 1 2037 0
 1640              		.cfi_startproc
 1641              	.LVL189:
2038:.\Generated_Source\PSoC4/CapSense.c **** 		CapSense_compensationIDAC[sensor] = (uint8)compIdacValue;
 1642              		.loc 1 2038 0
 1643 0000 014B     		ldr	r3, .L121
 1644 0002 1818     		add	r0, r3, r0
 1645              	.LVL190:
 1646 0004 0174     		strb	r1, [r0, #16]
2039:.\Generated_Source\PSoC4/CapSense.c **** 	}
 1647              		.loc 1 2039 0
 1648              		@ sp needed
 1649 0006 7047     		bx	lr
 1650              	.L122:
 1651              		.align	2
 1652              	.L121:
ARM GAS  C:\Users\merlin\AppData\Local\Temp\ccZOZwzR.s 			page 67


 1653 0008 00000000 		.word	.LANCHOR1
 1654              		.cfi_endproc
 1655              	.LFE68:
 1656              		.size	CapSense_SetCompensationIDAC, .-CapSense_SetCompensationIDAC
 1657              		.section	.text.CapSense_GetIDACRange,"ax",%progbits
 1658              		.align	2
 1659              		.global	CapSense_GetIDACRange
 1660              		.code	16
 1661              		.thumb_func
 1662              		.type	CapSense_GetIDACRange, %function
 1663              	CapSense_GetIDACRange:
 1664              	.LFB69:
2040:.\Generated_Source\PSoC4/CapSense.c **** #endif /* ((CapSense_TUNING_METHOD != CapSense__TUNING_NONE) && (CapSense_IDAC_CNT > 1u)) */
2041:.\Generated_Source\PSoC4/CapSense.c **** 
2042:.\Generated_Source\PSoC4/CapSense.c **** /*******************************************************************************
2043:.\Generated_Source\PSoC4/CapSense.c **** * Function Name: CapSense_GetIDACRange
2044:.\Generated_Source\PSoC4/CapSense.c **** ********************************************************************************
2045:.\Generated_Source\PSoC4/CapSense.c **** *
2046:.\Generated_Source\PSoC4/CapSense.c **** * Summary:
2047:.\Generated_Source\PSoC4/CapSense.c **** *  This API returns a value that indicates the IDAC range used by the 
2048:.\Generated_Source\PSoC4/CapSense.c **** *  component to scan sensors. The IDAC range is common for all the sensors.
2049:.\Generated_Source\PSoC4/CapSense.c **** *
2050:.\Generated_Source\PSoC4/CapSense.c **** * Parameters:
2051:.\Generated_Source\PSoC4/CapSense.c **** *  None
2052:.\Generated_Source\PSoC4/CapSense.c **** *
2053:.\Generated_Source\PSoC4/CapSense.c **** * Return:
2054:.\Generated_Source\PSoC4/CapSense.c **** *  This API Returns a value that indicates the IDAC range:
2055:.\Generated_Source\PSoC4/CapSense.c **** *      0 - IDAC range set to 4x
2056:.\Generated_Source\PSoC4/CapSense.c **** *      1 - IDAC range set to 8x
2057:.\Generated_Source\PSoC4/CapSense.c **** *
2058:.\Generated_Source\PSoC4/CapSense.c **** * Global Variables:
2059:.\Generated_Source\PSoC4/CapSense.c **** *  None
2060:.\Generated_Source\PSoC4/CapSense.c **** * 
2061:.\Generated_Source\PSoC4/CapSense.c **** * Side Effects:
2062:.\Generated_Source\PSoC4/CapSense.c **** *  None
2063:.\Generated_Source\PSoC4/CapSense.c **** *
2064:.\Generated_Source\PSoC4/CapSense.c **** *******************************************************************************/
2065:.\Generated_Source\PSoC4/CapSense.c **** uint32 CapSense_GetIDACRange(void)
2066:.\Generated_Source\PSoC4/CapSense.c **** {
 1665              		.loc 1 2066 0
 1666              		.cfi_startproc
2067:.\Generated_Source\PSoC4/CapSense.c **** 	return((0u != (CapSense_CSD_IDAC_REG & CapSense_CSD_IDAC1_RANGE_8X)) ? 1uL : 0uL);
 1667              		.loc 1 2067 0
 1668 0000 034B     		ldr	r3, .L125
 1669 0002 1868     		ldr	r0, [r3]
 1670 0004 8023     		mov	r3, #128
 1671 0006 DB00     		lsl	r3, r3, #3
 1672 0008 1840     		and	r0, r3
 1673 000a 00D0     		beq	.L124
 1674 000c 0120     		mov	r0, #1
 1675              	.L124:
2068:.\Generated_Source\PSoC4/CapSense.c **** }
 1676              		.loc 1 2068 0 discriminator 4
 1677              		@ sp needed
 1678 000e 7047     		bx	lr
 1679              	.L126:
 1680              		.align	2
ARM GAS  C:\Users\merlin\AppData\Local\Temp\ccZOZwzR.s 			page 68


 1681              	.L125:
 1682 0010 08002840 		.word	1076363272
 1683              		.cfi_endproc
 1684              	.LFE69:
 1685              		.size	CapSense_GetIDACRange, .-CapSense_GetIDACRange
 1686              		.section	.text.CapSense_SetIDACRange,"ax",%progbits
 1687              		.align	2
 1688              		.global	CapSense_SetIDACRange
 1689              		.code	16
 1690              		.thumb_func
 1691              		.type	CapSense_SetIDACRange, %function
 1692              	CapSense_SetIDACRange:
 1693              	.LFB70:
2069:.\Generated_Source\PSoC4/CapSense.c **** 
2070:.\Generated_Source\PSoC4/CapSense.c **** #if (CapSense_TUNING_METHOD != CapSense__TUNING_NONE)
2071:.\Generated_Source\PSoC4/CapSense.c **** 	/*******************************************************************************
2072:.\Generated_Source\PSoC4/CapSense.c **** 	* Function Name: CapSense_SetIDACRange
2073:.\Generated_Source\PSoC4/CapSense.c **** 	********************************************************************************
2074:.\Generated_Source\PSoC4/CapSense.c **** 	*
2075:.\Generated_Source\PSoC4/CapSense.c **** 	* Summary:
2076:.\Generated_Source\PSoC4/CapSense.c **** 	*  This API sets the IDAC range to the 4x (1.2uA/bit) or 8x (2.4uA/bit) mode.
2077:.\Generated_Source\PSoC4/CapSense.c ****     *  The IDAC range is common for all the sensors and common for the modulation and 
2078:.\Generated_Source\PSoC4/CapSense.c **** 	*  compensation IDACs.
2079:.\Generated_Source\PSoC4/CapSense.c **** 	*
2080:.\Generated_Source\PSoC4/CapSense.c **** 	* Parameters:
2081:.\Generated_Source\PSoC4/CapSense.c **** 	*  iDacRange:  represents value for IDAC range 
2082:.\Generated_Source\PSoC4/CapSense.c **** 	*  0 -  IDAC range set to 4x (1.2uA/bit)
2083:.\Generated_Source\PSoC4/CapSense.c **** 	*  1 or >1 - IDAC range set to 8x (2.4uA/bit)
2084:.\Generated_Source\PSoC4/CapSense.c **** 	*
2085:.\Generated_Source\PSoC4/CapSense.c **** 	* Return:
2086:.\Generated_Source\PSoC4/CapSense.c **** 	*  None.
2087:.\Generated_Source\PSoC4/CapSense.c **** 	*
2088:.\Generated_Source\PSoC4/CapSense.c **** 	* Global Variables:
2089:.\Generated_Source\PSoC4/CapSense.c **** 	*  None
2090:.\Generated_Source\PSoC4/CapSense.c **** 	* 
2091:.\Generated_Source\PSoC4/CapSense.c **** 	* Side Effects:
2092:.\Generated_Source\PSoC4/CapSense.c **** 	*  None
2093:.\Generated_Source\PSoC4/CapSense.c **** 	*
2094:.\Generated_Source\PSoC4/CapSense.c **** 	*******************************************************************************/
2095:.\Generated_Source\PSoC4/CapSense.c **** 	void CapSense_SetIDACRange(uint32 iDacRange)
2096:.\Generated_Source\PSoC4/CapSense.c **** 	{
 1694              		.loc 1 2096 0
 1695              		.cfi_startproc
 1696              	.LVL191:
2097:.\Generated_Source\PSoC4/CapSense.c **** 	    if(iDacRange != 0u)
 1697              		.loc 1 2097 0
 1698 0000 0028     		cmp	r0, #0
 1699 0002 05D0     		beq	.L128
2098:.\Generated_Source\PSoC4/CapSense.c **** 		{
2099:.\Generated_Source\PSoC4/CapSense.c **** 		    /*  IDAC range = 8x (2.4uA/bit) */ 
2100:.\Generated_Source\PSoC4/CapSense.c **** 		    CapSense_CSD_IDAC_REG |= (CapSense_CSD_IDAC1_RANGE_8X |\
 1700              		.loc 1 2100 0
 1701 0004 054A     		ldr	r2, .L130
 1702 0006 1368     		ldr	r3, [r2]
 1703 0008 0549     		ldr	r1, .L130+4
 1704 000a 0B43     		orr	r3, r1
 1705 000c 1360     		str	r3, [r2]
ARM GAS  C:\Users\merlin\AppData\Local\Temp\ccZOZwzR.s 			page 69


 1706 000e 04E0     		b	.L127
 1707              	.L128:
2101:.\Generated_Source\PSoC4/CapSense.c **** 											  CapSense_CSD_IDAC2_RANGE_8X);
2102:.\Generated_Source\PSoC4/CapSense.c **** 		}
2103:.\Generated_Source\PSoC4/CapSense.c **** 		else
2104:.\Generated_Source\PSoC4/CapSense.c **** 		{
2105:.\Generated_Source\PSoC4/CapSense.c **** 		    /*  IDAC range = 4x (1.2uA/bit) */ 
2106:.\Generated_Source\PSoC4/CapSense.c **** 		    /*  IDAC range = 8x (2.4uA/bit) */ 
2107:.\Generated_Source\PSoC4/CapSense.c **** 		    CapSense_CSD_IDAC_REG &= ~(CapSense_CSD_IDAC1_RANGE_8X |\
 1708              		.loc 1 2107 0
 1709 0010 024A     		ldr	r2, .L130
 1710 0012 1168     		ldr	r1, [r2]
 1711 0014 034B     		ldr	r3, .L130+8
 1712 0016 0B40     		and	r3, r1
 1713 0018 1360     		str	r3, [r2]
 1714              	.L127:
2108:.\Generated_Source\PSoC4/CapSense.c **** 											   CapSense_CSD_IDAC2_RANGE_8X);
2109:.\Generated_Source\PSoC4/CapSense.c **** 		}
2110:.\Generated_Source\PSoC4/CapSense.c **** 	}
 1715              		.loc 1 2110 0
 1716              		@ sp needed
 1717 001a 7047     		bx	lr
 1718              	.L131:
 1719              		.align	2
 1720              	.L130:
 1721 001c 08002840 		.word	1076363272
 1722 0020 00040004 		.word	67109888
 1723 0024 FFFBFFFB 		.word	-67109889
 1724              		.cfi_endproc
 1725              	.LFE70:
 1726              		.size	CapSense_SetIDACRange, .-CapSense_SetIDACRange
 1727              		.section	.text.CapSense_GetSensorRaw,"ax",%progbits
 1728              		.align	2
 1729              		.global	CapSense_GetSensorRaw
 1730              		.code	16
 1731              		.thumb_func
 1732              		.type	CapSense_GetSensorRaw, %function
 1733              	CapSense_GetSensorRaw:
 1734              	.LFB71:
2111:.\Generated_Source\PSoC4/CapSense.c **** #endif /* (CapSense_TUNING_METHOD != CapSense__TUNING_NONE) */
2112:.\Generated_Source\PSoC4/CapSense.c **** 
2113:.\Generated_Source\PSoC4/CapSense.c **** 
2114:.\Generated_Source\PSoC4/CapSense.c **** #if((0u != CapSense_AUTOCALIBRATION_ENABLE) || (CapSense_TUNING_METHOD == CapSense__TUNING_AUTO))
2115:.\Generated_Source\PSoC4/CapSense.c **** 	/*******************************************************************************
2116:.\Generated_Source\PSoC4/CapSense.c **** 	* Function Name: CapSense_GetSensorRaw
2117:.\Generated_Source\PSoC4/CapSense.c **** 	********************************************************************************
2118:.\Generated_Source\PSoC4/CapSense.c **** 	*
2119:.\Generated_Source\PSoC4/CapSense.c **** 	* Summary:
2120:.\Generated_Source\PSoC4/CapSense.c **** 	*  The API updates and gets uprated raw data from the sensor.
2121:.\Generated_Source\PSoC4/CapSense.c **** 	*
2122:.\Generated_Source\PSoC4/CapSense.c **** 	* Parameters:
2123:.\Generated_Source\PSoC4/CapSense.c **** 	*  sensor - Sensor number.
2124:.\Generated_Source\PSoC4/CapSense.c **** 	*
2125:.\Generated_Source\PSoC4/CapSense.c **** 	* Return:
2126:.\Generated_Source\PSoC4/CapSense.c **** 	*  Returns the current raw data value for a defined sensor number.
2127:.\Generated_Source\PSoC4/CapSense.c **** 	*
2128:.\Generated_Source\PSoC4/CapSense.c **** 	* Global Variables:
ARM GAS  C:\Users\merlin\AppData\Local\Temp\ccZOZwzR.s 			page 70


2129:.\Generated_Source\PSoC4/CapSense.c **** 	*  None
2130:.\Generated_Source\PSoC4/CapSense.c **** 	*
2131:.\Generated_Source\PSoC4/CapSense.c **** 	* Side Effects:
2132:.\Generated_Source\PSoC4/CapSense.c **** 	*  None
2133:.\Generated_Source\PSoC4/CapSense.c **** 	*
2134:.\Generated_Source\PSoC4/CapSense.c **** 	*******************************************************************************/
2135:.\Generated_Source\PSoC4/CapSense.c **** 	uint16  CapSense_GetSensorRaw(uint32 sensor)
2136:.\Generated_Source\PSoC4/CapSense.c **** 	{
 1735              		.loc 1 2136 0
 1736              		.cfi_startproc
 1737              	.LVL192:
 1738 0000 70B5     		push	{r4, r5, r6, lr}
 1739              		.cfi_def_cfa_offset 16
 1740              		.cfi_offset 4, -16
 1741              		.cfi_offset 5, -12
 1742              		.cfi_offset 6, -8
 1743              		.cfi_offset 14, -4
 1744 0002 061C     		mov	r6, r0
 1745              	.LVL193:
2137:.\Generated_Source\PSoC4/CapSense.c **** 		uint32 curSample;
2138:.\Generated_Source\PSoC4/CapSense.c **** 		uint32 avgVal = 0u;
 1746              		.loc 1 2138 0
 1747 0004 0024     		mov	r4, #0
2139:.\Generated_Source\PSoC4/CapSense.c **** 		
2140:.\Generated_Source\PSoC4/CapSense.c **** 		for(curSample = 0u; curSample < CapSense_AVG_SAMPLES_NUM; curSample++)
 1748              		.loc 1 2140 0
 1749 0006 0025     		mov	r5, #0
 1750 0008 0BE0     		b	.L133
 1751              	.LVL194:
 1752              	.L135:
2141:.\Generated_Source\PSoC4/CapSense.c **** 		{
2142:.\Generated_Source\PSoC4/CapSense.c **** 	    
2143:.\Generated_Source\PSoC4/CapSense.c **** 			CapSense_ScanSensor((uint32)sensor);
 1753              		.loc 1 2143 0
 1754 000a 301C     		mov	r0, r6
 1755 000c FFF7FEFF 		bl	CapSense_ScanSensor
 1756              	.LVL195:
 1757              	.L134:
2144:.\Generated_Source\PSoC4/CapSense.c **** 		    while(CapSense_IsBusy() == 1u)
 1758              		.loc 1 2144 0 discriminator 1
 1759 0010 FFF7FEFF 		bl	CapSense_IsBusy
 1760              	.LVL196:
 1761 0014 0128     		cmp	r0, #1
 1762 0016 FBD0     		beq	.L134
2145:.\Generated_Source\PSoC4/CapSense.c **** 			{
2146:.\Generated_Source\PSoC4/CapSense.c **** 				/* Wait while sensor is busy */
2147:.\Generated_Source\PSoC4/CapSense.c **** 			}
2148:.\Generated_Source\PSoC4/CapSense.c **** 			avgVal += CapSense_ReadSensorRaw((uint32)sensor);
 1763              		.loc 1 2148 0 discriminator 2
 1764 0018 301C     		mov	r0, r6
 1765 001a FFF7FEFF 		bl	CapSense_ReadSensorRaw
 1766              	.LVL197:
 1767 001e 2418     		add	r4, r4, r0
 1768              	.LVL198:
2140:.\Generated_Source\PSoC4/CapSense.c **** 		{
 1769              		.loc 1 2140 0 discriminator 2
 1770 0020 0135     		add	r5, r5, #1
ARM GAS  C:\Users\merlin\AppData\Local\Temp\ccZOZwzR.s 			page 71


 1771              	.LVL199:
 1772              	.L133:
2140:.\Generated_Source\PSoC4/CapSense.c **** 		{
 1773              		.loc 1 2140 0 is_stmt 0 discriminator 1
 1774 0022 002D     		cmp	r5, #0
 1775 0024 F1D0     		beq	.L135
2149:.\Generated_Source\PSoC4/CapSense.c **** 		}
2150:.\Generated_Source\PSoC4/CapSense.c **** 	    
2151:.\Generated_Source\PSoC4/CapSense.c **** 	    return((uint16)(avgVal / CapSense_AVG_SAMPLES_NUM));
 1776              		.loc 1 2151 0 is_stmt 1
 1777 0026 A0B2     		uxth	r0, r4
2152:.\Generated_Source\PSoC4/CapSense.c **** 	}
 1778              		.loc 1 2152 0
 1779              		@ sp needed
 1780              	.LVL200:
 1781              	.LVL201:
 1782              	.LVL202:
 1783 0028 70BD     		pop	{r4, r5, r6, pc}
 1784              		.cfi_endproc
 1785              	.LFE71:
 1786              		.size	CapSense_GetSensorRaw, .-CapSense_GetSensorRaw
 1787 002a C046     		.section	.text.CapSense_CalibrateSensor,"ax",%progbits
 1788              		.align	2
 1789              		.global	CapSense_CalibrateSensor
 1790              		.code	16
 1791              		.thumb_func
 1792              		.type	CapSense_CalibrateSensor, %function
 1793              	CapSense_CalibrateSensor:
 1794              	.LFB72:
2153:.\Generated_Source\PSoC4/CapSense.c **** #endif /* ((0u != CapSense_AUTOCALIBRATION_ENABLE) && (CapSense_TUNING_METHOD == CapSense__TUNING_A
2154:.\Generated_Source\PSoC4/CapSense.c **** 
2155:.\Generated_Source\PSoC4/CapSense.c **** 
2156:.\Generated_Source\PSoC4/CapSense.c **** #if((0u != CapSense_AUTOCALIBRATION_ENABLE) && (CapSense_TUNING_METHOD != CapSense__TUNING_AUTO))
2157:.\Generated_Source\PSoC4/CapSense.c **** 	/*******************************************************************************
2158:.\Generated_Source\PSoC4/CapSense.c **** 	* Function Name: CapSense_CalibrateSensor
2159:.\Generated_Source\PSoC4/CapSense.c **** 	********************************************************************************
2160:.\Generated_Source\PSoC4/CapSense.c **** 	*
2161:.\Generated_Source\PSoC4/CapSense.c **** 	* Summary:
2162:.\Generated_Source\PSoC4/CapSense.c **** 	*  Computes the one sensor IDAC value, which provides the raw signal on
2163:.\Generated_Source\PSoC4/CapSense.c **** 	*  a specified level, with a specified prescaler, speed, and resolution.
2164:.\Generated_Source\PSoC4/CapSense.c **** 	*
2165:.\Generated_Source\PSoC4/CapSense.c **** 	* Parameters:
2166:.\Generated_Source\PSoC4/CapSense.c **** 	*  sensor - Sensor Number.
2167:.\Generated_Source\PSoC4/CapSense.c **** 	*
2168:.\Generated_Source\PSoC4/CapSense.c **** 	*  rawLevel -  Raw data level which should be reached during the calibration
2169:.\Generated_Source\PSoC4/CapSense.c **** 	*              procedure.
2170:.\Generated_Source\PSoC4/CapSense.c **** 	*
2171:.\Generated_Source\PSoC4/CapSense.c **** 	*  idacLevelsTbl - Pointer to the modulatorIdac data register configuration table.            
2172:.\Generated_Source\PSoC4/CapSense.c **** 	*
2173:.\Generated_Source\PSoC4/CapSense.c **** 	* Return:       
2174:.\Generated_Source\PSoC4/CapSense.c **** 	*  None
2175:.\Generated_Source\PSoC4/CapSense.c **** 	*
2176:.\Generated_Source\PSoC4/CapSense.c **** 	*******************************************************************************/
2177:.\Generated_Source\PSoC4/CapSense.c **** 	void CapSense_CalibrateSensor(uint32 sensor, uint32 rawLevel, uint8 idacLevelsTbl[])
2178:.\Generated_Source\PSoC4/CapSense.c **** 	{
 1795              		.loc 1 2178 0
 1796              		.cfi_startproc
ARM GAS  C:\Users\merlin\AppData\Local\Temp\ccZOZwzR.s 			page 72


 1797              	.LVL203:
 1798 0000 F8B5     		push	{r3, r4, r5, r6, r7, lr}
 1799              		.cfi_def_cfa_offset 24
 1800              		.cfi_offset 3, -24
 1801              		.cfi_offset 4, -20
 1802              		.cfi_offset 5, -16
 1803              		.cfi_offset 6, -12
 1804              		.cfi_offset 7, -8
 1805              		.cfi_offset 14, -4
 1806 0002 051C     		mov	r5, r0
 1807 0004 0F1C     		mov	r7, r1
 1808              	.LVL204:
2179:.\Generated_Source\PSoC4/CapSense.c **** 		uint8 mask;
2180:.\Generated_Source\PSoC4/CapSense.c **** 		uint16 rawData;
2181:.\Generated_Source\PSoC4/CapSense.c **** 		
2182:.\Generated_Source\PSoC4/CapSense.c **** 		rawData = 0u;
2183:.\Generated_Source\PSoC4/CapSense.c **** 		
2184:.\Generated_Source\PSoC4/CapSense.c **** 		mask = 0x80u;
2185:.\Generated_Source\PSoC4/CapSense.c **** 		/* Init IDAC for null Channel */
2186:.\Generated_Source\PSoC4/CapSense.c **** 		idacLevelsTbl[sensor] = 0x00u;
 1809              		.loc 1 2186 0
 1810 0006 1618     		add	r6, r2, r0
 1811 0008 0023     		mov	r3, #0
 1812 000a 3370     		strb	r3, [r6]
2184:.\Generated_Source\PSoC4/CapSense.c **** 		/* Init IDAC for null Channel */
 1813              		.loc 1 2184 0
 1814 000c 8024     		mov	r4, #128
 1815              	.LVL205:
 1816              	.L138:
2187:.\Generated_Source\PSoC4/CapSense.c **** 		
2188:.\Generated_Source\PSoC4/CapSense.c **** 		do
2189:.\Generated_Source\PSoC4/CapSense.c **** 		{
2190:.\Generated_Source\PSoC4/CapSense.c **** 		    /* Set bit for null Channel */
2191:.\Generated_Source\PSoC4/CapSense.c **** 			idacLevelsTbl[sensor] |= mask;
 1817              		.loc 1 2191 0
 1818 000e 3378     		ldrb	r3, [r6]
 1819 0010 2343     		orr	r3, r4
 1820 0012 3370     		strb	r3, [r6]
2192:.\Generated_Source\PSoC4/CapSense.c **** 
2193:.\Generated_Source\PSoC4/CapSense.c **** 	        /* Scan null Channel and get Rawdata */
2194:.\Generated_Source\PSoC4/CapSense.c **** 			rawData = CapSense_GetSensorRaw(sensor);
 1821              		.loc 1 2194 0
 1822 0014 281C     		mov	r0, r5
 1823 0016 FFF7FEFF 		bl	CapSense_GetSensorRaw
 1824              	.LVL206:
2195:.\Generated_Source\PSoC4/CapSense.c **** 			
2196:.\Generated_Source\PSoC4/CapSense.c **** 			/* Decrease IDAC until Rawdata reaches rawLevel */ 
2197:.\Generated_Source\PSoC4/CapSense.c **** 			if(rawData < rawLevel)
 1825              		.loc 1 2197 0
 1826 001a B842     		cmp	r0, r7
 1827 001c 02D2     		bcs	.L137
2198:.\Generated_Source\PSoC4/CapSense.c **** 			{
2199:.\Generated_Source\PSoC4/CapSense.c **** 			    /* Reset bit for null Channel  */ 
2200:.\Generated_Source\PSoC4/CapSense.c **** 				idacLevelsTbl[sensor] &= (uint8)~mask;
 1828              		.loc 1 2200 0
 1829 001e 3378     		ldrb	r3, [r6]
 1830 0020 A343     		bic	r3, r4
ARM GAS  C:\Users\merlin\AppData\Local\Temp\ccZOZwzR.s 			page 73


 1831 0022 3370     		strb	r3, [r6]
 1832              	.L137:
2201:.\Generated_Source\PSoC4/CapSense.c **** 			}
2202:.\Generated_Source\PSoC4/CapSense.c **** 			
2203:.\Generated_Source\PSoC4/CapSense.c **** 			mask >>= 1u;
 1833              		.loc 1 2203 0
 1834 0024 6408     		lsr	r4, r4, #1
 1835              	.LVL207:
2204:.\Generated_Source\PSoC4/CapSense.c **** 		}
2205:.\Generated_Source\PSoC4/CapSense.c **** 		while(mask > 0u);
 1836              		.loc 1 2205 0
 1837 0026 F2D1     		bne	.L138
2206:.\Generated_Source\PSoC4/CapSense.c **** 		
2207:.\Generated_Source\PSoC4/CapSense.c **** 	}
 1838              		.loc 1 2207 0
 1839              		@ sp needed
 1840              	.LVL208:
 1841              	.LVL209:
 1842              	.LVL210:
 1843 0028 F8BD     		pop	{r3, r4, r5, r6, r7, pc}
 1844              		.cfi_endproc
 1845              	.LFE72:
 1846              		.size	CapSense_CalibrateSensor, .-CapSense_CalibrateSensor
 1847              		.global	__aeabi_uidiv
 1848 002a C046     		.section	.text.CapSense_Start,"ax",%progbits
 1849              		.align	2
 1850              		.global	CapSense_Start
 1851              		.code	16
 1852              		.thumb_func
 1853              		.type	CapSense_Start, %function
 1854              	CapSense_Start:
 1855              	.LFB37:
 397:.\Generated_Source\PSoC4/CapSense.c **** 
 1856              		.loc 1 397 0
 1857              		.cfi_startproc
 1858 0000 38B5     		push	{r3, r4, r5, lr}
 1859              		.cfi_def_cfa_offset 16
 1860              		.cfi_offset 3, -16
 1861              		.cfi_offset 4, -12
 1862              		.cfi_offset 5, -8
 1863              		.cfi_offset 14, -4
 407:.\Generated_Source\PSoC4/CapSense.c ****     {
 1864              		.loc 1 407 0
 1865 0002 1F4B     		ldr	r3, .L145
 1866 0004 5B7A     		ldrb	r3, [r3, #9]
 1867 0006 002B     		cmp	r3, #0
 1868 0008 04D1     		bne	.L140
 409:.\Generated_Source\PSoC4/CapSense.c ****         CapSense_initVar = 1u;
 1869              		.loc 1 409 0
 1870 000a FFF7FEFF 		bl	CapSense_Init
 1871              	.LVL211:
 410:.\Generated_Source\PSoC4/CapSense.c ****     }
 1872              		.loc 1 410 0
 1873 000e 0122     		mov	r2, #1
 1874 0010 1B4B     		ldr	r3, .L145
 1875 0012 5A72     		strb	r2, [r3, #9]
 1876              	.L140:
ARM GAS  C:\Users\merlin\AppData\Local\Temp\ccZOZwzR.s 			page 74


 412:.\Generated_Source\PSoC4/CapSense.c **** 	
 1877              		.loc 1 412 0
 1878 0014 FFF7FEFF 		bl	CapSense_Enable
 1879              	.LVL212:
 424:.\Generated_Source\PSoC4/CapSense.c **** 			#endif /* (CapSense_IDAC_CNT > 1u) */
 1880              		.loc 1 424 0
 1881 0018 1A4A     		ldr	r2, .L145+4
 1882 001a 1168     		ldr	r1, [r2]
 1883 001c 1A4B     		ldr	r3, .L145+8
 1884 001e 0B40     		and	r3, r1
 1885 0020 1360     		str	r3, [r2]
 1886              	.LVL213:
 427:.\Generated_Source\PSoC4/CapSense.c **** 			{
 1887              		.loc 1 427 0
 1888 0022 0024     		mov	r4, #0
 1889 0024 0FE0     		b	.L141
 1890              	.LVL214:
 1891              	.L142:
 430:.\Generated_Source\PSoC4/CapSense.c **** 				
 1892              		.loc 1 430 0 discriminator 3
 1893 0026 194D     		ldr	r5, .L145+12
 1894 0028 6B88     		ldrh	r3, [r5, #2]
 1895              	.LVL215:
 433:.\Generated_Source\PSoC4/CapSense.c **** 				
 1896              		.loc 1 433 0 discriminator 3
 1897 002a 9800     		lsl	r0, r3, #2
 1898 002c C318     		add	r3, r0, r3
 1899              	.LVL216:
 1900 002e 1801     		lsl	r0, r3, #4
 1901 0030 1818     		add	r0, r3, r0
 1902 0032 6421     		mov	r1, #100
 1903 0034 FFF7FEFF 		bl	__aeabi_uidiv
 1904              	.LVL217:
 1905 0038 011C     		mov	r1, r0
 1906              	.LVL218:
 435:.\Generated_Source\PSoC4/CapSense.c **** 			}
 1907              		.loc 1 435 0 discriminator 3
 1908 003a 2A1C     		mov	r2, r5
 1909 003c 0C32     		add	r2, r2, #12
 1910 003e 201C     		mov	r0, r4
 1911              	.LVL219:
 1912 0040 FFF7FEFF 		bl	CapSense_CalibrateSensor
 1913              	.LVL220:
 427:.\Generated_Source\PSoC4/CapSense.c **** 			{
 1914              		.loc 1 427 0 discriminator 3
 1915 0044 0134     		add	r4, r4, #1
 1916              	.LVL221:
 1917              	.L141:
 427:.\Generated_Source\PSoC4/CapSense.c **** 			{
 1918              		.loc 1 427 0 is_stmt 0 discriminator 1
 1919 0046 002C     		cmp	r4, #0
 1920 0048 EDD0     		beq	.L142
 1921 004a 0022     		mov	r2, #0
 1922 004c 08E0     		b	.L143
 1923              	.LVL222:
 1924              	.L144:
 445:.\Generated_Source\PSoC4/CapSense.c **** 					CapSense_modulationIDAC[curSensor] = (CapSense_modulationIDAC[curSensor] + 1u) / 2u;
ARM GAS  C:\Users\merlin\AppData\Local\Temp\ccZOZwzR.s 			page 75


 1925              		.loc 1 445 0 is_stmt 1 discriminator 3
 1926 004e 0F49     		ldr	r1, .L145+12
 1927 0050 8918     		add	r1, r1, r2
 1928 0052 0B7B     		ldrb	r3, [r1, #12]
 1929 0054 5808     		lsr	r0, r3, #1
 1930 0056 0874     		strb	r0, [r1, #16]
 446:.\Generated_Source\PSoC4/CapSense.c **** 			    }
 1931              		.loc 1 446 0 discriminator 3
 1932 0058 0133     		add	r3, r3, #1
 1933 005a 5B08     		lsr	r3, r3, #1
 1934 005c 0B73     		strb	r3, [r1, #12]
 443:.\Generated_Source\PSoC4/CapSense.c **** 			    {
 1935              		.loc 1 443 0 discriminator 3
 1936 005e 0132     		add	r2, r2, #1
 1937              	.LVL223:
 1938              	.L143:
 443:.\Generated_Source\PSoC4/CapSense.c **** 			    {
 1939              		.loc 1 443 0 is_stmt 0 discriminator 1
 1940 0060 002A     		cmp	r2, #0
 1941 0062 F4D0     		beq	.L144
 448:.\Generated_Source\PSoC4/CapSense.c **** 			#endif /* (CapSense_IDAC_CNT > 1u) */
 1942              		.loc 1 448 0 is_stmt 1
 1943 0064 074A     		ldr	r2, .L145+4
 1944              	.LVL224:
 1945 0066 1368     		ldr	r3, [r2]
 1946 0068 8021     		mov	r1, #128
 1947 006a 4904     		lsl	r1, r1, #17
 1948 006c 0B43     		orr	r3, r1
 1949 006e 1360     		str	r3, [r2]
 461:.\Generated_Source\PSoC4/CapSense.c **** }
 1950              		.loc 1 461 0
 1951 0070 074A     		ldr	r2, .L145+16
 1952 0072 1368     		ldr	r3, [r2]
 1953 0074 8021     		mov	r1, #128
 1954 0076 C903     		lsl	r1, r1, #15
 1955 0078 0B43     		orr	r3, r1
 1956 007a 1360     		str	r3, [r2]
 462:.\Generated_Source\PSoC4/CapSense.c **** 
 1957              		.loc 1 462 0
 1958              		@ sp needed
 1959 007c 38BD     		pop	{r3, r4, r5, pc}
 1960              	.L146:
 1961 007e C046     		.align	2
 1962              	.L145:
 1963 0080 00000000 		.word	.LANCHOR0
 1964 0084 08002840 		.word	1076363272
 1965 0088 FFFFFFFC 		.word	-50331649
 1966 008c 00000000 		.word	.LANCHOR1
 1967 0090 04002840 		.word	1076363268
 1968              		.cfi_endproc
 1969              	.LFE37:
 1970              		.size	CapSense_Start, .-CapSense_Start
 1971              		.section	.text.CapSense_SetUnscannedSensorState,"ax",%progbits
 1972              		.align	2
 1973              		.global	CapSense_SetUnscannedSensorState
 1974              		.code	16
 1975              		.thumb_func
ARM GAS  C:\Users\merlin\AppData\Local\Temp\ccZOZwzR.s 			page 76


 1976              		.type	CapSense_SetUnscannedSensorState, %function
 1977              	CapSense_SetUnscannedSensorState:
 1978              	.LFB73:
2208:.\Generated_Source\PSoC4/CapSense.c **** #endif /* ((0u != CapSense_AUTOCALIBRATION_ENABLE) && (CapSense_TUNING_METHOD != CapSense__TUNING_A
2209:.\Generated_Source\PSoC4/CapSense.c **** 
2210:.\Generated_Source\PSoC4/CapSense.c **** 
2211:.\Generated_Source\PSoC4/CapSense.c **** /*******************************************************************************
2212:.\Generated_Source\PSoC4/CapSense.c **** * Function Name: CapSense_SetUnscannedSensorState
2213:.\Generated_Source\PSoC4/CapSense.c **** ********************************************************************************
2214:.\Generated_Source\PSoC4/CapSense.c **** *
2215:.\Generated_Source\PSoC4/CapSense.c **** * Summary:
2216:.\Generated_Source\PSoC4/CapSense.c **** *  This API sets a state for un-scanned sensors. 
2217:.\Generated_Source\PSoC4/CapSense.c **** *  It is possible to set the state to Ground, High-Z, or the shield electrode. 
2218:.\Generated_Source\PSoC4/CapSense.c **** *  The un-scanned sensor can be connected to a shield electrode only if the shield is 
2219:.\Generated_Source\PSoC4/CapSense.c **** *  enabled. If the shield is disabled and this API is called with the parameter which
2220:.\Generated_Source\PSoC4/CapSense.c **** *  indicates the shield state, the un-scanned sensor will be connected to Ground.
2221:.\Generated_Source\PSoC4/CapSense.c **** *
2222:.\Generated_Source\PSoC4/CapSense.c **** * Parameters:
2223:.\Generated_Source\PSoC4/CapSense.c **** *  sensor - Sensor Number.
2224:.\Generated_Source\PSoC4/CapSense.c **** *  sensorState: This parameter indicates un-scanned sensor state:
2225:.\Generated_Source\PSoC4/CapSense.c **** *
2226:.\Generated_Source\PSoC4/CapSense.c **** *     CapSense__GROUND 0
2227:.\Generated_Source\PSoC4/CapSense.c **** *     CapSense__HIZ_ANALOG 1
2228:.\Generated_Source\PSoC4/CapSense.c **** *     CapSense__SHIELD 2
2229:.\Generated_Source\PSoC4/CapSense.c **** *
2230:.\Generated_Source\PSoC4/CapSense.c **** * Return:
2231:.\Generated_Source\PSoC4/CapSense.c **** *  None.
2232:.\Generated_Source\PSoC4/CapSense.c **** *
2233:.\Generated_Source\PSoC4/CapSense.c **** * Global Variables:
2234:.\Generated_Source\PSoC4/CapSense.c **** *  CapSense_unscannedSnsDriveMode[] - used to store the state for
2235:.\Generated_Source\PSoC4/CapSense.c **** *  un-scanned sensors.
2236:.\Generated_Source\PSoC4/CapSense.c **** * 
2237:.\Generated_Source\PSoC4/CapSense.c **** * Side Effects:
2238:.\Generated_Source\PSoC4/CapSense.c **** *  None
2239:.\Generated_Source\PSoC4/CapSense.c **** *
2240:.\Generated_Source\PSoC4/CapSense.c **** *******************************************************************************/
2241:.\Generated_Source\PSoC4/CapSense.c **** void CapSense_SetUnscannedSensorState(uint32 sensor, uint32 sensorState)
2242:.\Generated_Source\PSoC4/CapSense.c **** {
 1979              		.loc 1 2242 0
 1980              		.cfi_startproc
 1981              	.LVL225:
2243:.\Generated_Source\PSoC4/CapSense.c ****     CapSense_unscannedSnsDriveMode[sensor] = (uint8)sensorState;	
 1982              		.loc 1 2243 0
 1983 0000 014B     		ldr	r3, .L148
 1984 0002 1954     		strb	r1, [r3, r0]
2244:.\Generated_Source\PSoC4/CapSense.c **** }
 1985              		.loc 1 2244 0
 1986              		@ sp needed
 1987 0004 7047     		bx	lr
 1988              	.L149:
 1989 0006 C046     		.align	2
 1990              	.L148:
 1991 0008 00000000 		.word	CapSense_unscannedSnsDriveMode
 1992              		.cfi_endproc
 1993              	.LFE73:
 1994              		.size	CapSense_SetUnscannedSensorState, .-CapSense_SetUnscannedSensorState
 1995              		.global	CapSense_prtDRTbl
ARM GAS  C:\Users\merlin\AppData\Local\Temp\ccZOZwzR.s 			page 77


 1996              		.global	CapSense_prtCfgTbl
 1997              		.global	CapSense_prtSelTbl
 1998              		.global	CapSense_widgetNumber
 1999              		.global	CapSense_sampleClkDividerVal
 2000              		.global	CapSense_senseClkDividerVal
 2001              		.global	CapSense_widgetResolution
 2002              		.global	CapSense_compensationIDAC
 2003              		.global	CapSense_modulationIDAC
 2004              		.global	CapSense_pinShiftTbl
 2005              		.global	CapSense_maskTable
 2006              		.global	CapSense_portTable
 2007              		.global	CapSense_pcTable
 2008              		.global	CapSense_sensorEnableMask
 2009              		.comm	CapSense_sensorEnableMaskBackup,1,4
 2010              		.comm	CapSense_unscannedSnsDriveMode,1,4
 2011              		.comm	CapSense_csdTrim1,1,1
 2012              		.global	CapSense_sensorRaw
 2013              		.global	CapSense_sensorIndex
 2014              		.global	CapSense_csdStatusVar
 2015              		.global	CapSense_prescalersTuningDone
 2016              		.section	.rodata
 2017              		.align	2
 2018              		.set	.LANCHOR2,. + 0
 2019              		.type	CapSense_prtCfgTbl, %object
 2020              		.size	CapSense_prtCfgTbl, 32
 2021              	CapSense_prtCfgTbl:
 2022 0000 08000440 		.word	1074003976
 2023 0004 08010440 		.word	1074004232
 2024 0008 08020440 		.word	1074004488
 2025 000c 08030440 		.word	1074004744
 2026 0010 08040440 		.word	1074005000
 2027 0014 08050440 		.word	1074005256
 2028 0018 08060440 		.word	1074005512
 2029 001c 08070440 		.word	1074005768
 2030              		.type	CapSense_prtSelTbl, %object
 2031              		.size	CapSense_prtSelTbl, 32
 2032              	CapSense_prtSelTbl:
 2033 0020 00000240 		.word	1073872896
 2034 0024 00010240 		.word	1073873152
 2035 0028 00020240 		.word	1073873408
 2036 002c 00030240 		.word	1073873664
 2037 0030 00040240 		.word	1073873920
 2038 0034 00050240 		.word	1073874176
 2039 0038 00060240 		.word	1073874432
 2040 003c 00070240 		.word	1073874688
 2041              		.type	CapSense_prtDRTbl, %object
 2042              		.size	CapSense_prtDRTbl, 32
 2043              	CapSense_prtDRTbl:
 2044 0040 00000440 		.word	1074003968
 2045 0044 00010440 		.word	1074004224
 2046 0048 00020440 		.word	1074004480
 2047 004c 00030440 		.word	1074004736
 2048 0050 00040440 		.word	1074004992
 2049 0054 00050440 		.word	1074005248
 2050 0058 00060440 		.word	1074005504
 2051 005c 00070440 		.word	1074005760
 2052              		.type	CapSense_widgetNumber, %object
ARM GAS  C:\Users\merlin\AppData\Local\Temp\ccZOZwzR.s 			page 78


 2053              		.size	CapSense_widgetNumber, 1
 2054              	CapSense_widgetNumber:
 2055 0060 00       		.space	1
 2056 0061 000000   		.space	3
 2057              		.type	CapSense_pinShiftTbl, %object
 2058              		.size	CapSense_pinShiftTbl, 1
 2059              	CapSense_pinShiftTbl:
 2060 0064 07       		.byte	7
 2061 0065 000000   		.space	3
 2062              		.type	CapSense_maskTable, %object
 2063              		.size	CapSense_maskTable, 4
 2064              	CapSense_maskTable:
 2065 0068 80000000 		.word	128
 2066              		.type	CapSense_portTable, %object
 2067              		.size	CapSense_portTable, 1
 2068              	CapSense_portTable:
 2069 006c 03       		.byte	3
 2070 006d 000000   		.data
 2071              		.align	2
 2072              		.set	.LANCHOR1,. + 0
 2073              		.type	CapSense_widgetResolution, %object
 2074              		.size	CapSense_widgetResolution, 4
 2075              	CapSense_widgetResolution:
 2076 0000 0000FFFF 		.word	-65536
 2077              		.type	CapSense_sampleClkDividerVal, %object
 2078              		.size	CapSense_sampleClkDividerVal, 1
 2079              	CapSense_sampleClkDividerVal:
 2080 0004 04       		.byte	4
 2081 0005 000000   		.space	3
 2082              		.type	CapSense_senseClkDividerVal, %object
 2083              		.size	CapSense_senseClkDividerVal, 1
 2084              	CapSense_senseClkDividerVal:
 2085 0008 04       		.byte	4
 2086 0009 000000   		.space	3
 2087              		.type	CapSense_modulationIDAC, %object
 2088              		.size	CapSense_modulationIDAC, 1
 2089              	CapSense_modulationIDAC:
 2090 000c 50       		.byte	80
 2091 000d 000000   		.space	3
 2092              		.type	CapSense_compensationIDAC, %object
 2093              		.size	CapSense_compensationIDAC, 1
 2094              	CapSense_compensationIDAC:
 2095 0010 1E       		.byte	30
 2096 0011 000000   		.space	3
 2097              		.type	CapSense_pcTable, %object
 2098              		.size	CapSense_pcTable, 4
 2099              	CapSense_pcTable:
 2100 0014 08030440 		.word	1074004744
 2101              		.bss
 2102              		.align	2
 2103              		.set	.LANCHOR0,. + 0
 2104              		.type	CapSense_csdStatusVar, %object
 2105              		.size	CapSense_csdStatusVar, 1
 2106              	CapSense_csdStatusVar:
 2107 0000 00       		.space	1
 2108 0001 000000   		.space	3
 2109              		.type	CapSense_sensorRaw, %object
ARM GAS  C:\Users\merlin\AppData\Local\Temp\ccZOZwzR.s 			page 79


 2110              		.size	CapSense_sensorRaw, 2
 2111              	CapSense_sensorRaw:
 2112 0004 0000     		.space	2
 2113              		.type	CapSense_sensorIndex, %object
 2114              		.size	CapSense_sensorIndex, 1
 2115              	CapSense_sensorIndex:
 2116 0006 00       		.space	1
 2117 0007 00       		.space	1
 2118              		.type	CapSense_sensorEnableMask, %object
 2119              		.size	CapSense_sensorEnableMask, 1
 2120              	CapSense_sensorEnableMask:
 2121 0008 00       		.space	1
 2122              		.type	CapSense_initVar.5252, %object
 2123              		.size	CapSense_initVar.5252, 1
 2124              	CapSense_initVar.5252:
 2125 0009 00       		.space	1
 2126              		.type	CapSense_prescalersTuningDone, %object
 2127              		.size	CapSense_prescalersTuningDone, 1
 2128              	CapSense_prescalersTuningDone:
 2129 000a 00       		.space	1
 2130 000b 00       		.text
 2131              	.Letext0:
 2132              		.file 2 ".\\Generated_Source\\PSoC4\\cytypes.h"
 2133              		.file 3 ".\\Generated_Source\\PSoC4\\CapSense_CSHL.h"
 2134              		.file 4 ".\\Generated_Source\\PSoC4\\CyLib.h"
 2135              		.file 5 ".\\Generated_Source\\PSoC4\\CapSense_SenseClk.h"
 2136              		.file 6 ".\\Generated_Source\\PSoC4\\CapSense_SampleClk.h"
 2137              		.section	.debug_info,"",%progbits
 2138              	.Ldebug_info0:
 2139 0000 66100000 		.4byte	0x1066
 2140 0004 0400     		.2byte	0x4
 2141 0006 00000000 		.4byte	.Ldebug_abbrev0
 2142 000a 04       		.byte	0x4
 2143 000b 01       		.uleb128 0x1
 2144 000c 8E070000 		.4byte	.LASF132
 2145 0010 01       		.byte	0x1
 2146 0011 F3010000 		.4byte	.LASF133
 2147 0015 11000000 		.4byte	.LASF134
 2148 0019 00000000 		.4byte	.Ldebug_ranges0+0
 2149 001d 00000000 		.4byte	0
 2150 0021 00000000 		.4byte	.Ldebug_line0
 2151 0025 02       		.uleb128 0x2
 2152 0026 01       		.byte	0x1
 2153 0027 06       		.byte	0x6
 2154 0028 1E0A0000 		.4byte	.LASF0
 2155 002c 02       		.uleb128 0x2
 2156 002d 01       		.byte	0x1
 2157 002e 08       		.byte	0x8
 2158 002f FD080000 		.4byte	.LASF1
 2159 0033 02       		.uleb128 0x2
 2160 0034 02       		.byte	0x2
 2161 0035 05       		.byte	0x5
 2162 0036 DB060000 		.4byte	.LASF2
 2163 003a 02       		.uleb128 0x2
 2164 003b 02       		.byte	0x2
 2165 003c 07       		.byte	0x7
 2166 003d 2A0A0000 		.4byte	.LASF3
ARM GAS  C:\Users\merlin\AppData\Local\Temp\ccZOZwzR.s 			page 80


 2167 0041 02       		.uleb128 0x2
 2168 0042 04       		.byte	0x4
 2169 0043 05       		.byte	0x5
 2170 0044 E5060000 		.4byte	.LASF4
 2171 0048 02       		.uleb128 0x2
 2172 0049 04       		.byte	0x4
 2173 004a 07       		.byte	0x7
 2174 004b DF080000 		.4byte	.LASF5
 2175 004f 02       		.uleb128 0x2
 2176 0050 08       		.byte	0x8
 2177 0051 05       		.byte	0x5
 2178 0052 20050000 		.4byte	.LASF6
 2179 0056 02       		.uleb128 0x2
 2180 0057 08       		.byte	0x8
 2181 0058 07       		.byte	0x7
 2182 0059 77020000 		.4byte	.LASF7
 2183 005d 03       		.uleb128 0x3
 2184 005e 04       		.byte	0x4
 2185 005f 05       		.byte	0x5
 2186 0060 696E7400 		.ascii	"int\000"
 2187 0064 02       		.uleb128 0x2
 2188 0065 04       		.byte	0x4
 2189 0066 07       		.byte	0x7
 2190 0067 A5000000 		.4byte	.LASF8
 2191 006b 04       		.uleb128 0x4
 2192 006c 490A0000 		.4byte	.LASF9
 2193 0070 02       		.byte	0x2
 2194 0071 B3       		.byte	0xb3
 2195 0072 2C000000 		.4byte	0x2c
 2196 0076 04       		.uleb128 0x4
 2197 0077 8E040000 		.4byte	.LASF10
 2198 007b 02       		.byte	0x2
 2199 007c B4       		.byte	0xb4
 2200 007d 3A000000 		.4byte	0x3a
 2201 0081 04       		.uleb128 0x4
 2202 0082 E6050000 		.4byte	.LASF11
 2203 0086 02       		.byte	0x2
 2204 0087 B5       		.byte	0xb5
 2205 0088 48000000 		.4byte	0x48
 2206 008c 02       		.uleb128 0x2
 2207 008d 04       		.byte	0x4
 2208 008e 04       		.byte	0x4
 2209 008f 71020000 		.4byte	.LASF12
 2210 0093 02       		.uleb128 0x2
 2211 0094 08       		.byte	0x8
 2212 0095 04       		.byte	0x4
 2213 0096 4F0A0000 		.4byte	.LASF13
 2214 009a 02       		.uleb128 0x2
 2215 009b 01       		.byte	0x1
 2216 009c 08       		.byte	0x8
 2217 009d 36040000 		.4byte	.LASF14
 2218 00a1 05       		.uleb128 0x5
 2219 00a2 DE000000 		.4byte	.LASF15
 2220 00a6 02       		.byte	0x2
 2221 00a7 5D01     		.2byte	0x15d
 2222 00a9 AD000000 		.4byte	0xad
 2223 00ad 06       		.uleb128 0x6
ARM GAS  C:\Users\merlin\AppData\Local\Temp\ccZOZwzR.s 			page 81


 2224 00ae 6B000000 		.4byte	0x6b
 2225 00b2 05       		.uleb128 0x5
 2226 00b3 10060000 		.4byte	.LASF16
 2227 00b7 02       		.byte	0x2
 2228 00b8 5F01     		.2byte	0x15f
 2229 00ba BE000000 		.4byte	0xbe
 2230 00be 06       		.uleb128 0x6
 2231 00bf 81000000 		.4byte	0x81
 2232 00c3 05       		.uleb128 0x5
 2233 00c4 BD050000 		.4byte	.LASF17
 2234 00c8 02       		.byte	0x2
 2235 00c9 6F01     		.2byte	0x16f
 2236 00cb CF000000 		.4byte	0xcf
 2237 00cf 07       		.uleb128 0x7
 2238 00d0 04       		.byte	0x4
 2239 00d1 D5000000 		.4byte	0xd5
 2240 00d5 08       		.uleb128 0x8
 2241 00d6 02       		.uleb128 0x2
 2242 00d7 04       		.byte	0x4
 2243 00d8 07       		.byte	0x7
 2244 00d9 D6080000 		.4byte	.LASF18
 2245 00dd 07       		.uleb128 0x7
 2246 00de 04       		.byte	0x4
 2247 00df 6B000000 		.4byte	0x6b
 2248 00e3 07       		.uleb128 0x7
 2249 00e4 04       		.byte	0x4
 2250 00e5 E9000000 		.4byte	0xe9
 2251 00e9 09       		.uleb128 0x9
 2252 00ea 6B000000 		.4byte	0x6b
 2253 00ee 0A       		.uleb128 0xa
 2254 00ef AB010000 		.4byte	.LASF19
 2255 00f3 01       		.byte	0x1
 2256 00f4 FC       		.byte	0xfc
 2257 00f5 00000000 		.4byte	.LFB35
 2258 00f9 88000000 		.4byte	.LFE35-.LFB35
 2259 00fd 01       		.uleb128 0x1
 2260 00fe 9C       		.byte	0x9c
 2261 00ff 4D010000 		.4byte	0x14d
 2262 0103 0B       		.uleb128 0xb
 2263 0104 3D0A0000 		.4byte	.LASF21
 2264 0108 01       		.byte	0x1
 2265 0109 FE       		.byte	0xfe
 2266 010a 81000000 		.4byte	0x81
 2267 010e 00000000 		.4byte	.LLST0
 2268 0112 0C       		.uleb128 0xc
 2269 0113 4C000000 		.4byte	.LVL12
 2270 0117 920F0000 		.4byte	0xf92
 2271 011b 25010000 		.4byte	0x125
 2272 011f 0D       		.uleb128 0xd
 2273 0120 01       		.uleb128 0x1
 2274 0121 50       		.byte	0x50
 2275 0122 01       		.uleb128 0x1
 2276 0123 41       		.byte	0x41
 2277 0124 00       		.byte	0
 2278 0125 0C       		.uleb128 0xc
 2279 0126 54000000 		.4byte	.LVL13
 2280 012a A30F0000 		.4byte	0xfa3
ARM GAS  C:\Users\merlin\AppData\Local\Temp\ccZOZwzR.s 			page 82


 2281 012e 38010000 		.4byte	0x138
 2282 0132 0D       		.uleb128 0xd
 2283 0133 01       		.uleb128 0x1
 2284 0134 50       		.byte	0x50
 2285 0135 01       		.uleb128 0x1
 2286 0136 41       		.byte	0x41
 2287 0137 00       		.byte	0
 2288 0138 0E       		.uleb128 0xe
 2289 0139 5C000000 		.4byte	.LVL14
 2290 013d BD0F0000 		.4byte	0xfbd
 2291 0141 0D       		.uleb128 0xd
 2292 0142 01       		.uleb128 0x1
 2293 0143 51       		.byte	0x51
 2294 0144 01       		.uleb128 0x1
 2295 0145 33       		.byte	0x33
 2296 0146 0D       		.uleb128 0xd
 2297 0147 01       		.uleb128 0x1
 2298 0148 50       		.byte	0x50
 2299 0149 01       		.uleb128 0x1
 2300 014a 41       		.byte	0x41
 2301 014b 00       		.byte	0
 2302 014c 00       		.byte	0
 2303 014d 0F       		.uleb128 0xf
 2304 014e 5E030000 		.4byte	.LASF20
 2305 0152 01       		.byte	0x1
 2306 0153 5101     		.2byte	0x151
 2307 0155 00000000 		.4byte	.LFB36
 2308 0159 40000000 		.4byte	.LFE36-.LFB36
 2309 015d 01       		.uleb128 0x1
 2310 015e 9C       		.byte	0x9c
 2311 015f ED010000 		.4byte	0x1ed
 2312 0163 10       		.uleb128 0x10
 2313 0164 3D0A0000 		.4byte	.LASF21
 2314 0168 01       		.byte	0x1
 2315 0169 5301     		.2byte	0x153
 2316 016b 81000000 		.4byte	0x81
 2317 016f 61000000 		.4byte	.LLST1
 2318 0173 11       		.uleb128 0x11
 2319 0174 06000000 		.4byte	.LVL15
 2320 0178 D30F0000 		.4byte	0xfd3
 2321 017c 11       		.uleb128 0x11
 2322 017d 0A000000 		.4byte	.LVL16
 2323 0181 DA0F0000 		.4byte	0xfda
 2324 0185 0C       		.uleb128 0xc
 2325 0186 12000000 		.4byte	.LVL17
 2326 018a E10F0000 		.4byte	0xfe1
 2327 018e 9D010000 		.4byte	0x19d
 2328 0192 0D       		.uleb128 0xd
 2329 0193 01       		.uleb128 0x1
 2330 0194 51       		.byte	0x51
 2331 0195 01       		.uleb128 0x1
 2332 0196 30       		.byte	0x30
 2333 0197 0D       		.uleb128 0xd
 2334 0198 01       		.uleb128 0x1
 2335 0199 50       		.byte	0x50
 2336 019a 01       		.uleb128 0x1
 2337 019b 30       		.byte	0x30
ARM GAS  C:\Users\merlin\AppData\Local\Temp\ccZOZwzR.s 			page 83


 2338 019c 00       		.byte	0
 2339 019d 0C       		.uleb128 0xc
 2340 019e 1A000000 		.4byte	.LVL18
 2341 01a2 F70F0000 		.4byte	0xff7
 2342 01a6 B5010000 		.4byte	0x1b5
 2343 01aa 0D       		.uleb128 0xd
 2344 01ab 01       		.uleb128 0x1
 2345 01ac 51       		.byte	0x51
 2346 01ad 01       		.uleb128 0x1
 2347 01ae 30       		.byte	0x30
 2348 01af 0D       		.uleb128 0xd
 2349 01b0 01       		.uleb128 0x1
 2350 01b1 50       		.byte	0x50
 2351 01b2 01       		.uleb128 0x1
 2352 01b3 30       		.byte	0x30
 2353 01b4 00       		.byte	0
 2354 01b5 0C       		.uleb128 0xc
 2355 01b6 20000000 		.4byte	.LVL19
 2356 01ba 0D100000 		.4byte	0x100d
 2357 01be C9010000 		.4byte	0x1c9
 2358 01c2 0D       		.uleb128 0xd
 2359 01c3 01       		.uleb128 0x1
 2360 01c4 50       		.byte	0x50
 2361 01c5 02       		.uleb128 0x2
 2362 01c6 08       		.byte	0x8
 2363 01c7 FF       		.byte	0xff
 2364 01c8 00       		.byte	0
 2365 01c9 0C       		.uleb128 0xc
 2366 01ca 26000000 		.4byte	.LVL20
 2367 01ce 1E100000 		.4byte	0x101e
 2368 01d2 DD010000 		.4byte	0x1dd
 2369 01d6 0D       		.uleb128 0xd
 2370 01d7 01       		.uleb128 0x1
 2371 01d8 50       		.byte	0x50
 2372 01d9 02       		.uleb128 0x2
 2373 01da 08       		.byte	0x8
 2374 01db 40       		.byte	0x40
 2375 01dc 00       		.byte	0
 2376 01dd 0E       		.uleb128 0xe
 2377 01de 36000000 		.4byte	.LVL23
 2378 01e2 2F100000 		.4byte	0x102f
 2379 01e6 0D       		.uleb128 0xd
 2380 01e7 01       		.uleb128 0x1
 2381 01e8 50       		.byte	0x50
 2382 01e9 01       		.uleb128 0x1
 2383 01ea 41       		.byte	0x41
 2384 01eb 00       		.byte	0
 2385 01ec 00       		.byte	0
 2386 01ed 0F       		.uleb128 0xf
 2387 01ee E5010000 		.4byte	.LASF22
 2388 01f2 01       		.byte	0x1
 2389 01f3 E801     		.2byte	0x1e8
 2390 01f5 00000000 		.4byte	.LFB38
 2391 01f9 2C000000 		.4byte	.LFE38-.LFB38
 2392 01fd 01       		.uleb128 0x1
 2393 01fe 9C       		.byte	0x9c
 2394 01ff 29020000 		.4byte	0x229
ARM GAS  C:\Users\merlin\AppData\Local\Temp\ccZOZwzR.s 			page 84


 2395 0203 0C       		.uleb128 0xc
 2396 0204 08000000 		.4byte	.LVL24
 2397 0208 920F0000 		.4byte	0xf92
 2398 020c 16020000 		.4byte	0x216
 2399 0210 0D       		.uleb128 0xd
 2400 0211 01       		.uleb128 0x1
 2401 0212 50       		.byte	0x50
 2402 0213 01       		.uleb128 0x1
 2403 0214 41       		.byte	0x41
 2404 0215 00       		.byte	0
 2405 0216 11       		.uleb128 0x11
 2406 0217 1E000000 		.4byte	.LVL25
 2407 021b D30F0000 		.4byte	0xfd3
 2408 021f 11       		.uleb128 0x11
 2409 0220 22000000 		.4byte	.LVL26
 2410 0224 DA0F0000 		.4byte	0xfda
 2411 0228 00       		.byte	0
 2412 0229 12       		.uleb128 0x12
 2413 022a 44010000 		.4byte	.LASF59
 2414 022e 01       		.byte	0x1
 2415 022f E302     		.2byte	0x2e3
 2416 0231 81000000 		.4byte	0x81
 2417 0235 00000000 		.4byte	.LFB43
 2418 0239 10000000 		.4byte	.LFE43-.LFB43
 2419 023d 01       		.uleb128 0x1
 2420 023e 9C       		.byte	0x9c
 2421 023f 13       		.uleb128 0x13
 2422 0240 1D090000 		.4byte	.LASF29
 2423 0244 01       		.byte	0x1
 2424 0245 0103     		.2byte	0x301
 2425 0247 76000000 		.4byte	0x76
 2426 024b 00000000 		.4byte	.LFB44
 2427 024f 10000000 		.4byte	.LFE44-.LFB44
 2428 0253 01       		.uleb128 0x1
 2429 0254 9C       		.byte	0x9c
 2430 0255 6A020000 		.4byte	0x26a
 2431 0259 14       		.uleb128 0x14
 2432 025a 1C040000 		.4byte	.LASF24
 2433 025e 01       		.byte	0x1
 2434 025f 0103     		.2byte	0x301
 2435 0261 81000000 		.4byte	0x81
 2436 0265 74000000 		.4byte	.LLST2
 2437 0269 00       		.byte	0
 2438 026a 0F       		.uleb128 0xf
 2439 026b 2A030000 		.4byte	.LASF23
 2440 026f 01       		.byte	0x1
 2441 0270 1C03     		.2byte	0x31c
 2442 0272 00000000 		.4byte	.LFB45
 2443 0276 10000000 		.4byte	.LFE45-.LFB45
 2444 027a 01       		.uleb128 0x1
 2445 027b 9C       		.byte	0x9c
 2446 027c 9F020000 		.4byte	0x29f
 2447 0280 14       		.uleb128 0x14
 2448 0281 1C040000 		.4byte	.LASF24
 2449 0285 01       		.byte	0x1
 2450 0286 1C03     		.2byte	0x31c
 2451 0288 81000000 		.4byte	0x81
ARM GAS  C:\Users\merlin\AppData\Local\Temp\ccZOZwzR.s 			page 85


 2452 028c 95000000 		.4byte	.LLST3
 2453 0290 15       		.uleb128 0x15
 2454 0291 13030000 		.4byte	.LASF25
 2455 0295 01       		.byte	0x1
 2456 0296 1C03     		.2byte	0x31c
 2457 0298 76000000 		.4byte	0x76
 2458 029c 01       		.uleb128 0x1
 2459 029d 51       		.byte	0x51
 2460 029e 00       		.byte	0
 2461 029f 0F       		.uleb128 0xf
 2462 02a0 92030000 		.4byte	.LASF26
 2463 02a4 01       		.byte	0x1
 2464 02a5 4603     		.2byte	0x346
 2465 02a7 00000000 		.4byte	.LFB46
 2466 02ab 0C000000 		.4byte	.LFE46-.LFB46
 2467 02af 01       		.uleb128 0x1
 2468 02b0 9C       		.byte	0x9c
 2469 02b1 D4020000 		.4byte	0x2d4
 2470 02b5 14       		.uleb128 0x14
 2471 02b6 A3020000 		.4byte	.LASF27
 2472 02ba 01       		.byte	0x1
 2473 02bb 4603     		.2byte	0x346
 2474 02bd 81000000 		.4byte	0x81
 2475 02c1 B6000000 		.4byte	.LLST4
 2476 02c5 15       		.uleb128 0x15
 2477 02c6 A4040000 		.4byte	.LASF28
 2478 02ca 01       		.byte	0x1
 2479 02cb 4603     		.2byte	0x346
 2480 02cd 81000000 		.4byte	0x81
 2481 02d1 01       		.uleb128 0x1
 2482 02d2 51       		.byte	0x51
 2483 02d3 00       		.byte	0
 2484 02d4 13       		.uleb128 0x13
 2485 02d5 EB020000 		.4byte	.LASF30
 2486 02d9 01       		.byte	0x1
 2487 02da 6F03     		.2byte	0x36f
 2488 02dc 81000000 		.4byte	0x81
 2489 02e0 00000000 		.4byte	.LFB47
 2490 02e4 0C000000 		.4byte	.LFE47-.LFB47
 2491 02e8 01       		.uleb128 0x1
 2492 02e9 9C       		.byte	0x9c
 2493 02ea FF020000 		.4byte	0x2ff
 2494 02ee 14       		.uleb128 0x14
 2495 02ef A3020000 		.4byte	.LASF27
 2496 02f3 01       		.byte	0x1
 2497 02f4 6F03     		.2byte	0x36f
 2498 02f6 81000000 		.4byte	0x81
 2499 02fa D7000000 		.4byte	.LLST5
 2500 02fe 00       		.byte	0
 2501 02ff 0F       		.uleb128 0xf
 2502 0300 68050000 		.4byte	.LASF31
 2503 0304 01       		.byte	0x1
 2504 0305 2804     		.2byte	0x428
 2505 0307 00000000 		.4byte	.LFB49
 2506 030b 34000000 		.4byte	.LFE49-.LFB49
 2507 030f 01       		.uleb128 0x1
 2508 0310 9C       		.byte	0x9c
ARM GAS  C:\Users\merlin\AppData\Local\Temp\ccZOZwzR.s 			page 86


 2509 0311 7F030000 		.4byte	0x37f
 2510 0315 14       		.uleb128 0x14
 2511 0316 1C040000 		.4byte	.LASF24
 2512 031a 01       		.byte	0x1
 2513 031b 2804     		.2byte	0x428
 2514 031d 81000000 		.4byte	0x81
 2515 0321 F8000000 		.4byte	.LLST6
 2516 0325 16       		.uleb128 0x16
 2517 0326 54010000 		.4byte	.LASF32
 2518 032a 01       		.byte	0x1
 2519 032b 2A04     		.2byte	0x42a
 2520 032d 6B000000 		.4byte	0x6b
 2521 0331 15       		.byte	0x15
 2522 0332 16       		.uleb128 0x16
 2523 0333 06010000 		.4byte	.LASF33
 2524 0337 01       		.byte	0x1
 2525 0338 2B04     		.2byte	0x42b
 2526 033a 6B000000 		.4byte	0x6b
 2527 033e 1C       		.byte	0x1c
 2528 033f 10       		.uleb128 0x10
 2529 0340 CF000000 		.4byte	.LASF34
 2530 0344 01       		.byte	0x1
 2531 0345 2C04     		.2byte	0x42c
 2532 0347 6B000000 		.4byte	0x6b
 2533 034b 19010000 		.4byte	.LLST7
 2534 034f 10       		.uleb128 0x10
 2535 0350 19030000 		.4byte	.LASF35
 2536 0354 01       		.byte	0x1
 2537 0355 2D04     		.2byte	0x42d
 2538 0357 81000000 		.4byte	0x81
 2539 035b 2C010000 		.4byte	.LLST8
 2540 035f 16       		.uleb128 0x16
 2541 0360 F1080000 		.4byte	.LASF36
 2542 0364 01       		.byte	0x1
 2543 0365 2E04     		.2byte	0x42e
 2544 0367 81000000 		.4byte	0x81
 2545 036b 03       		.byte	0x3
 2546 036c 11       		.uleb128 0x11
 2547 036d 06000000 		.4byte	.LVL37
 2548 0371 40100000 		.4byte	0x1040
 2549 0375 11       		.uleb128 0x11
 2550 0376 24000000 		.4byte	.LVL42
 2551 037a 4B100000 		.4byte	0x104b
 2552 037e 00       		.byte	0
 2553 037f 0F       		.uleb128 0xf
 2554 0380 94010000 		.4byte	.LASF37
 2555 0384 01       		.byte	0x1
 2556 0385 5D04     		.2byte	0x45d
 2557 0387 00000000 		.4byte	.LFB50
 2558 038b 58000000 		.4byte	.LFE50-.LFB50
 2559 038f 01       		.uleb128 0x1
 2560 0390 9C       		.byte	0x9c
 2561 0391 1F040000 		.4byte	0x41f
 2562 0395 14       		.uleb128 0x14
 2563 0396 1C040000 		.4byte	.LASF24
 2564 039a 01       		.byte	0x1
 2565 039b 5D04     		.2byte	0x45d
ARM GAS  C:\Users\merlin\AppData\Local\Temp\ccZOZwzR.s 			page 87


 2566 039d 81000000 		.4byte	0x81
 2567 03a1 4A010000 		.4byte	.LLST9
 2568 03a5 10       		.uleb128 0x10
 2569 03a6 CF000000 		.4byte	.LASF34
 2570 03aa 01       		.byte	0x1
 2571 03ab 5F04     		.2byte	0x45f
 2572 03ad 6B000000 		.4byte	0x6b
 2573 03b1 6B010000 		.4byte	.LLST10
 2574 03b5 10       		.uleb128 0x10
 2575 03b6 19030000 		.4byte	.LASF35
 2576 03ba 01       		.byte	0x1
 2577 03bb 6004     		.2byte	0x460
 2578 03bd 81000000 		.4byte	0x81
 2579 03c1 7E010000 		.4byte	.LLST11
 2580 03c5 16       		.uleb128 0x16
 2581 03c6 F1080000 		.4byte	.LASF36
 2582 03ca 01       		.byte	0x1
 2583 03cb 6204     		.2byte	0x462
 2584 03cd 81000000 		.4byte	0x81
 2585 03d1 03       		.byte	0x3
 2586 03d2 16       		.uleb128 0x16
 2587 03d3 06010000 		.4byte	.LASF33
 2588 03d7 01       		.byte	0x1
 2589 03d8 6304     		.2byte	0x463
 2590 03da 6B000000 		.4byte	0x6b
 2591 03de 1C       		.byte	0x1c
 2592 03df 16       		.uleb128 0x16
 2593 03e0 54010000 		.4byte	.LASF32
 2594 03e4 01       		.byte	0x1
 2595 03e5 6404     		.2byte	0x464
 2596 03e7 6B000000 		.4byte	0x6b
 2597 03eb 15       		.byte	0x15
 2598 03ec 10       		.uleb128 0x10
 2599 03ed C3010000 		.4byte	.LASF38
 2600 03f1 01       		.byte	0x1
 2601 03f2 6604     		.2byte	0x466
 2602 03f4 81000000 		.4byte	0x81
 2603 03f8 A7010000 		.4byte	.LLST12
 2604 03fc 10       		.uleb128 0x10
 2605 03fd 6E030000 		.4byte	.LASF39
 2606 0401 01       		.byte	0x1
 2607 0402 6704     		.2byte	0x467
 2608 0404 81000000 		.4byte	0x81
 2609 0408 C6010000 		.4byte	.LLST13
 2610 040c 11       		.uleb128 0x11
 2611 040d 24000000 		.4byte	.LVL48
 2612 0411 40100000 		.4byte	0x1040
 2613 0415 11       		.uleb128 0x11
 2614 0416 36000000 		.4byte	.LVL52
 2615 041a 4B100000 		.4byte	0x104b
 2616 041e 00       		.byte	0
 2617 041f 0F       		.uleb128 0xf
 2618 0420 2A020000 		.4byte	.LASF40
 2619 0424 01       		.byte	0x1
 2620 0425 8A03     		.2byte	0x38a
 2621 0427 00000000 		.4byte	.LFB48
 2622 042b 14000000 		.4byte	.LFE48-.LFB48
ARM GAS  C:\Users\merlin\AppData\Local\Temp\ccZOZwzR.s 			page 88


 2623 042f 01       		.uleb128 0x1
 2624 0430 9C       		.byte	0x9c
 2625 0431 56040000 		.4byte	0x456
 2626 0435 10       		.uleb128 0x10
 2627 0436 FC050000 		.4byte	.LASF41
 2628 043a 01       		.byte	0x1
 2629 043b 8C03     		.2byte	0x38c
 2630 043d 81000000 		.4byte	0x81
 2631 0441 D9010000 		.4byte	.LLST14
 2632 0445 0E       		.uleb128 0xe
 2633 0446 0C000000 		.4byte	.LVL56
 2634 044a 7F030000 		.4byte	0x37f
 2635 044e 0D       		.uleb128 0xd
 2636 044f 01       		.uleb128 0x1
 2637 0450 50       		.byte	0x50
 2638 0451 02       		.uleb128 0x2
 2639 0452 74       		.byte	0x74
 2640 0453 00       		.sleb128 0
 2641 0454 00       		.byte	0
 2642 0455 00       		.byte	0
 2643 0456 0F       		.uleb128 0xf
 2644 0457 C2060000 		.4byte	.LASF42
 2645 045b 01       		.byte	0x1
 2646 045c 2705     		.2byte	0x527
 2647 045e 00000000 		.4byte	.LFB53
 2648 0462 20000000 		.4byte	.LFE53-.LFB53
 2649 0466 01       		.uleb128 0x1
 2650 0467 9C       		.byte	0x9c
 2651 0468 BB040000 		.4byte	0x4bb
 2652 046c 14       		.uleb128 0x14
 2653 046d 6E0A0000 		.4byte	.LASF43
 2654 0471 01       		.byte	0x1
 2655 0472 2705     		.2byte	0x527
 2656 0474 81000000 		.4byte	0x81
 2657 0478 F8010000 		.4byte	.LLST15
 2658 047c 14       		.uleb128 0x14
 2659 047d F2050000 		.4byte	.LASF44
 2660 0481 01       		.byte	0x1
 2661 0482 2705     		.2byte	0x527
 2662 0484 81000000 		.4byte	0x81
 2663 0488 19020000 		.4byte	.LLST16
 2664 048c 14       		.uleb128 0x14
 2665 048d 64060000 		.4byte	.LASF45
 2666 0491 01       		.byte	0x1
 2667 0492 2705     		.2byte	0x527
 2668 0494 81000000 		.4byte	0x81
 2669 0498 3A020000 		.4byte	.LLST17
 2670 049c 17       		.uleb128 0x17
 2671 049d 54010000 		.4byte	.LASF32
 2672 04a1 01       		.byte	0x1
 2673 04a2 2905     		.2byte	0x529
 2674 04a4 81000000 		.4byte	0x81
 2675 04a8 01       		.uleb128 0x1
 2676 04a9 51       		.byte	0x51
 2677 04aa 10       		.uleb128 0x10
 2678 04ab 19030000 		.4byte	.LASF35
 2679 04af 01       		.byte	0x1
ARM GAS  C:\Users\merlin\AppData\Local\Temp\ccZOZwzR.s 			page 89


 2680 04b0 2A05     		.2byte	0x52a
 2681 04b2 81000000 		.4byte	0x81
 2682 04b6 5B020000 		.4byte	.LLST18
 2683 04ba 00       		.byte	0
 2684 04bb 0F       		.uleb128 0xf
 2685 04bc 30070000 		.4byte	.LASF46
 2686 04c0 01       		.byte	0x1
 2687 04c1 AA04     		.2byte	0x4aa
 2688 04c3 00000000 		.4byte	.LFB51
 2689 04c7 26000000 		.4byte	.LFE51-.LFB51
 2690 04cb 01       		.uleb128 0x1
 2691 04cc 9C       		.byte	0x9c
 2692 04cd 4A050000 		.4byte	0x54a
 2693 04d1 14       		.uleb128 0x14
 2694 04d2 6E0A0000 		.4byte	.LASF43
 2695 04d6 01       		.byte	0x1
 2696 04d7 AA04     		.2byte	0x4aa
 2697 04d9 81000000 		.4byte	0x81
 2698 04dd 79020000 		.4byte	.LLST19
 2699 04e1 10       		.uleb128 0x10
 2700 04e2 640A0000 		.4byte	.LASF47
 2701 04e6 01       		.byte	0x1
 2702 04e7 AC04     		.2byte	0x4ac
 2703 04e9 6B000000 		.4byte	0x6b
 2704 04ed A5020000 		.4byte	.LLST20
 2705 04f1 10       		.uleb128 0x10
 2706 04f2 CA030000 		.4byte	.LASF48
 2707 04f6 01       		.byte	0x1
 2708 04f7 B104     		.2byte	0x4b1
 2709 04f9 81000000 		.4byte	0x81
 2710 04fd CF020000 		.4byte	.LLST21
 2711 0501 10       		.uleb128 0x10
 2712 0502 C9040000 		.4byte	.LASF49
 2713 0506 01       		.byte	0x1
 2714 0507 B204     		.2byte	0x4b2
 2715 0509 81000000 		.4byte	0x81
 2716 050d E3020000 		.4byte	.LLST22
 2717 0511 0C       		.uleb128 0xc
 2718 0512 12000000 		.4byte	.LVL69
 2719 0516 56040000 		.4byte	0x456
 2720 051a 2F050000 		.4byte	0x52f
 2721 051e 0D       		.uleb128 0xd
 2722 051f 01       		.uleb128 0x1
 2723 0520 52       		.byte	0x52
 2724 0521 01       		.uleb128 0x1
 2725 0522 33       		.byte	0x33
 2726 0523 0D       		.uleb128 0xd
 2727 0524 01       		.uleb128 0x1
 2728 0525 51       		.byte	0x51
 2729 0526 01       		.uleb128 0x1
 2730 0527 37       		.byte	0x37
 2731 0528 0D       		.uleb128 0xd
 2732 0529 01       		.uleb128 0x1
 2733 052a 50       		.byte	0x50
 2734 052b 02       		.uleb128 0x2
 2735 052c 75       		.byte	0x75
 2736 052d 00       		.sleb128 0
ARM GAS  C:\Users\merlin\AppData\Local\Temp\ccZOZwzR.s 			page 90


 2737 052e 00       		.byte	0
 2738 052f 0E       		.uleb128 0xe
 2739 0530 24000000 		.4byte	.LVL72
 2740 0534 56040000 		.4byte	0x456
 2741 0538 0D       		.uleb128 0xd
 2742 0539 01       		.uleb128 0x1
 2743 053a 52       		.byte	0x52
 2744 053b 01       		.uleb128 0x1
 2745 053c 34       		.byte	0x34
 2746 053d 0D       		.uleb128 0xd
 2747 053e 01       		.uleb128 0x1
 2748 053f 51       		.byte	0x51
 2749 0540 01       		.uleb128 0x1
 2750 0541 32       		.byte	0x32
 2751 0542 0D       		.uleb128 0xd
 2752 0543 01       		.uleb128 0x1
 2753 0544 50       		.byte	0x50
 2754 0545 02       		.uleb128 0x2
 2755 0546 75       		.byte	0x75
 2756 0547 00       		.sleb128 0
 2757 0548 00       		.byte	0
 2758 0549 00       		.byte	0
 2759 054a 0F       		.uleb128 0xf
 2760 054b 16060000 		.4byte	.LASF50
 2761 054f 01       		.byte	0x1
 2762 0550 F304     		.2byte	0x4f3
 2763 0552 00000000 		.4byte	.LFB52
 2764 0556 24000000 		.4byte	.LFE52-.LFB52
 2765 055a 01       		.uleb128 0x1
 2766 055b 9C       		.byte	0x9c
 2767 055c 80050000 		.4byte	0x580
 2768 0560 10       		.uleb128 0x10
 2769 0561 19030000 		.4byte	.LASF35
 2770 0565 01       		.byte	0x1
 2771 0566 F504     		.2byte	0x4f5
 2772 0568 81000000 		.4byte	0x81
 2773 056c F7020000 		.4byte	.LLST23
 2774 0570 0E       		.uleb128 0xe
 2775 0571 08000000 		.4byte	.LVL75
 2776 0575 BB040000 		.4byte	0x4bb
 2777 0579 0D       		.uleb128 0xd
 2778 057a 01       		.uleb128 0x1
 2779 057b 50       		.byte	0x50
 2780 057c 01       		.uleb128 0x1
 2781 057d 30       		.byte	0x30
 2782 057e 00       		.byte	0
 2783 057f 00       		.byte	0
 2784 0580 0F       		.uleb128 0xf
 2785 0581 7A030000 		.4byte	.LASF51
 2786 0585 01       		.byte	0x1
 2787 0586 4B05     		.2byte	0x54b
 2788 0588 00000000 		.4byte	.LFB54
 2789 058c B4000000 		.4byte	.LFE54-.LFB54
 2790 0590 01       		.uleb128 0x1
 2791 0591 9C       		.byte	0x9c
 2792 0592 D0060000 		.4byte	0x6d0
 2793 0596 14       		.uleb128 0x14
ARM GAS  C:\Users\merlin\AppData\Local\Temp\ccZOZwzR.s 			page 91


 2794 0597 1C040000 		.4byte	.LASF24
 2795 059b 01       		.byte	0x1
 2796 059c 4B05     		.2byte	0x54b
 2797 059e 81000000 		.4byte	0x81
 2798 05a2 15030000 		.4byte	.LLST24
 2799 05a6 16       		.uleb128 0x16
 2800 05a7 A3020000 		.4byte	.LASF27
 2801 05ab 01       		.byte	0x1
 2802 05ac 4D05     		.2byte	0x54d
 2803 05ae 6B000000 		.4byte	0x6b
 2804 05b2 00       		.byte	0
 2805 05b3 10       		.uleb128 0x10
 2806 05b4 CF000000 		.4byte	.LASF34
 2807 05b8 01       		.byte	0x1
 2808 05b9 4E05     		.2byte	0x54e
 2809 05bb 6B000000 		.4byte	0x6b
 2810 05bf 41030000 		.4byte	.LLST25
 2811 05c3 10       		.uleb128 0x10
 2812 05c4 3D0A0000 		.4byte	.LASF21
 2813 05c8 01       		.byte	0x1
 2814 05c9 4F05     		.2byte	0x54f
 2815 05cb 81000000 		.4byte	0x81
 2816 05cf 54030000 		.4byte	.LLST26
 2817 05d3 10       		.uleb128 0x10
 2818 05d4 0B090000 		.4byte	.LASF52
 2819 05d8 01       		.byte	0x1
 2820 05d9 5005     		.2byte	0x550
 2821 05db 81000000 		.4byte	0x81
 2822 05df 93030000 		.4byte	.LLST27
 2823 05e3 11       		.uleb128 0x11
 2824 05e4 0C000000 		.4byte	.LVL82
 2825 05e8 D30F0000 		.4byte	0xfd3
 2826 05ec 11       		.uleb128 0x11
 2827 05ed 10000000 		.4byte	.LVL83
 2828 05f1 DA0F0000 		.4byte	0xfda
 2829 05f5 0C       		.uleb128 0xc
 2830 05f6 1E000000 		.4byte	.LVL84
 2831 05fa E10F0000 		.4byte	0xfe1
 2832 05fe 08060000 		.4byte	0x608
 2833 0602 0D       		.uleb128 0xd
 2834 0603 01       		.uleb128 0x1
 2835 0604 51       		.byte	0x51
 2836 0605 01       		.uleb128 0x1
 2837 0606 30       		.byte	0x30
 2838 0607 00       		.byte	0
 2839 0608 0C       		.uleb128 0xc
 2840 0609 2A000000 		.4byte	.LVL85
 2841 060d F70F0000 		.4byte	0xff7
 2842 0611 1B060000 		.4byte	0x61b
 2843 0615 0D       		.uleb128 0xd
 2844 0616 01       		.uleb128 0x1
 2845 0617 51       		.byte	0x51
 2846 0618 01       		.uleb128 0x1
 2847 0619 30       		.byte	0x30
 2848 061a 00       		.byte	0
 2849 061b 0C       		.uleb128 0xc
 2850 061c 30000000 		.4byte	.LVL86
ARM GAS  C:\Users\merlin\AppData\Local\Temp\ccZOZwzR.s 			page 92


 2851 0620 0D100000 		.4byte	0x100d
 2852 0624 2F060000 		.4byte	0x62f
 2853 0628 0D       		.uleb128 0xd
 2854 0629 01       		.uleb128 0x1
 2855 062a 50       		.byte	0x50
 2856 062b 02       		.uleb128 0x2
 2857 062c 08       		.byte	0x8
 2858 062d FF       		.byte	0xff
 2859 062e 00       		.byte	0
 2860 062f 0C       		.uleb128 0xc
 2861 0630 36000000 		.4byte	.LVL87
 2862 0634 1E100000 		.4byte	0x101e
 2863 0638 43060000 		.4byte	0x643
 2864 063c 0D       		.uleb128 0xd
 2865 063d 01       		.uleb128 0x1
 2866 063e 50       		.byte	0x50
 2867 063f 02       		.uleb128 0x2
 2868 0640 08       		.byte	0x8
 2869 0641 40       		.byte	0x40
 2870 0642 00       		.byte	0
 2871 0643 0C       		.uleb128 0xc
 2872 0644 3C000000 		.4byte	.LVL88
 2873 0648 920F0000 		.4byte	0xf92
 2874 064c 56060000 		.4byte	0x656
 2875 0650 0D       		.uleb128 0xd
 2876 0651 01       		.uleb128 0x1
 2877 0652 50       		.byte	0x50
 2878 0653 01       		.uleb128 0x1
 2879 0654 41       		.byte	0x41
 2880 0655 00       		.byte	0
 2881 0656 0C       		.uleb128 0xc
 2882 0657 4C000000 		.4byte	.LVL91
 2883 065b 2F100000 		.4byte	0x102f
 2884 065f 69060000 		.4byte	0x669
 2885 0663 0D       		.uleb128 0xd
 2886 0664 01       		.uleb128 0x1
 2887 0665 50       		.byte	0x50
 2888 0666 01       		.uleb128 0x1
 2889 0667 41       		.byte	0x41
 2890 0668 00       		.byte	0
 2891 0669 0C       		.uleb128 0xc
 2892 066a 52000000 		.4byte	.LVL92
 2893 066e 920F0000 		.4byte	0xf92
 2894 0672 7C060000 		.4byte	0x67c
 2895 0676 0D       		.uleb128 0xd
 2896 0677 01       		.uleb128 0x1
 2897 0678 50       		.byte	0x50
 2898 0679 01       		.uleb128 0x1
 2899 067a 41       		.byte	0x41
 2900 067b 00       		.byte	0
 2901 067c 0C       		.uleb128 0xc
 2902 067d 76000000 		.4byte	.LVL99
 2903 0681 2F100000 		.4byte	0x102f
 2904 0685 8F060000 		.4byte	0x68f
 2905 0689 0D       		.uleb128 0xd
 2906 068a 01       		.uleb128 0x1
 2907 068b 50       		.byte	0x50
ARM GAS  C:\Users\merlin\AppData\Local\Temp\ccZOZwzR.s 			page 93


 2908 068c 01       		.uleb128 0x1
 2909 068d 41       		.byte	0x41
 2910 068e 00       		.byte	0
 2911 068f 0C       		.uleb128 0xc
 2912 0690 7C000000 		.4byte	.LVL100
 2913 0694 FF020000 		.4byte	0x2ff
 2914 0698 A3060000 		.4byte	0x6a3
 2915 069c 0D       		.uleb128 0xd
 2916 069d 01       		.uleb128 0x1
 2917 069e 50       		.byte	0x50
 2918 069f 02       		.uleb128 0x2
 2919 06a0 75       		.byte	0x75
 2920 06a1 00       		.sleb128 0
 2921 06a2 00       		.byte	0
 2922 06a3 11       		.uleb128 0x11
 2923 06a4 80000000 		.4byte	.LVL101
 2924 06a8 40100000 		.4byte	0x1040
 2925 06ac 0C       		.uleb128 0xc
 2926 06ad 8A000000 		.4byte	.LVL103
 2927 06b1 5C100000 		.4byte	0x105c
 2928 06b5 BF060000 		.4byte	0x6bf
 2929 06b9 0D       		.uleb128 0xd
 2930 06ba 01       		.uleb128 0x1
 2931 06bb 50       		.byte	0x50
 2932 06bc 01       		.uleb128 0x1
 2933 06bd 30       		.byte	0x30
 2934 06be 00       		.byte	0
 2935 06bf 0E       		.uleb128 0xe
 2936 06c0 94000000 		.4byte	.LVL104
 2937 06c4 4B100000 		.4byte	0x104b
 2938 06c8 0D       		.uleb128 0xd
 2939 06c9 01       		.uleb128 0x1
 2940 06ca 50       		.byte	0x50
 2941 06cb 02       		.uleb128 0x2
 2942 06cc 75       		.byte	0x75
 2943 06cd 00       		.sleb128 0
 2944 06ce 00       		.byte	0
 2945 06cf 00       		.byte	0
 2946 06d0 0F       		.uleb128 0xf
 2947 06d1 AD030000 		.4byte	.LASF53
 2948 06d5 01       		.byte	0x1
 2949 06d6 3E02     		.2byte	0x23e
 2950 06d8 00000000 		.4byte	.LFB40
 2951 06dc 1C000000 		.4byte	.LFE40-.LFB40
 2952 06e0 01       		.uleb128 0x1
 2953 06e1 9C       		.byte	0x9c
 2954 06e2 08070000 		.4byte	0x708
 2955 06e6 14       		.uleb128 0x14
 2956 06e7 1C040000 		.4byte	.LASF24
 2957 06eb 01       		.byte	0x1
 2958 06ec 3E02     		.2byte	0x23e
 2959 06ee 81000000 		.4byte	0x81
 2960 06f2 A6030000 		.4byte	.LLST28
 2961 06f6 0E       		.uleb128 0xe
 2962 06f7 14000000 		.4byte	.LVL109
 2963 06fb 80050000 		.4byte	0x580
 2964 06ff 0D       		.uleb128 0xd
ARM GAS  C:\Users\merlin\AppData\Local\Temp\ccZOZwzR.s 			page 94


 2965 0700 01       		.uleb128 0x1
 2966 0701 50       		.byte	0x50
 2967 0702 03       		.uleb128 0x3
 2968 0703 F3       		.byte	0xf3
 2969 0704 01       		.uleb128 0x1
 2970 0705 50       		.byte	0x50
 2971 0706 00       		.byte	0
 2972 0707 00       		.byte	0
 2973 0708 0F       		.uleb128 0xf
 2974 0709 50000000 		.4byte	.LASF54
 2975 070d 01       		.byte	0x1
 2976 070e 0806     		.2byte	0x608
 2977 0710 00000000 		.4byte	.LFB55
 2978 0714 54000000 		.4byte	.LFE55-.LFB55
 2979 0718 01       		.uleb128 0x1
 2980 0719 9C       		.byte	0x9c
 2981 071a 76070000 		.4byte	0x776
 2982 071e 14       		.uleb128 0x14
 2983 071f 1C040000 		.4byte	.LASF24
 2984 0723 01       		.byte	0x1
 2985 0724 0806     		.2byte	0x608
 2986 0726 81000000 		.4byte	0x81
 2987 072a C7030000 		.4byte	.LLST29
 2988 072e 10       		.uleb128 0x10
 2989 072f 3D0A0000 		.4byte	.LASF21
 2990 0733 01       		.byte	0x1
 2991 0734 0A06     		.2byte	0x60a
 2992 0736 81000000 		.4byte	0x81
 2993 073a E8030000 		.4byte	.LLST30
 2994 073e 0C       		.uleb128 0xc
 2995 073f 12000000 		.4byte	.LVL111
 2996 0743 7F030000 		.4byte	0x37f
 2997 0747 53070000 		.4byte	0x753
 2998 074b 0D       		.uleb128 0xd
 2999 074c 01       		.uleb128 0x1
 3000 074d 50       		.byte	0x50
 3001 074e 03       		.uleb128 0x3
 3002 074f F3       		.byte	0xf3
 3003 0750 01       		.uleb128 0x1
 3004 0751 50       		.byte	0x50
 3005 0752 00       		.byte	0
 3006 0753 0C       		.uleb128 0xc
 3007 0754 18000000 		.4byte	.LVL112
 3008 0758 920F0000 		.4byte	0xf92
 3009 075c 66070000 		.4byte	0x766
 3010 0760 0D       		.uleb128 0xd
 3011 0761 01       		.uleb128 0x1
 3012 0762 50       		.byte	0x50
 3013 0763 01       		.uleb128 0x1
 3014 0764 41       		.byte	0x41
 3015 0765 00       		.byte	0
 3016 0766 0E       		.uleb128 0xe
 3017 0767 38000000 		.4byte	.LVL118
 3018 076b 2F100000 		.4byte	0x102f
 3019 076f 0D       		.uleb128 0xd
 3020 0770 01       		.uleb128 0x1
 3021 0771 50       		.byte	0x50
ARM GAS  C:\Users\merlin\AppData\Local\Temp\ccZOZwzR.s 			page 95


 3022 0772 01       		.uleb128 0x1
 3023 0773 41       		.byte	0x41
 3024 0774 00       		.byte	0
 3025 0775 00       		.byte	0
 3026 0776 0F       		.uleb128 0xf
 3027 0777 52020000 		.4byte	.LASF55
 3028 077b 01       		.byte	0x1
 3029 077c 6206     		.2byte	0x662
 3030 077e 00000000 		.4byte	.LFB56
 3031 0782 34000000 		.4byte	.LFE56-.LFB56
 3032 0786 01       		.uleb128 0x1
 3033 0787 9C       		.byte	0x9c
 3034 0788 BD070000 		.4byte	0x7bd
 3035 078c 14       		.uleb128 0x14
 3036 078d F2050000 		.4byte	.LASF44
 3037 0791 01       		.byte	0x1
 3038 0792 6206     		.2byte	0x662
 3039 0794 81000000 		.4byte	0x81
 3040 0798 15040000 		.4byte	.LLST31
 3041 079c 14       		.uleb128 0x14
 3042 079d 64060000 		.4byte	.LASF45
 3043 07a1 01       		.byte	0x1
 3044 07a2 6206     		.2byte	0x662
 3045 07a4 81000000 		.4byte	0x81
 3046 07a8 36040000 		.4byte	.LLST32
 3047 07ac 10       		.uleb128 0x10
 3048 07ad 3D0A0000 		.4byte	.LASF21
 3049 07b1 01       		.byte	0x1
 3050 07b2 6406     		.2byte	0x664
 3051 07b4 81000000 		.4byte	0x81
 3052 07b8 57040000 		.4byte	.LLST33
 3053 07bc 00       		.byte	0
 3054 07bd 0F       		.uleb128 0xf
 3055 07be AA020000 		.4byte	.LASF56
 3056 07c2 01       		.byte	0x1
 3057 07c3 8506     		.2byte	0x685
 3058 07c5 00000000 		.4byte	.LFB57
 3059 07c9 14000000 		.4byte	.LFE57-.LFB57
 3060 07cd 01       		.uleb128 0x1
 3061 07ce 9C       		.byte	0x9c
 3062 07cf F4070000 		.4byte	0x7f4
 3063 07d3 14       		.uleb128 0x14
 3064 07d4 EE060000 		.4byte	.LASF57
 3065 07d8 01       		.byte	0x1
 3066 07d9 8506     		.2byte	0x685
 3067 07db 81000000 		.4byte	0x81
 3068 07df 75040000 		.4byte	.LLST34
 3069 07e3 10       		.uleb128 0x10
 3070 07e4 3D0A0000 		.4byte	.LASF21
 3071 07e8 01       		.byte	0x1
 3072 07e9 8706     		.2byte	0x687
 3073 07eb 81000000 		.4byte	0x81
 3074 07ef A3040000 		.4byte	.LLST35
 3075 07f3 00       		.byte	0
 3076 07f4 0A       		.uleb128 0xa
 3077 07f5 85060000 		.4byte	.LASF58
 3078 07f9 01       		.byte	0x1
ARM GAS  C:\Users\merlin\AppData\Local\Temp\ccZOZwzR.s 			page 96


 3079 07fa BB       		.byte	0xbb
 3080 07fb 00000000 		.4byte	.LFB34
 3081 07ff 28000000 		.4byte	.LFE34-.LFB34
 3082 0803 01       		.uleb128 0x1
 3083 0804 9C       		.byte	0x9c
 3084 0805 3E080000 		.4byte	0x83e
 3085 0809 0B       		.uleb128 0xb
 3086 080a 640A0000 		.4byte	.LASF47
 3087 080e 01       		.byte	0x1
 3088 080f BD       		.byte	0xbd
 3089 0810 81000000 		.4byte	0x81
 3090 0814 C1040000 		.4byte	.LLST36
 3091 0818 11       		.uleb128 0x11
 3092 0819 16000000 		.4byte	.LVL133
 3093 081d EE000000 		.4byte	0xee
 3094 0821 0C       		.uleb128 0xc
 3095 0822 1C000000 		.4byte	.LVL134
 3096 0826 BD070000 		.4byte	0x7bd
 3097 082a 34080000 		.4byte	0x834
 3098 082e 0D       		.uleb128 0xd
 3099 082f 01       		.uleb128 0x1
 3100 0830 50       		.byte	0x50
 3101 0831 01       		.uleb128 0x1
 3102 0832 30       		.byte	0x30
 3103 0833 00       		.byte	0
 3104 0834 11       		.uleb128 0x11
 3105 0835 20000000 		.4byte	.LVL135
 3106 0839 1F040000 		.4byte	0x41f
 3107 083d 00       		.byte	0
 3108 083e 12       		.uleb128 0x12
 3109 083f 0D070000 		.4byte	.LASF60
 3110 0843 01       		.byte	0x1
 3111 0844 A906     		.2byte	0x6a9
 3112 0846 81000000 		.4byte	0x81
 3113 084a 00000000 		.4byte	.LFB58
 3114 084e 1C000000 		.4byte	.LFE58-.LFB58
 3115 0852 01       		.uleb128 0x1
 3116 0853 9C       		.byte	0x9c
 3117 0854 13       		.uleb128 0x13
 3118 0855 7F090000 		.4byte	.LASF61
 3119 0859 01       		.byte	0x1
 3120 085a C506     		.2byte	0x6c5
 3121 085c 81000000 		.4byte	0x81
 3122 0860 00000000 		.4byte	.LFB59
 3123 0864 1A000000 		.4byte	.LFE59-.LFB59
 3124 0868 01       		.uleb128 0x1
 3125 0869 9C       		.byte	0x9c
 3126 086a AB080000 		.4byte	0x8ab
 3127 086e 14       		.uleb128 0x14
 3128 086f 5F040000 		.4byte	.LASF62
 3129 0873 01       		.byte	0x1
 3130 0874 C506     		.2byte	0x6c5
 3131 0876 E3000000 		.4byte	0xe3
 3132 087a E0040000 		.4byte	.LLST37
 3133 087e 14       		.uleb128 0x14
 3134 087f 780A0000 		.4byte	.LASF63
 3135 0883 01       		.byte	0x1
ARM GAS  C:\Users\merlin\AppData\Local\Temp\ccZOZwzR.s 			page 97


 3136 0884 C506     		.2byte	0x6c5
 3137 0886 81000000 		.4byte	0x81
 3138 088a 1A050000 		.4byte	.LLST38
 3139 088e 17       		.uleb128 0x17
 3140 088f 8B030000 		.4byte	.LASF64
 3141 0893 01       		.byte	0x1
 3142 0894 C706     		.2byte	0x6c7
 3143 0896 81000000 		.4byte	0x81
 3144 089a 01       		.uleb128 0x1
 3145 089b 52       		.byte	0x52
 3146 089c 17       		.uleb128 0x17
 3147 089d F6080000 		.4byte	.LASF65
 3148 08a1 01       		.byte	0x1
 3149 08a2 C806     		.2byte	0x6c8
 3150 08a4 6B000000 		.4byte	0x6b
 3151 08a8 01       		.uleb128 0x1
 3152 08a9 51       		.byte	0x51
 3153 08aa 00       		.byte	0
 3154 08ab 13       		.uleb128 0x13
 3155 08ac 65040000 		.4byte	.LASF66
 3156 08b0 01       		.byte	0x1
 3157 08b1 0E02     		.2byte	0x20e
 3158 08b3 6B000000 		.4byte	0x6b
 3159 08b7 00000000 		.4byte	.LFB39
 3160 08bb 24000000 		.4byte	.LFE39-.LFB39
 3161 08bf 01       		.uleb128 0x1
 3162 08c0 9C       		.byte	0x9c
 3163 08c1 FF080000 		.4byte	0x8ff
 3164 08c5 14       		.uleb128 0x14
 3165 08c6 FC050000 		.4byte	.LASF41
 3166 08ca 01       		.byte	0x1
 3167 08cb 0E02     		.2byte	0x20e
 3168 08cd 6B000000 		.4byte	0x6b
 3169 08d1 3B050000 		.4byte	.LLST39
 3170 08d5 10       		.uleb128 0x10
 3171 08d6 48050000 		.4byte	.LASF67
 3172 08da 01       		.byte	0x1
 3173 08db 1002     		.2byte	0x210
 3174 08dd 81000000 		.4byte	0x81
 3175 08e1 6F050000 		.4byte	.LLST40
 3176 08e5 0E       		.uleb128 0xe
 3177 08e6 16000000 		.4byte	.LVL147
 3178 08ea 54080000 		.4byte	0x854
 3179 08ee 0D       		.uleb128 0xd
 3180 08ef 01       		.uleb128 0x1
 3181 08f0 51       		.byte	0x51
 3182 08f1 02       		.uleb128 0x2
 3183 08f2 74       		.byte	0x74
 3184 08f3 00       		.sleb128 0
 3185 08f4 0D       		.uleb128 0xd
 3186 08f5 01       		.uleb128 0x1
 3187 08f6 50       		.byte	0x50
 3188 08f7 05       		.uleb128 0x5
 3189 08f8 03       		.byte	0x3
 3190 08f9 08000000 		.4byte	.LANCHOR0+8
 3191 08fd 00       		.byte	0
 3192 08fe 00       		.byte	0
ARM GAS  C:\Users\merlin\AppData\Local\Temp\ccZOZwzR.s 			page 98


 3193 08ff 0F       		.uleb128 0xf
 3194 0900 EC040000 		.4byte	.LASF68
 3195 0904 01       		.byte	0x1
 3196 0905 BA02     		.2byte	0x2ba
 3197 0907 00000000 		.4byte	.LFB42
 3198 090b 34000000 		.4byte	.LFE42-.LFB42
 3199 090f 01       		.uleb128 0x1
 3200 0910 9C       		.byte	0x9c
 3201 0911 28090000 		.4byte	0x928
 3202 0915 11       		.uleb128 0x11
 3203 0916 14000000 		.4byte	.LVL150
 3204 091a AB080000 		.4byte	0x8ab
 3205 091e 11       		.uleb128 0x11
 3206 091f 2C000000 		.4byte	.LVL151
 3207 0923 80050000 		.4byte	0x580
 3208 0927 00       		.byte	0
 3209 0928 0F       		.uleb128 0xf
 3210 0929 6A090000 		.4byte	.LASF69
 3211 092d 01       		.byte	0x1
 3212 092e F006     		.2byte	0x6f0
 3213 0930 00000000 		.4byte	.LFB60
 3214 0934 26000000 		.4byte	.LFE60-.LFB60
 3215 0938 01       		.uleb128 0x1
 3216 0939 9C       		.byte	0x9c
 3217 093a 8B090000 		.4byte	0x98b
 3218 093e 15       		.uleb128 0x15
 3219 093f 5F040000 		.4byte	.LASF62
 3220 0943 01       		.byte	0x1
 3221 0944 F006     		.2byte	0x6f0
 3222 0946 DD000000 		.4byte	0xdd
 3223 094a 01       		.uleb128 0x1
 3224 094b 50       		.byte	0x50
 3225 094c 14       		.uleb128 0x14
 3226 094d 780A0000 		.4byte	.LASF63
 3227 0951 01       		.byte	0x1
 3228 0952 F006     		.2byte	0x6f0
 3229 0954 81000000 		.4byte	0x81
 3230 0958 82050000 		.4byte	.LLST41
 3231 095c 15       		.uleb128 0x15
 3232 095d 13030000 		.4byte	.LASF25
 3233 0961 01       		.byte	0x1
 3234 0962 F006     		.2byte	0x6f0
 3235 0964 81000000 		.4byte	0x81
 3236 0968 01       		.uleb128 0x1
 3237 0969 52       		.byte	0x52
 3238 096a 10       		.uleb128 0x10
 3239 096b 8B030000 		.4byte	.LASF64
 3240 096f 01       		.byte	0x1
 3241 0970 F206     		.2byte	0x6f2
 3242 0972 81000000 		.4byte	0x81
 3243 0976 A3050000 		.4byte	.LLST42
 3244 097a 10       		.uleb128 0x10
 3245 097b F6080000 		.4byte	.LASF65
 3246 097f 01       		.byte	0x1
 3247 0980 F306     		.2byte	0x6f3
 3248 0982 6B000000 		.4byte	0x6b
 3249 0986 E1050000 		.4byte	.LLST43
ARM GAS  C:\Users\merlin\AppData\Local\Temp\ccZOZwzR.s 			page 99


 3250 098a 00       		.byte	0
 3251 098b 0F       		.uleb128 0xf
 3252 098c F2000000 		.4byte	.LASF70
 3253 0990 01       		.byte	0x1
 3254 0991 6502     		.2byte	0x265
 3255 0993 00000000 		.4byte	.LFB41
 3256 0997 88000000 		.4byte	.LFE41-.LFB41
 3257 099b 01       		.uleb128 0x1
 3258 099c 9C       		.byte	0x9c
 3259 099d 2F0A0000 		.4byte	0xa2f
 3260 09a1 14       		.uleb128 0x14
 3261 09a2 A3020000 		.4byte	.LASF27
 3262 09a6 01       		.byte	0x1
 3263 09a7 6502     		.2byte	0x265
 3264 09a9 81000000 		.4byte	0x81
 3265 09ad 23060000 		.4byte	.LLST44
 3266 09b1 10       		.uleb128 0x10
 3267 09b2 D7030000 		.4byte	.LASF71
 3268 09b6 01       		.byte	0x1
 3269 09b7 6702     		.2byte	0x267
 3270 09b9 81000000 		.4byte	0x81
 3271 09bd 44060000 		.4byte	.LLST45
 3272 09c1 10       		.uleb128 0x10
 3273 09c2 05060000 		.4byte	.LASF72
 3274 09c6 01       		.byte	0x1
 3275 09c7 6802     		.2byte	0x268
 3276 09c9 81000000 		.4byte	0x81
 3277 09cd 57060000 		.4byte	.LLST46
 3278 09d1 10       		.uleb128 0x10
 3279 09d2 FC050000 		.4byte	.LASF41
 3280 09d6 01       		.byte	0x1
 3281 09d7 6902     		.2byte	0x269
 3282 09d9 81000000 		.4byte	0x81
 3283 09dd 6A060000 		.4byte	.LLST47
 3284 09e1 0C       		.uleb128 0xc
 3285 09e2 4A000000 		.4byte	.LVL169
 3286 09e6 28090000 		.4byte	0x928
 3287 09ea 030A0000 		.4byte	0xa03
 3288 09ee 0D       		.uleb128 0xd
 3289 09ef 01       		.uleb128 0x1
 3290 09f0 52       		.byte	0x52
 3291 09f1 01       		.uleb128 0x1
 3292 09f2 31       		.byte	0x31
 3293 09f3 0D       		.uleb128 0xd
 3294 09f4 01       		.uleb128 0x1
 3295 09f5 51       		.byte	0x51
 3296 09f6 02       		.uleb128 0x2
 3297 09f7 74       		.byte	0x74
 3298 09f8 00       		.sleb128 0
 3299 09f9 0D       		.uleb128 0xd
 3300 09fa 01       		.uleb128 0x1
 3301 09fb 50       		.byte	0x50
 3302 09fc 05       		.uleb128 0x5
 3303 09fd 03       		.byte	0x3
 3304 09fe 08000000 		.4byte	.LANCHOR0+8
 3305 0a02 00       		.byte	0
 3306 0a03 0C       		.uleb128 0xc
ARM GAS  C:\Users\merlin\AppData\Local\Temp\ccZOZwzR.s 			page 100


 3307 0a04 58000000 		.4byte	.LVL170
 3308 0a08 28090000 		.4byte	0x928
 3309 0a0c 250A0000 		.4byte	0xa25
 3310 0a10 0D       		.uleb128 0xd
 3311 0a11 01       		.uleb128 0x1
 3312 0a12 52       		.byte	0x52
 3313 0a13 01       		.uleb128 0x1
 3314 0a14 30       		.byte	0x30
 3315 0a15 0D       		.uleb128 0xd
 3316 0a16 01       		.uleb128 0x1
 3317 0a17 51       		.byte	0x51
 3318 0a18 02       		.uleb128 0x2
 3319 0a19 74       		.byte	0x74
 3320 0a1a 00       		.sleb128 0
 3321 0a1b 0D       		.uleb128 0xd
 3322 0a1c 01       		.uleb128 0x1
 3323 0a1d 50       		.byte	0x50
 3324 0a1e 05       		.uleb128 0x5
 3325 0a1f 03       		.byte	0x3
 3326 0a20 08000000 		.4byte	.LANCHOR0+8
 3327 0a24 00       		.byte	0
 3328 0a25 11       		.uleb128 0x11
 3329 0a26 74000000 		.4byte	.LVL172
 3330 0a2a 80050000 		.4byte	0x580
 3331 0a2e 00       		.byte	0
 3332 0a2f 13       		.uleb128 0x13
 3333 0a30 CA050000 		.4byte	.LASF73
 3334 0a34 01       		.byte	0x1
 3335 0a35 2207     		.2byte	0x722
 3336 0a37 81000000 		.4byte	0x81
 3337 0a3b 00000000 		.4byte	.LFB61
 3338 0a3f 0C000000 		.4byte	.LFE61-.LFB61
 3339 0a43 01       		.uleb128 0x1
 3340 0a44 9C       		.byte	0x9c
 3341 0a45 5A0A0000 		.4byte	0xa5a
 3342 0a49 14       		.uleb128 0x14
 3343 0a4a 1C040000 		.4byte	.LASF24
 3344 0a4e 01       		.byte	0x1
 3345 0a4f 2207     		.2byte	0x722
 3346 0a51 81000000 		.4byte	0x81
 3347 0a55 94060000 		.4byte	.LLST48
 3348 0a59 00       		.byte	0
 3349 0a5a 0F       		.uleb128 0xf
 3350 0a5b 14010000 		.4byte	.LASF74
 3351 0a5f 01       		.byte	0x1
 3352 0a60 4107     		.2byte	0x741
 3353 0a62 00000000 		.4byte	.LFB62
 3354 0a66 0C000000 		.4byte	.LFE62-.LFB62
 3355 0a6a 01       		.uleb128 0x1
 3356 0a6b 9C       		.byte	0x9c
 3357 0a6c 8F0A0000 		.4byte	0xa8f
 3358 0a70 14       		.uleb128 0x14
 3359 0a71 1C040000 		.4byte	.LASF24
 3360 0a75 01       		.byte	0x1
 3361 0a76 4107     		.2byte	0x741
 3362 0a78 81000000 		.4byte	0x81
 3363 0a7c B5060000 		.4byte	.LLST49
ARM GAS  C:\Users\merlin\AppData\Local\Temp\ccZOZwzR.s 			page 101


 3364 0a80 15       		.uleb128 0x15
 3365 0a81 B9060000 		.4byte	.LASF75
 3366 0a85 01       		.byte	0x1
 3367 0a86 4107     		.2byte	0x741
 3368 0a88 81000000 		.4byte	0x81
 3369 0a8c 01       		.uleb128 0x1
 3370 0a8d 51       		.byte	0x51
 3371 0a8e 00       		.byte	0
 3372 0a8f 13       		.uleb128 0x13
 3373 0a90 4C080000 		.4byte	.LASF76
 3374 0a94 01       		.byte	0x1
 3375 0a95 6107     		.2byte	0x761
 3376 0a97 81000000 		.4byte	0x81
 3377 0a9b 00000000 		.4byte	.LFB63
 3378 0a9f 0C000000 		.4byte	.LFE63-.LFB63
 3379 0aa3 01       		.uleb128 0x1
 3380 0aa4 9C       		.byte	0x9c
 3381 0aa5 BA0A0000 		.4byte	0xaba
 3382 0aa9 14       		.uleb128 0x14
 3383 0aaa 1C040000 		.4byte	.LASF24
 3384 0aae 01       		.byte	0x1
 3385 0aaf 6107     		.2byte	0x761
 3386 0ab1 81000000 		.4byte	0x81
 3387 0ab5 D6060000 		.4byte	.LLST50
 3388 0ab9 00       		.byte	0
 3389 0aba 0F       		.uleb128 0xf
 3390 0abb 7E050000 		.4byte	.LASF77
 3391 0abf 01       		.byte	0x1
 3392 0ac0 8007     		.2byte	0x780
 3393 0ac2 00000000 		.4byte	.LFB64
 3394 0ac6 0C000000 		.4byte	.LFE64-.LFB64
 3395 0aca 01       		.uleb128 0x1
 3396 0acb 9C       		.byte	0x9c
 3397 0acc EF0A0000 		.4byte	0xaef
 3398 0ad0 14       		.uleb128 0x14
 3399 0ad1 1C040000 		.4byte	.LASF24
 3400 0ad5 01       		.byte	0x1
 3401 0ad6 8007     		.2byte	0x780
 3402 0ad8 81000000 		.4byte	0x81
 3403 0adc F7060000 		.4byte	.LLST51
 3404 0ae0 15       		.uleb128 0x15
 3405 0ae1 06030000 		.4byte	.LASF78
 3406 0ae5 01       		.byte	0x1
 3407 0ae6 8007     		.2byte	0x780
 3408 0ae8 81000000 		.4byte	0x81
 3409 0aec 01       		.uleb128 0x1
 3410 0aed 51       		.byte	0x51
 3411 0aee 00       		.byte	0
 3412 0aef 13       		.uleb128 0x13
 3413 0af0 EC090000 		.4byte	.LASF79
 3414 0af4 01       		.byte	0x1
 3415 0af5 9F07     		.2byte	0x79f
 3416 0af7 81000000 		.4byte	0x81
 3417 0afb 00000000 		.4byte	.LFB65
 3418 0aff 0C000000 		.4byte	.LFE65-.LFB65
 3419 0b03 01       		.uleb128 0x1
 3420 0b04 9C       		.byte	0x9c
ARM GAS  C:\Users\merlin\AppData\Local\Temp\ccZOZwzR.s 			page 102


 3421 0b05 1A0B0000 		.4byte	0xb1a
 3422 0b09 14       		.uleb128 0x14
 3423 0b0a 1C040000 		.4byte	.LASF24
 3424 0b0e 01       		.byte	0x1
 3425 0b0f 9F07     		.2byte	0x79f
 3426 0b11 81000000 		.4byte	0x81
 3427 0b15 18070000 		.4byte	.LLST52
 3428 0b19 00       		.byte	0
 3429 0b1a 0F       		.uleb128 0xf
 3430 0b1b 34090000 		.4byte	.LASF80
 3431 0b1f 01       		.byte	0x1
 3432 0b20 BA07     		.2byte	0x7ba
 3433 0b22 00000000 		.4byte	.LFB66
 3434 0b26 0C000000 		.4byte	.LFE66-.LFB66
 3435 0b2a 01       		.uleb128 0x1
 3436 0b2b 9C       		.byte	0x9c
 3437 0b2c 4F0B0000 		.4byte	0xb4f
 3438 0b30 14       		.uleb128 0x14
 3439 0b31 1C040000 		.4byte	.LASF24
 3440 0b35 01       		.byte	0x1
 3441 0b36 BA07     		.2byte	0x7ba
 3442 0b38 81000000 		.4byte	0x81
 3443 0b3c 39070000 		.4byte	.LLST53
 3444 0b40 15       		.uleb128 0x15
 3445 0b41 C9080000 		.4byte	.LASF81
 3446 0b45 01       		.byte	0x1
 3447 0b46 BA07     		.2byte	0x7ba
 3448 0b48 81000000 		.4byte	0x81
 3449 0b4c 01       		.uleb128 0x1
 3450 0b4d 51       		.byte	0x51
 3451 0b4e 00       		.byte	0
 3452 0b4f 13       		.uleb128 0x13
 3453 0b50 94090000 		.4byte	.LASF82
 3454 0b54 01       		.byte	0x1
 3455 0b55 D707     		.2byte	0x7d7
 3456 0b57 81000000 		.4byte	0x81
 3457 0b5b 00000000 		.4byte	.LFB67
 3458 0b5f 0C000000 		.4byte	.LFE67-.LFB67
 3459 0b63 01       		.uleb128 0x1
 3460 0b64 9C       		.byte	0x9c
 3461 0b65 7A0B0000 		.4byte	0xb7a
 3462 0b69 14       		.uleb128 0x14
 3463 0b6a 1C040000 		.4byte	.LASF24
 3464 0b6e 01       		.byte	0x1
 3465 0b6f D707     		.2byte	0x7d7
 3466 0b71 81000000 		.4byte	0x81
 3467 0b75 5A070000 		.4byte	.LLST54
 3468 0b79 00       		.byte	0
 3469 0b7a 0F       		.uleb128 0xf
 3470 0b7b 61010000 		.4byte	.LASF83
 3471 0b7f 01       		.byte	0x1
 3472 0b80 F407     		.2byte	0x7f4
 3473 0b82 00000000 		.4byte	.LFB68
 3474 0b86 0C000000 		.4byte	.LFE68-.LFB68
 3475 0b8a 01       		.uleb128 0x1
 3476 0b8b 9C       		.byte	0x9c
 3477 0b8c AF0B0000 		.4byte	0xbaf
ARM GAS  C:\Users\merlin\AppData\Local\Temp\ccZOZwzR.s 			page 103


 3478 0b90 14       		.uleb128 0x14
 3479 0b91 1C040000 		.4byte	.LASF24
 3480 0b95 01       		.byte	0x1
 3481 0b96 F407     		.2byte	0x7f4
 3482 0b98 81000000 		.4byte	0x81
 3483 0b9c 7B070000 		.4byte	.LLST55
 3484 0ba0 15       		.uleb128 0x15
 3485 0ba1 A3080000 		.4byte	.LASF84
 3486 0ba5 01       		.byte	0x1
 3487 0ba6 F407     		.2byte	0x7f4
 3488 0ba8 81000000 		.4byte	0x81
 3489 0bac 01       		.uleb128 0x1
 3490 0bad 51       		.byte	0x51
 3491 0bae 00       		.byte	0
 3492 0baf 12       		.uleb128 0x12
 3493 0bb0 D6040000 		.4byte	.LASF85
 3494 0bb4 01       		.byte	0x1
 3495 0bb5 1108     		.2byte	0x811
 3496 0bb7 81000000 		.4byte	0x81
 3497 0bbb 00000000 		.4byte	.LFB69
 3498 0bbf 14000000 		.4byte	.LFE69-.LFB69
 3499 0bc3 01       		.uleb128 0x1
 3500 0bc4 9C       		.byte	0x9c
 3501 0bc5 0F       		.uleb128 0xf
 3502 0bc6 4E060000 		.4byte	.LASF86
 3503 0bca 01       		.byte	0x1
 3504 0bcb 2F08     		.2byte	0x82f
 3505 0bcd 00000000 		.4byte	.LFB70
 3506 0bd1 28000000 		.4byte	.LFE70-.LFB70
 3507 0bd5 01       		.uleb128 0x1
 3508 0bd6 9C       		.byte	0x9c
 3509 0bd7 EA0B0000 		.4byte	0xbea
 3510 0bdb 15       		.uleb128 0x15
 3511 0bdc 86080000 		.4byte	.LASF87
 3512 0be0 01       		.byte	0x1
 3513 0be1 2F08     		.2byte	0x82f
 3514 0be3 81000000 		.4byte	0x81
 3515 0be7 01       		.uleb128 0x1
 3516 0be8 50       		.byte	0x50
 3517 0be9 00       		.byte	0
 3518 0bea 13       		.uleb128 0x13
 3519 0beb 6F060000 		.4byte	.LASF88
 3520 0bef 01       		.byte	0x1
 3521 0bf0 5708     		.2byte	0x857
 3522 0bf2 76000000 		.4byte	0x76
 3523 0bf6 00000000 		.4byte	.LFB71
 3524 0bfa 2A000000 		.4byte	.LFE71-.LFB71
 3525 0bfe 01       		.uleb128 0x1
 3526 0bff 9C       		.byte	0x9c
 3527 0c00 620C0000 		.4byte	0xc62
 3528 0c04 14       		.uleb128 0x14
 3529 0c05 1C040000 		.4byte	.LASF24
 3530 0c09 01       		.byte	0x1
 3531 0c0a 5708     		.2byte	0x857
 3532 0c0c 81000000 		.4byte	0x81
 3533 0c10 9C070000 		.4byte	.LLST56
 3534 0c14 10       		.uleb128 0x10
ARM GAS  C:\Users\merlin\AppData\Local\Temp\ccZOZwzR.s 			page 104


 3535 0c15 12040000 		.4byte	.LASF89
 3536 0c19 01       		.byte	0x1
 3537 0c1a 5908     		.2byte	0x859
 3538 0c1c 81000000 		.4byte	0x81
 3539 0c20 C8070000 		.4byte	.LLST57
 3540 0c24 10       		.uleb128 0x10
 3541 0c25 3D010000 		.4byte	.LASF90
 3542 0c29 01       		.byte	0x1
 3543 0c2a 5A08     		.2byte	0x85a
 3544 0c2c 81000000 		.4byte	0x81
 3545 0c30 E7070000 		.4byte	.LLST58
 3546 0c34 0C       		.uleb128 0xc
 3547 0c35 10000000 		.4byte	.LVL195
 3548 0c39 D0060000 		.4byte	0x6d0
 3549 0c3d 480C0000 		.4byte	0xc48
 3550 0c41 0D       		.uleb128 0xd
 3551 0c42 01       		.uleb128 0x1
 3552 0c43 50       		.byte	0x50
 3553 0c44 02       		.uleb128 0x2
 3554 0c45 76       		.byte	0x76
 3555 0c46 00       		.sleb128 0
 3556 0c47 00       		.byte	0
 3557 0c48 11       		.uleb128 0x11
 3558 0c49 14000000 		.4byte	.LVL196
 3559 0c4d 29020000 		.4byte	0x229
 3560 0c51 0E       		.uleb128 0xe
 3561 0c52 1E000000 		.4byte	.LVL197
 3562 0c56 3F020000 		.4byte	0x23f
 3563 0c5a 0D       		.uleb128 0xd
 3564 0c5b 01       		.uleb128 0x1
 3565 0c5c 50       		.byte	0x50
 3566 0c5d 02       		.uleb128 0x2
 3567 0c5e 76       		.byte	0x76
 3568 0c5f 00       		.sleb128 0
 3569 0c60 00       		.byte	0
 3570 0c61 00       		.byte	0
 3571 0c62 0F       		.uleb128 0xf
 3572 0c63 F4060000 		.4byte	.LASF91
 3573 0c67 01       		.byte	0x1
 3574 0c68 8108     		.2byte	0x881
 3575 0c6a 00000000 		.4byte	.LFB72
 3576 0c6e 2A000000 		.4byte	.LFE72-.LFB72
 3577 0c72 01       		.uleb128 0x1
 3578 0c73 9C       		.byte	0x9c
 3579 0c74 D90C0000 		.4byte	0xcd9
 3580 0c78 14       		.uleb128 0x14
 3581 0c79 1C040000 		.4byte	.LASF24
 3582 0c7d 01       		.byte	0x1
 3583 0c7e 8108     		.2byte	0x881
 3584 0c80 81000000 		.4byte	0x81
 3585 0c84 06080000 		.4byte	.LLST59
 3586 0c88 14       		.uleb128 0x14
 3587 0c89 C1030000 		.4byte	.LASF92
 3588 0c8d 01       		.byte	0x1
 3589 0c8e 8108     		.2byte	0x881
 3590 0c90 81000000 		.4byte	0x81
 3591 0c94 32080000 		.4byte	.LLST60
ARM GAS  C:\Users\merlin\AppData\Local\Temp\ccZOZwzR.s 			page 105


 3592 0c98 14       		.uleb128 0x14
 3593 0c99 560A0000 		.4byte	.LASF93
 3594 0c9d 01       		.byte	0x1
 3595 0c9e 8108     		.2byte	0x881
 3596 0ca0 DD000000 		.4byte	0xdd
 3597 0ca4 5E080000 		.4byte	.LLST61
 3598 0ca8 10       		.uleb128 0x10
 3599 0ca9 ED050000 		.4byte	.LASF94
 3600 0cad 01       		.byte	0x1
 3601 0cae 8308     		.2byte	0x883
 3602 0cb0 6B000000 		.4byte	0x6b
 3603 0cb4 7F080000 		.4byte	.LLST62
 3604 0cb8 10       		.uleb128 0x10
 3605 0cb9 93060000 		.4byte	.LASF95
 3606 0cbd 01       		.byte	0x1
 3607 0cbe 8408     		.2byte	0x884
 3608 0cc0 76000000 		.4byte	0x76
 3609 0cc4 9F080000 		.4byte	.LLST63
 3610 0cc8 0E       		.uleb128 0xe
 3611 0cc9 1A000000 		.4byte	.LVL206
 3612 0ccd EA0B0000 		.4byte	0xbea
 3613 0cd1 0D       		.uleb128 0xd
 3614 0cd2 01       		.uleb128 0x1
 3615 0cd3 50       		.byte	0x50
 3616 0cd4 02       		.uleb128 0x2
 3617 0cd5 75       		.byte	0x75
 3618 0cd6 00       		.sleb128 0
 3619 0cd7 00       		.byte	0
 3620 0cd8 00       		.byte	0
 3621 0cd9 18       		.uleb128 0x18
 3622 0cda E3000000 		.4byte	.LASF96
 3623 0cde 01       		.byte	0x1
 3624 0cdf 8C01     		.2byte	0x18c
 3625 0ce1 00000000 		.4byte	.LFB37
 3626 0ce5 94000000 		.4byte	.LFE37-.LFB37
 3627 0ce9 01       		.uleb128 0x1
 3628 0cea 9C       		.byte	0x9c
 3629 0ceb 5A0D0000 		.4byte	0xd5a
 3630 0cef 17       		.uleb128 0x17
 3631 0cf0 E8030000 		.4byte	.LASF97
 3632 0cf4 01       		.byte	0x1
 3633 0cf5 8F01     		.2byte	0x18f
 3634 0cf7 6B000000 		.4byte	0x6b
 3635 0cfb 05       		.uleb128 0x5
 3636 0cfc 03       		.byte	0x3
 3637 0cfd 09000000 		.4byte	CapSense_initVar.5252
 3638 0d01 10       		.uleb128 0x10
 3639 0d02 640A0000 		.4byte	.LASF47
 3640 0d06 01       		.byte	0x1
 3641 0d07 9201     		.2byte	0x192
 3642 0d09 81000000 		.4byte	0x81
 3643 0d0d BE080000 		.4byte	.LLST64
 3644 0d11 10       		.uleb128 0x10
 3645 0d12 C1030000 		.4byte	.LASF92
 3646 0d16 01       		.byte	0x1
 3647 0d17 9301     		.2byte	0x193
 3648 0d19 81000000 		.4byte	0x81
ARM GAS  C:\Users\merlin\AppData\Local\Temp\ccZOZwzR.s 			page 106


 3649 0d1d E8080000 		.4byte	.LLST65
 3650 0d21 10       		.uleb128 0x10
 3651 0d22 A3020000 		.4byte	.LASF27
 3652 0d26 01       		.byte	0x1
 3653 0d27 9401     		.2byte	0x194
 3654 0d29 81000000 		.4byte	0x81
 3655 0d2d 27090000 		.4byte	.LLST66
 3656 0d31 11       		.uleb128 0x11
 3657 0d32 0E000000 		.4byte	.LVL211
 3658 0d36 F4070000 		.4byte	0x7f4
 3659 0d3a 11       		.uleb128 0x11
 3660 0d3b 18000000 		.4byte	.LVL212
 3661 0d3f 4D010000 		.4byte	0x14d
 3662 0d43 0E       		.uleb128 0xe
 3663 0d44 44000000 		.4byte	.LVL220
 3664 0d48 620C0000 		.4byte	0xc62
 3665 0d4c 0D       		.uleb128 0xd
 3666 0d4d 01       		.uleb128 0x1
 3667 0d4e 52       		.byte	0x52
 3668 0d4f 02       		.uleb128 0x2
 3669 0d50 75       		.byte	0x75
 3670 0d51 0C       		.sleb128 12
 3671 0d52 0D       		.uleb128 0xd
 3672 0d53 01       		.uleb128 0x1
 3673 0d54 50       		.byte	0x50
 3674 0d55 02       		.uleb128 0x2
 3675 0d56 74       		.byte	0x74
 3676 0d57 00       		.sleb128 0
 3677 0d58 00       		.byte	0
 3678 0d59 00       		.byte	0
 3679 0d5a 0F       		.uleb128 0xf
 3680 0d5b 6D070000 		.4byte	.LASF98
 3681 0d5f 01       		.byte	0x1
 3682 0d60 C108     		.2byte	0x8c1
 3683 0d62 00000000 		.4byte	.LFB73
 3684 0d66 0C000000 		.4byte	.LFE73-.LFB73
 3685 0d6a 01       		.uleb128 0x1
 3686 0d6b 9C       		.byte	0x9c
 3687 0d6c 8D0D0000 		.4byte	0xd8d
 3688 0d70 15       		.uleb128 0x15
 3689 0d71 1C040000 		.4byte	.LASF24
 3690 0d75 01       		.byte	0x1
 3691 0d76 C108     		.2byte	0x8c1
 3692 0d78 81000000 		.4byte	0x81
 3693 0d7c 01       		.uleb128 0x1
 3694 0d7d 50       		.byte	0x50
 3695 0d7e 15       		.uleb128 0x15
 3696 0d7f 6E030000 		.4byte	.LASF39
 3697 0d83 01       		.byte	0x1
 3698 0d84 C108     		.2byte	0x8c1
 3699 0d86 81000000 		.4byte	0x81
 3700 0d8a 01       		.uleb128 0x1
 3701 0d8b 51       		.byte	0x51
 3702 0d8c 00       		.byte	0
 3703 0d8d 19       		.uleb128 0x19
 3704 0d8e 9B060000 		.4byte	.LASF99
 3705 0d92 01       		.byte	0x1
ARM GAS  C:\Users\merlin\AppData\Local\Temp\ccZOZwzR.s 			page 107


 3706 0d93 28       		.byte	0x28
 3707 0d94 6B000000 		.4byte	0x6b
 3708 0d98 05       		.uleb128 0x5
 3709 0d99 03       		.byte	0x3
 3710 0d9a 00000000 		.4byte	CapSense_prescalersTuningDone
 3711 0d9e 19       		.uleb128 0x19
 3712 0d9f 62000000 		.4byte	.LASF100
 3713 0da3 01       		.byte	0x1
 3714 0da4 2C       		.byte	0x2c
 3715 0da5 AD000000 		.4byte	0xad
 3716 0da9 05       		.uleb128 0x5
 3717 0daa 03       		.byte	0x3
 3718 0dab 00000000 		.4byte	CapSense_csdStatusVar
 3719 0daf 19       		.uleb128 0x19
 3720 0db0 8E020000 		.4byte	.LASF101
 3721 0db4 01       		.byte	0x1
 3722 0db5 2D       		.byte	0x2d
 3723 0db6 AD000000 		.4byte	0xad
 3724 0dba 05       		.uleb128 0x5
 3725 0dbb 03       		.byte	0x3
 3726 0dbc 00000000 		.4byte	CapSense_sensorIndex
 3727 0dc0 1A       		.uleb128 0x1a
 3728 0dc1 76000000 		.4byte	0x76
 3729 0dc5 D00D0000 		.4byte	0xdd0
 3730 0dc9 1B       		.uleb128 0x1b
 3731 0dca D6000000 		.4byte	0xd6
 3732 0dce 00       		.byte	0
 3733 0dcf 00       		.byte	0
 3734 0dd0 19       		.uleb128 0x19
 3735 0dd1 23040000 		.4byte	.LASF102
 3736 0dd5 01       		.byte	0x1
 3737 0dd6 30       		.byte	0x30
 3738 0dd7 C00D0000 		.4byte	0xdc0
 3739 0ddb 05       		.uleb128 0x5
 3740 0ddc 03       		.byte	0x3
 3741 0ddd 00000000 		.4byte	CapSense_sensorRaw
 3742 0de1 1A       		.uleb128 0x1a
 3743 0de2 6B000000 		.4byte	0x6b
 3744 0de6 F10D0000 		.4byte	0xdf1
 3745 0dea 1B       		.uleb128 0x1b
 3746 0deb D6000000 		.4byte	0xd6
 3747 0def 00       		.byte	0
 3748 0df0 00       		.byte	0
 3749 0df1 19       		.uleb128 0x19
 3750 0df2 9E050000 		.4byte	.LASF103
 3751 0df6 01       		.byte	0x1
 3752 0df7 3A       		.byte	0x3a
 3753 0df8 E10D0000 		.4byte	0xde1
 3754 0dfc 05       		.uleb128 0x5
 3755 0dfd 03       		.byte	0x3
 3756 0dfe 00000000 		.4byte	CapSense_unscannedSnsDriveMode
 3757 0e02 19       		.uleb128 0x19
 3758 0e03 4D070000 		.4byte	.LASF104
 3759 0e07 01       		.byte	0x1
 3760 0e08 3D       		.byte	0x3d
 3761 0e09 E10D0000 		.4byte	0xde1
 3762 0e0d 05       		.uleb128 0x5
ARM GAS  C:\Users\merlin\AppData\Local\Temp\ccZOZwzR.s 			page 108


 3763 0e0e 03       		.byte	0x3
 3764 0e0f 00000000 		.4byte	CapSense_sensorEnableMaskBackup
 3765 0e13 19       		.uleb128 0x19
 3766 0e14 6C080000 		.4byte	.LASF105
 3767 0e18 01       		.byte	0x1
 3768 0e19 40       		.byte	0x40
 3769 0e1a E10D0000 		.4byte	0xde1
 3770 0e1e 05       		.uleb128 0x5
 3771 0e1f 03       		.byte	0x3
 3772 0e20 00000000 		.4byte	CapSense_sensorEnableMask
 3773 0e24 19       		.uleb128 0x19
 3774 0e25 08050000 		.4byte	.LASF106
 3775 0e29 01       		.byte	0x1
 3776 0e2a 53       		.byte	0x53
 3777 0e2b E10D0000 		.4byte	0xde1
 3778 0e2f 05       		.uleb128 0x5
 3779 0e30 03       		.byte	0x3
 3780 0e31 00000000 		.4byte	CapSense_modulationIDAC
 3781 0e35 19       		.uleb128 0x19
 3782 0e36 78000000 		.4byte	.LASF107
 3783 0e3a 01       		.byte	0x1
 3784 0e3b 56       		.byte	0x56
 3785 0e3c E10D0000 		.4byte	0xde1
 3786 0e40 05       		.uleb128 0x5
 3787 0e41 03       		.byte	0x3
 3788 0e42 00000000 		.4byte	CapSense_compensationIDAC
 3789 0e46 1A       		.uleb128 0x1a
 3790 0e47 81000000 		.4byte	0x81
 3791 0e4b 560E0000 		.4byte	0xe56
 3792 0e4f 1B       		.uleb128 0x1b
 3793 0e50 D6000000 		.4byte	0xd6
 3794 0e54 00       		.byte	0
 3795 0e55 00       		.byte	0
 3796 0e56 19       		.uleb128 0x19
 3797 0e57 AF040000 		.4byte	.LASF108
 3798 0e5b 01       		.byte	0x1
 3799 0e5c 5A       		.byte	0x5a
 3800 0e5d 460E0000 		.4byte	0xe46
 3801 0e61 05       		.uleb128 0x5
 3802 0e62 03       		.byte	0x3
 3803 0e63 00000000 		.4byte	CapSense_widgetResolution
 3804 0e67 19       		.uleb128 0x19
 3805 0e68 42030000 		.4byte	.LASF109
 3806 0e6c 01       		.byte	0x1
 3807 0e6d 5E       		.byte	0x5e
 3808 0e6e E10D0000 		.4byte	0xde1
 3809 0e72 05       		.uleb128 0x5
 3810 0e73 03       		.byte	0x3
 3811 0e74 00000000 		.4byte	CapSense_senseClkDividerVal
 3812 0e78 19       		.uleb128 0x19
 3813 0e79 B2000000 		.4byte	.LASF110
 3814 0e7d 01       		.byte	0x1
 3815 0e7e 61       		.byte	0x61
 3816 0e7f E10D0000 		.4byte	0xde1
 3817 0e83 05       		.uleb128 0x5
 3818 0e84 03       		.byte	0x3
 3819 0e85 00000000 		.4byte	CapSense_sampleClkDividerVal
ARM GAS  C:\Users\merlin\AppData\Local\Temp\ccZOZwzR.s 			page 109


 3820 0e89 19       		.uleb128 0x19
 3821 0e8a C2020000 		.4byte	.LASF111
 3822 0e8e 01       		.byte	0x1
 3823 0e8f 66       		.byte	0x66
 3824 0e90 9A0E0000 		.4byte	0xe9a
 3825 0e94 05       		.uleb128 0x5
 3826 0e95 03       		.byte	0x3
 3827 0e96 00000000 		.4byte	CapSense_widgetNumber
 3828 0e9a 09       		.uleb128 0x9
 3829 0e9b E10D0000 		.4byte	0xde1
 3830 0e9f 1A       		.uleb128 0x1a
 3831 0ea0 AF0E0000 		.4byte	0xeaf
 3832 0ea4 AF0E0000 		.4byte	0xeaf
 3833 0ea8 1B       		.uleb128 0x1b
 3834 0ea9 D6000000 		.4byte	0xd6
 3835 0ead 07       		.byte	0x7
 3836 0eae 00       		.byte	0
 3837 0eaf 07       		.uleb128 0x7
 3838 0eb0 04       		.byte	0x4
 3839 0eb1 B50E0000 		.4byte	0xeb5
 3840 0eb5 06       		.uleb128 0x6
 3841 0eb6 48000000 		.4byte	0x48
 3842 0eba 19       		.uleb128 0x19
 3843 0ebb 17020000 		.4byte	.LASF112
 3844 0ebf 01       		.byte	0x1
 3845 0ec0 6C       		.byte	0x6c
 3846 0ec1 CB0E0000 		.4byte	0xecb
 3847 0ec5 05       		.uleb128 0x5
 3848 0ec6 03       		.byte	0x3
 3849 0ec7 00000000 		.4byte	CapSense_prtSelTbl
 3850 0ecb 09       		.uleb128 0x9
 3851 0ecc 9F0E0000 		.4byte	0xe9f
 3852 0ed0 19       		.uleb128 0x19
 3853 0ed1 D8020000 		.4byte	.LASF113
 3854 0ed5 01       		.byte	0x1
 3855 0ed6 7F       		.byte	0x7f
 3856 0ed7 E10E0000 		.4byte	0xee1
 3857 0edb 05       		.uleb128 0x5
 3858 0edc 03       		.byte	0x3
 3859 0edd 00000000 		.4byte	CapSense_prtCfgTbl
 3860 0ee1 09       		.uleb128 0x9
 3861 0ee2 9F0E0000 		.4byte	0xe9f
 3862 0ee6 19       		.uleb128 0x19
 3863 0ee7 40020000 		.4byte	.LASF114
 3864 0eeb 01       		.byte	0x1
 3865 0eec 92       		.byte	0x92
 3866 0eed F70E0000 		.4byte	0xef7
 3867 0ef1 05       		.uleb128 0x5
 3868 0ef2 03       		.byte	0x3
 3869 0ef3 00000000 		.4byte	CapSense_prtDRTbl
 3870 0ef7 09       		.uleb128 0x9
 3871 0ef8 9F0E0000 		.4byte	0xe9f
 3872 0efc 1A       		.uleb128 0x1a
 3873 0efd AF0E0000 		.4byte	0xeaf
 3874 0f01 0C0F0000 		.4byte	0xf0c
 3875 0f05 1B       		.uleb128 0x1b
 3876 0f06 D6000000 		.4byte	0xd6
ARM GAS  C:\Users\merlin\AppData\Local\Temp\ccZOZwzR.s 			page 110


 3877 0f0a 00       		.byte	0
 3878 0f0b 00       		.byte	0
 3879 0f0c 19       		.uleb128 0x19
 3880 0f0d 7D040000 		.4byte	.LASF115
 3881 0f11 01       		.byte	0x1
 3882 0f12 43       		.byte	0x43
 3883 0f13 FC0E0000 		.4byte	0xefc
 3884 0f17 05       		.uleb128 0x5
 3885 0f18 03       		.byte	0x3
 3886 0f19 00000000 		.4byte	CapSense_pcTable
 3887 0f1d 19       		.uleb128 0x19
 3888 0f1e 90080000 		.4byte	.LASF116
 3889 0f22 01       		.byte	0x1
 3890 0f23 47       		.byte	0x47
 3891 0f24 2E0F0000 		.4byte	0xf2e
 3892 0f28 05       		.uleb128 0x5
 3893 0f29 03       		.byte	0x3
 3894 0f2a 00000000 		.4byte	CapSense_portTable
 3895 0f2e 09       		.uleb128 0x9
 3896 0f2f E10D0000 		.4byte	0xde1
 3897 0f33 19       		.uleb128 0x19
 3898 0f34 92000000 		.4byte	.LASF117
 3899 0f38 01       		.byte	0x1
 3900 0f39 4B       		.byte	0x4b
 3901 0f3a 440F0000 		.4byte	0xf44
 3902 0f3e 05       		.uleb128 0x5
 3903 0f3f 03       		.byte	0x3
 3904 0f40 00000000 		.4byte	CapSense_maskTable
 3905 0f44 09       		.uleb128 0x9
 3906 0f45 460E0000 		.4byte	0xe46
 3907 0f49 19       		.uleb128 0x19
 3908 0f4a 53050000 		.4byte	.LASF118
 3909 0f4e 01       		.byte	0x1
 3910 0f4f 4F       		.byte	0x4f
 3911 0f50 5A0F0000 		.4byte	0xf5a
 3912 0f54 05       		.uleb128 0x5
 3913 0f55 03       		.byte	0x3
 3914 0f56 00000000 		.4byte	CapSense_pinShiftTbl
 3915 0f5a 09       		.uleb128 0x9
 3916 0f5b E10D0000 		.4byte	0xde1
 3917 0f5f 1C       		.uleb128 0x1c
 3918 0f60 7E010000 		.4byte	.LASF119
 3919 0f64 03       		.byte	0x3
 3920 0f65 3A01     		.2byte	0x13a
 3921 0f67 6B0F0000 		.4byte	0xf6b
 3922 0f6b 09       		.uleb128 0x9
 3923 0f6c E10D0000 		.4byte	0xde1
 3924 0f70 1C       		.uleb128 0x1c
 3925 0f71 F9030000 		.4byte	.LASF120
 3926 0f75 03       		.byte	0x3
 3927 0f76 3B01     		.2byte	0x13b
 3928 0f78 7C0F0000 		.4byte	0xf7c
 3929 0f7c 09       		.uleb128 0x9
 3930 0f7d E10D0000 		.4byte	0xde1
 3931 0f81 19       		.uleb128 0x19
 3932 0f82 D3010000 		.4byte	.LASF121
 3933 0f86 01       		.byte	0x1
ARM GAS  C:\Users\merlin\AppData\Local\Temp\ccZOZwzR.s 			page 111


 3934 0f87 36       		.byte	0x36
 3935 0f88 6B000000 		.4byte	0x6b
 3936 0f8c 05       		.uleb128 0x5
 3937 0f8d 03       		.byte	0x3
 3938 0f8e 00000000 		.4byte	CapSense_csdTrim1
 3939 0f92 1D       		.uleb128 0x1d
 3940 0f93 30010000 		.4byte	.LASF122
 3941 0f97 04       		.byte	0x4
 3942 0f98 4E       		.byte	0x4e
 3943 0f99 A30F0000 		.4byte	0xfa3
 3944 0f9d 1E       		.uleb128 0x1e
 3945 0f9e 6B000000 		.4byte	0x6b
 3946 0fa2 00       		.byte	0
 3947 0fa3 1F       		.uleb128 0x1f
 3948 0fa4 95040000 		.4byte	.LASF135
 3949 0fa8 04       		.byte	0x4
 3950 0fa9 46       		.byte	0x46
 3951 0faa C3000000 		.4byte	0xc3
 3952 0fae BD0F0000 		.4byte	0xfbd
 3953 0fb2 1E       		.uleb128 0x1e
 3954 0fb3 6B000000 		.4byte	0x6b
 3955 0fb7 1E       		.uleb128 0x1e
 3956 0fb8 C3000000 		.4byte	0xc3
 3957 0fbc 00       		.byte	0
 3958 0fbd 1D       		.uleb128 0x1d
 3959 0fbe 00000000 		.4byte	.LASF123
 3960 0fc2 04       		.byte	0x4
 3961 0fc3 49       		.byte	0x49
 3962 0fc4 D30F0000 		.4byte	0xfd3
 3963 0fc8 1E       		.uleb128 0x1e
 3964 0fc9 6B000000 		.4byte	0x6b
 3965 0fcd 1E       		.uleb128 0x1e
 3966 0fce 6B000000 		.4byte	0x6b
 3967 0fd2 00       		.byte	0
 3968 0fd3 20       		.uleb128 0x20
 3969 0fd4 37060000 		.4byte	.LASF124
 3970 0fd8 05       		.byte	0x5
 3971 0fd9 27       		.byte	0x27
 3972 0fda 20       		.uleb128 0x20
 3973 0fdb B1080000 		.4byte	.LASF125
 3974 0fdf 06       		.byte	0x6
 3975 0fe0 27       		.byte	0x27
 3976 0fe1 1D       		.uleb128 0x1d
 3977 0fe2 1C080000 		.4byte	.LASF126
 3978 0fe6 06       		.byte	0x6
 3979 0fe7 29       		.byte	0x29
 3980 0fe8 F70F0000 		.4byte	0xff7
 3981 0fec 1E       		.uleb128 0x1e
 3982 0fed 76000000 		.4byte	0x76
 3983 0ff1 1E       		.uleb128 0x1e
 3984 0ff2 6B000000 		.4byte	0x6b
 3985 0ff6 00       		.byte	0
 3986 0ff7 1D       		.uleb128 0x1d
 3987 0ff8 B1090000 		.4byte	.LASF127
 3988 0ffc 05       		.byte	0x5
 3989 0ffd 29       		.byte	0x29
 3990 0ffe 0D100000 		.4byte	0x100d
ARM GAS  C:\Users\merlin\AppData\Local\Temp\ccZOZwzR.s 			page 112


 3991 1002 1E       		.uleb128 0x1e
 3992 1003 76000000 		.4byte	0x76
 3993 1007 1E       		.uleb128 0x1e
 3994 1008 6B000000 		.4byte	0x6b
 3995 100c 00       		.byte	0
 3996 100d 1D       		.uleb128 0x1d
 3997 100e 4F090000 		.4byte	.LASF128
 3998 1012 06       		.byte	0x6
 3999 1013 1D       		.byte	0x1d
 4000 1014 1E100000 		.4byte	0x101e
 4001 1018 1E       		.uleb128 0x1e
 4002 1019 81000000 		.4byte	0x81
 4003 101d 00       		.byte	0
 4004 101e 1D       		.uleb128 0x1d
 4005 101f 2E050000 		.4byte	.LASF129
 4006 1023 05       		.byte	0x5
 4007 1024 1D       		.byte	0x1d
 4008 1025 2F100000 		.4byte	0x102f
 4009 1029 1E       		.uleb128 0x1e
 4010 102a 81000000 		.4byte	0x81
 4011 102e 00       		.byte	0
 4012 102f 1D       		.uleb128 0x1d
 4013 1030 E0090000 		.4byte	.LASF130
 4014 1034 04       		.byte	0x4
 4015 1035 4C       		.byte	0x4c
 4016 1036 40100000 		.4byte	0x1040
 4017 103a 1E       		.uleb128 0x1e
 4018 103b 6B000000 		.4byte	0x6b
 4019 103f 00       		.byte	0
 4020 1040 21       		.uleb128 0x21
 4021 1041 070A0000 		.4byte	.LASF136
 4022 1045 04       		.byte	0x4
 4023 1046 5E       		.byte	0x5e
 4024 1047 6B000000 		.4byte	0x6b
 4025 104b 1D       		.uleb128 0x1d
 4026 104c 3B040000 		.4byte	.LASF131
 4027 1050 04       		.byte	0x4
 4028 1051 5F       		.byte	0x5f
 4029 1052 5C100000 		.4byte	0x105c
 4030 1056 1E       		.uleb128 0x1e
 4031 1057 6B000000 		.4byte	0x6b
 4032 105b 00       		.byte	0
 4033 105c 22       		.uleb128 0x22
 4034 105d 51040000 		.4byte	.LASF137
 4035 1061 04       		.byte	0x4
 4036 1062 5A       		.byte	0x5a
 4037 1063 1E       		.uleb128 0x1e
 4038 1064 81000000 		.4byte	0x81
 4039 1068 00       		.byte	0
 4040 1069 00       		.byte	0
 4041              		.section	.debug_abbrev,"",%progbits
 4042              	.Ldebug_abbrev0:
 4043 0000 01       		.uleb128 0x1
 4044 0001 11       		.uleb128 0x11
 4045 0002 01       		.byte	0x1
 4046 0003 25       		.uleb128 0x25
 4047 0004 0E       		.uleb128 0xe
ARM GAS  C:\Users\merlin\AppData\Local\Temp\ccZOZwzR.s 			page 113


 4048 0005 13       		.uleb128 0x13
 4049 0006 0B       		.uleb128 0xb
 4050 0007 03       		.uleb128 0x3
 4051 0008 0E       		.uleb128 0xe
 4052 0009 1B       		.uleb128 0x1b
 4053 000a 0E       		.uleb128 0xe
 4054 000b 55       		.uleb128 0x55
 4055 000c 17       		.uleb128 0x17
 4056 000d 11       		.uleb128 0x11
 4057 000e 01       		.uleb128 0x1
 4058 000f 10       		.uleb128 0x10
 4059 0010 17       		.uleb128 0x17
 4060 0011 00       		.byte	0
 4061 0012 00       		.byte	0
 4062 0013 02       		.uleb128 0x2
 4063 0014 24       		.uleb128 0x24
 4064 0015 00       		.byte	0
 4065 0016 0B       		.uleb128 0xb
 4066 0017 0B       		.uleb128 0xb
 4067 0018 3E       		.uleb128 0x3e
 4068 0019 0B       		.uleb128 0xb
 4069 001a 03       		.uleb128 0x3
 4070 001b 0E       		.uleb128 0xe
 4071 001c 00       		.byte	0
 4072 001d 00       		.byte	0
 4073 001e 03       		.uleb128 0x3
 4074 001f 24       		.uleb128 0x24
 4075 0020 00       		.byte	0
 4076 0021 0B       		.uleb128 0xb
 4077 0022 0B       		.uleb128 0xb
 4078 0023 3E       		.uleb128 0x3e
 4079 0024 0B       		.uleb128 0xb
 4080 0025 03       		.uleb128 0x3
 4081 0026 08       		.uleb128 0x8
 4082 0027 00       		.byte	0
 4083 0028 00       		.byte	0
 4084 0029 04       		.uleb128 0x4
 4085 002a 16       		.uleb128 0x16
 4086 002b 00       		.byte	0
 4087 002c 03       		.uleb128 0x3
 4088 002d 0E       		.uleb128 0xe
 4089 002e 3A       		.uleb128 0x3a
 4090 002f 0B       		.uleb128 0xb
 4091 0030 3B       		.uleb128 0x3b
 4092 0031 0B       		.uleb128 0xb
 4093 0032 49       		.uleb128 0x49
 4094 0033 13       		.uleb128 0x13
 4095 0034 00       		.byte	0
 4096 0035 00       		.byte	0
 4097 0036 05       		.uleb128 0x5
 4098 0037 16       		.uleb128 0x16
 4099 0038 00       		.byte	0
 4100 0039 03       		.uleb128 0x3
 4101 003a 0E       		.uleb128 0xe
 4102 003b 3A       		.uleb128 0x3a
 4103 003c 0B       		.uleb128 0xb
 4104 003d 3B       		.uleb128 0x3b
ARM GAS  C:\Users\merlin\AppData\Local\Temp\ccZOZwzR.s 			page 114


 4105 003e 05       		.uleb128 0x5
 4106 003f 49       		.uleb128 0x49
 4107 0040 13       		.uleb128 0x13
 4108 0041 00       		.byte	0
 4109 0042 00       		.byte	0
 4110 0043 06       		.uleb128 0x6
 4111 0044 35       		.uleb128 0x35
 4112 0045 00       		.byte	0
 4113 0046 49       		.uleb128 0x49
 4114 0047 13       		.uleb128 0x13
 4115 0048 00       		.byte	0
 4116 0049 00       		.byte	0
 4117 004a 07       		.uleb128 0x7
 4118 004b 0F       		.uleb128 0xf
 4119 004c 00       		.byte	0
 4120 004d 0B       		.uleb128 0xb
 4121 004e 0B       		.uleb128 0xb
 4122 004f 49       		.uleb128 0x49
 4123 0050 13       		.uleb128 0x13
 4124 0051 00       		.byte	0
 4125 0052 00       		.byte	0
 4126 0053 08       		.uleb128 0x8
 4127 0054 15       		.uleb128 0x15
 4128 0055 00       		.byte	0
 4129 0056 27       		.uleb128 0x27
 4130 0057 19       		.uleb128 0x19
 4131 0058 00       		.byte	0
 4132 0059 00       		.byte	0
 4133 005a 09       		.uleb128 0x9
 4134 005b 26       		.uleb128 0x26
 4135 005c 00       		.byte	0
 4136 005d 49       		.uleb128 0x49
 4137 005e 13       		.uleb128 0x13
 4138 005f 00       		.byte	0
 4139 0060 00       		.byte	0
 4140 0061 0A       		.uleb128 0xa
 4141 0062 2E       		.uleb128 0x2e
 4142 0063 01       		.byte	0x1
 4143 0064 3F       		.uleb128 0x3f
 4144 0065 19       		.uleb128 0x19
 4145 0066 03       		.uleb128 0x3
 4146 0067 0E       		.uleb128 0xe
 4147 0068 3A       		.uleb128 0x3a
 4148 0069 0B       		.uleb128 0xb
 4149 006a 3B       		.uleb128 0x3b
 4150 006b 0B       		.uleb128 0xb
 4151 006c 27       		.uleb128 0x27
 4152 006d 19       		.uleb128 0x19
 4153 006e 11       		.uleb128 0x11
 4154 006f 01       		.uleb128 0x1
 4155 0070 12       		.uleb128 0x12
 4156 0071 06       		.uleb128 0x6
 4157 0072 40       		.uleb128 0x40
 4158 0073 18       		.uleb128 0x18
 4159 0074 9742     		.uleb128 0x2117
 4160 0076 19       		.uleb128 0x19
 4161 0077 01       		.uleb128 0x1
ARM GAS  C:\Users\merlin\AppData\Local\Temp\ccZOZwzR.s 			page 115


 4162 0078 13       		.uleb128 0x13
 4163 0079 00       		.byte	0
 4164 007a 00       		.byte	0
 4165 007b 0B       		.uleb128 0xb
 4166 007c 34       		.uleb128 0x34
 4167 007d 00       		.byte	0
 4168 007e 03       		.uleb128 0x3
 4169 007f 0E       		.uleb128 0xe
 4170 0080 3A       		.uleb128 0x3a
 4171 0081 0B       		.uleb128 0xb
 4172 0082 3B       		.uleb128 0x3b
 4173 0083 0B       		.uleb128 0xb
 4174 0084 49       		.uleb128 0x49
 4175 0085 13       		.uleb128 0x13
 4176 0086 02       		.uleb128 0x2
 4177 0087 17       		.uleb128 0x17
 4178 0088 00       		.byte	0
 4179 0089 00       		.byte	0
 4180 008a 0C       		.uleb128 0xc
 4181 008b 898201   		.uleb128 0x4109
 4182 008e 01       		.byte	0x1
 4183 008f 11       		.uleb128 0x11
 4184 0090 01       		.uleb128 0x1
 4185 0091 31       		.uleb128 0x31
 4186 0092 13       		.uleb128 0x13
 4187 0093 01       		.uleb128 0x1
 4188 0094 13       		.uleb128 0x13
 4189 0095 00       		.byte	0
 4190 0096 00       		.byte	0
 4191 0097 0D       		.uleb128 0xd
 4192 0098 8A8201   		.uleb128 0x410a
 4193 009b 00       		.byte	0
 4194 009c 02       		.uleb128 0x2
 4195 009d 18       		.uleb128 0x18
 4196 009e 9142     		.uleb128 0x2111
 4197 00a0 18       		.uleb128 0x18
 4198 00a1 00       		.byte	0
 4199 00a2 00       		.byte	0
 4200 00a3 0E       		.uleb128 0xe
 4201 00a4 898201   		.uleb128 0x4109
 4202 00a7 01       		.byte	0x1
 4203 00a8 11       		.uleb128 0x11
 4204 00a9 01       		.uleb128 0x1
 4205 00aa 31       		.uleb128 0x31
 4206 00ab 13       		.uleb128 0x13
 4207 00ac 00       		.byte	0
 4208 00ad 00       		.byte	0
 4209 00ae 0F       		.uleb128 0xf
 4210 00af 2E       		.uleb128 0x2e
 4211 00b0 01       		.byte	0x1
 4212 00b1 3F       		.uleb128 0x3f
 4213 00b2 19       		.uleb128 0x19
 4214 00b3 03       		.uleb128 0x3
 4215 00b4 0E       		.uleb128 0xe
 4216 00b5 3A       		.uleb128 0x3a
 4217 00b6 0B       		.uleb128 0xb
 4218 00b7 3B       		.uleb128 0x3b
ARM GAS  C:\Users\merlin\AppData\Local\Temp\ccZOZwzR.s 			page 116


 4219 00b8 05       		.uleb128 0x5
 4220 00b9 27       		.uleb128 0x27
 4221 00ba 19       		.uleb128 0x19
 4222 00bb 11       		.uleb128 0x11
 4223 00bc 01       		.uleb128 0x1
 4224 00bd 12       		.uleb128 0x12
 4225 00be 06       		.uleb128 0x6
 4226 00bf 40       		.uleb128 0x40
 4227 00c0 18       		.uleb128 0x18
 4228 00c1 9742     		.uleb128 0x2117
 4229 00c3 19       		.uleb128 0x19
 4230 00c4 01       		.uleb128 0x1
 4231 00c5 13       		.uleb128 0x13
 4232 00c6 00       		.byte	0
 4233 00c7 00       		.byte	0
 4234 00c8 10       		.uleb128 0x10
 4235 00c9 34       		.uleb128 0x34
 4236 00ca 00       		.byte	0
 4237 00cb 03       		.uleb128 0x3
 4238 00cc 0E       		.uleb128 0xe
 4239 00cd 3A       		.uleb128 0x3a
 4240 00ce 0B       		.uleb128 0xb
 4241 00cf 3B       		.uleb128 0x3b
 4242 00d0 05       		.uleb128 0x5
 4243 00d1 49       		.uleb128 0x49
 4244 00d2 13       		.uleb128 0x13
 4245 00d3 02       		.uleb128 0x2
 4246 00d4 17       		.uleb128 0x17
 4247 00d5 00       		.byte	0
 4248 00d6 00       		.byte	0
 4249 00d7 11       		.uleb128 0x11
 4250 00d8 898201   		.uleb128 0x4109
 4251 00db 00       		.byte	0
 4252 00dc 11       		.uleb128 0x11
 4253 00dd 01       		.uleb128 0x1
 4254 00de 31       		.uleb128 0x31
 4255 00df 13       		.uleb128 0x13
 4256 00e0 00       		.byte	0
 4257 00e1 00       		.byte	0
 4258 00e2 12       		.uleb128 0x12
 4259 00e3 2E       		.uleb128 0x2e
 4260 00e4 00       		.byte	0
 4261 00e5 3F       		.uleb128 0x3f
 4262 00e6 19       		.uleb128 0x19
 4263 00e7 03       		.uleb128 0x3
 4264 00e8 0E       		.uleb128 0xe
 4265 00e9 3A       		.uleb128 0x3a
 4266 00ea 0B       		.uleb128 0xb
 4267 00eb 3B       		.uleb128 0x3b
 4268 00ec 05       		.uleb128 0x5
 4269 00ed 27       		.uleb128 0x27
 4270 00ee 19       		.uleb128 0x19
 4271 00ef 49       		.uleb128 0x49
 4272 00f0 13       		.uleb128 0x13
 4273 00f1 11       		.uleb128 0x11
 4274 00f2 01       		.uleb128 0x1
 4275 00f3 12       		.uleb128 0x12
ARM GAS  C:\Users\merlin\AppData\Local\Temp\ccZOZwzR.s 			page 117


 4276 00f4 06       		.uleb128 0x6
 4277 00f5 40       		.uleb128 0x40
 4278 00f6 18       		.uleb128 0x18
 4279 00f7 9742     		.uleb128 0x2117
 4280 00f9 19       		.uleb128 0x19
 4281 00fa 00       		.byte	0
 4282 00fb 00       		.byte	0
 4283 00fc 13       		.uleb128 0x13
 4284 00fd 2E       		.uleb128 0x2e
 4285 00fe 01       		.byte	0x1
 4286 00ff 3F       		.uleb128 0x3f
 4287 0100 19       		.uleb128 0x19
 4288 0101 03       		.uleb128 0x3
 4289 0102 0E       		.uleb128 0xe
 4290 0103 3A       		.uleb128 0x3a
 4291 0104 0B       		.uleb128 0xb
 4292 0105 3B       		.uleb128 0x3b
 4293 0106 05       		.uleb128 0x5
 4294 0107 27       		.uleb128 0x27
 4295 0108 19       		.uleb128 0x19
 4296 0109 49       		.uleb128 0x49
 4297 010a 13       		.uleb128 0x13
 4298 010b 11       		.uleb128 0x11
 4299 010c 01       		.uleb128 0x1
 4300 010d 12       		.uleb128 0x12
 4301 010e 06       		.uleb128 0x6
 4302 010f 40       		.uleb128 0x40
 4303 0110 18       		.uleb128 0x18
 4304 0111 9742     		.uleb128 0x2117
 4305 0113 19       		.uleb128 0x19
 4306 0114 01       		.uleb128 0x1
 4307 0115 13       		.uleb128 0x13
 4308 0116 00       		.byte	0
 4309 0117 00       		.byte	0
 4310 0118 14       		.uleb128 0x14
 4311 0119 05       		.uleb128 0x5
 4312 011a 00       		.byte	0
 4313 011b 03       		.uleb128 0x3
 4314 011c 0E       		.uleb128 0xe
 4315 011d 3A       		.uleb128 0x3a
 4316 011e 0B       		.uleb128 0xb
 4317 011f 3B       		.uleb128 0x3b
 4318 0120 05       		.uleb128 0x5
 4319 0121 49       		.uleb128 0x49
 4320 0122 13       		.uleb128 0x13
 4321 0123 02       		.uleb128 0x2
 4322 0124 17       		.uleb128 0x17
 4323 0125 00       		.byte	0
 4324 0126 00       		.byte	0
 4325 0127 15       		.uleb128 0x15
 4326 0128 05       		.uleb128 0x5
 4327 0129 00       		.byte	0
 4328 012a 03       		.uleb128 0x3
 4329 012b 0E       		.uleb128 0xe
 4330 012c 3A       		.uleb128 0x3a
 4331 012d 0B       		.uleb128 0xb
 4332 012e 3B       		.uleb128 0x3b
ARM GAS  C:\Users\merlin\AppData\Local\Temp\ccZOZwzR.s 			page 118


 4333 012f 05       		.uleb128 0x5
 4334 0130 49       		.uleb128 0x49
 4335 0131 13       		.uleb128 0x13
 4336 0132 02       		.uleb128 0x2
 4337 0133 18       		.uleb128 0x18
 4338 0134 00       		.byte	0
 4339 0135 00       		.byte	0
 4340 0136 16       		.uleb128 0x16
 4341 0137 34       		.uleb128 0x34
 4342 0138 00       		.byte	0
 4343 0139 03       		.uleb128 0x3
 4344 013a 0E       		.uleb128 0xe
 4345 013b 3A       		.uleb128 0x3a
 4346 013c 0B       		.uleb128 0xb
 4347 013d 3B       		.uleb128 0x3b
 4348 013e 05       		.uleb128 0x5
 4349 013f 49       		.uleb128 0x49
 4350 0140 13       		.uleb128 0x13
 4351 0141 1C       		.uleb128 0x1c
 4352 0142 0B       		.uleb128 0xb
 4353 0143 00       		.byte	0
 4354 0144 00       		.byte	0
 4355 0145 17       		.uleb128 0x17
 4356 0146 34       		.uleb128 0x34
 4357 0147 00       		.byte	0
 4358 0148 03       		.uleb128 0x3
 4359 0149 0E       		.uleb128 0xe
 4360 014a 3A       		.uleb128 0x3a
 4361 014b 0B       		.uleb128 0xb
 4362 014c 3B       		.uleb128 0x3b
 4363 014d 05       		.uleb128 0x5
 4364 014e 49       		.uleb128 0x49
 4365 014f 13       		.uleb128 0x13
 4366 0150 02       		.uleb128 0x2
 4367 0151 18       		.uleb128 0x18
 4368 0152 00       		.byte	0
 4369 0153 00       		.byte	0
 4370 0154 18       		.uleb128 0x18
 4371 0155 2E       		.uleb128 0x2e
 4372 0156 01       		.byte	0x1
 4373 0157 3F       		.uleb128 0x3f
 4374 0158 19       		.uleb128 0x19
 4375 0159 03       		.uleb128 0x3
 4376 015a 0E       		.uleb128 0xe
 4377 015b 3A       		.uleb128 0x3a
 4378 015c 0B       		.uleb128 0xb
 4379 015d 3B       		.uleb128 0x3b
 4380 015e 05       		.uleb128 0x5
 4381 015f 27       		.uleb128 0x27
 4382 0160 19       		.uleb128 0x19
 4383 0161 11       		.uleb128 0x11
 4384 0162 01       		.uleb128 0x1
 4385 0163 12       		.uleb128 0x12
 4386 0164 06       		.uleb128 0x6
 4387 0165 40       		.uleb128 0x40
 4388 0166 18       		.uleb128 0x18
 4389 0167 9642     		.uleb128 0x2116
ARM GAS  C:\Users\merlin\AppData\Local\Temp\ccZOZwzR.s 			page 119


 4390 0169 19       		.uleb128 0x19
 4391 016a 01       		.uleb128 0x1
 4392 016b 13       		.uleb128 0x13
 4393 016c 00       		.byte	0
 4394 016d 00       		.byte	0
 4395 016e 19       		.uleb128 0x19
 4396 016f 34       		.uleb128 0x34
 4397 0170 00       		.byte	0
 4398 0171 03       		.uleb128 0x3
 4399 0172 0E       		.uleb128 0xe
 4400 0173 3A       		.uleb128 0x3a
 4401 0174 0B       		.uleb128 0xb
 4402 0175 3B       		.uleb128 0x3b
 4403 0176 0B       		.uleb128 0xb
 4404 0177 49       		.uleb128 0x49
 4405 0178 13       		.uleb128 0x13
 4406 0179 3F       		.uleb128 0x3f
 4407 017a 19       		.uleb128 0x19
 4408 017b 02       		.uleb128 0x2
 4409 017c 18       		.uleb128 0x18
 4410 017d 00       		.byte	0
 4411 017e 00       		.byte	0
 4412 017f 1A       		.uleb128 0x1a
 4413 0180 01       		.uleb128 0x1
 4414 0181 01       		.byte	0x1
 4415 0182 49       		.uleb128 0x49
 4416 0183 13       		.uleb128 0x13
 4417 0184 01       		.uleb128 0x1
 4418 0185 13       		.uleb128 0x13
 4419 0186 00       		.byte	0
 4420 0187 00       		.byte	0
 4421 0188 1B       		.uleb128 0x1b
 4422 0189 21       		.uleb128 0x21
 4423 018a 00       		.byte	0
 4424 018b 49       		.uleb128 0x49
 4425 018c 13       		.uleb128 0x13
 4426 018d 2F       		.uleb128 0x2f
 4427 018e 0B       		.uleb128 0xb
 4428 018f 00       		.byte	0
 4429 0190 00       		.byte	0
 4430 0191 1C       		.uleb128 0x1c
 4431 0192 34       		.uleb128 0x34
 4432 0193 00       		.byte	0
 4433 0194 03       		.uleb128 0x3
 4434 0195 0E       		.uleb128 0xe
 4435 0196 3A       		.uleb128 0x3a
 4436 0197 0B       		.uleb128 0xb
 4437 0198 3B       		.uleb128 0x3b
 4438 0199 05       		.uleb128 0x5
 4439 019a 49       		.uleb128 0x49
 4440 019b 13       		.uleb128 0x13
 4441 019c 3F       		.uleb128 0x3f
 4442 019d 19       		.uleb128 0x19
 4443 019e 3C       		.uleb128 0x3c
 4444 019f 19       		.uleb128 0x19
 4445 01a0 00       		.byte	0
 4446 01a1 00       		.byte	0
ARM GAS  C:\Users\merlin\AppData\Local\Temp\ccZOZwzR.s 			page 120


 4447 01a2 1D       		.uleb128 0x1d
 4448 01a3 2E       		.uleb128 0x2e
 4449 01a4 01       		.byte	0x1
 4450 01a5 3F       		.uleb128 0x3f
 4451 01a6 19       		.uleb128 0x19
 4452 01a7 03       		.uleb128 0x3
 4453 01a8 0E       		.uleb128 0xe
 4454 01a9 3A       		.uleb128 0x3a
 4455 01aa 0B       		.uleb128 0xb
 4456 01ab 3B       		.uleb128 0x3b
 4457 01ac 0B       		.uleb128 0xb
 4458 01ad 27       		.uleb128 0x27
 4459 01ae 19       		.uleb128 0x19
 4460 01af 3C       		.uleb128 0x3c
 4461 01b0 19       		.uleb128 0x19
 4462 01b1 01       		.uleb128 0x1
 4463 01b2 13       		.uleb128 0x13
 4464 01b3 00       		.byte	0
 4465 01b4 00       		.byte	0
 4466 01b5 1E       		.uleb128 0x1e
 4467 01b6 05       		.uleb128 0x5
 4468 01b7 00       		.byte	0
 4469 01b8 49       		.uleb128 0x49
 4470 01b9 13       		.uleb128 0x13
 4471 01ba 00       		.byte	0
 4472 01bb 00       		.byte	0
 4473 01bc 1F       		.uleb128 0x1f
 4474 01bd 2E       		.uleb128 0x2e
 4475 01be 01       		.byte	0x1
 4476 01bf 3F       		.uleb128 0x3f
 4477 01c0 19       		.uleb128 0x19
 4478 01c1 03       		.uleb128 0x3
 4479 01c2 0E       		.uleb128 0xe
 4480 01c3 3A       		.uleb128 0x3a
 4481 01c4 0B       		.uleb128 0xb
 4482 01c5 3B       		.uleb128 0x3b
 4483 01c6 0B       		.uleb128 0xb
 4484 01c7 27       		.uleb128 0x27
 4485 01c8 19       		.uleb128 0x19
 4486 01c9 49       		.uleb128 0x49
 4487 01ca 13       		.uleb128 0x13
 4488 01cb 3C       		.uleb128 0x3c
 4489 01cc 19       		.uleb128 0x19
 4490 01cd 01       		.uleb128 0x1
 4491 01ce 13       		.uleb128 0x13
 4492 01cf 00       		.byte	0
 4493 01d0 00       		.byte	0
 4494 01d1 20       		.uleb128 0x20
 4495 01d2 2E       		.uleb128 0x2e
 4496 01d3 00       		.byte	0
 4497 01d4 3F       		.uleb128 0x3f
 4498 01d5 19       		.uleb128 0x19
 4499 01d6 03       		.uleb128 0x3
 4500 01d7 0E       		.uleb128 0xe
 4501 01d8 3A       		.uleb128 0x3a
 4502 01d9 0B       		.uleb128 0xb
 4503 01da 3B       		.uleb128 0x3b
ARM GAS  C:\Users\merlin\AppData\Local\Temp\ccZOZwzR.s 			page 121


 4504 01db 0B       		.uleb128 0xb
 4505 01dc 27       		.uleb128 0x27
 4506 01dd 19       		.uleb128 0x19
 4507 01de 3C       		.uleb128 0x3c
 4508 01df 19       		.uleb128 0x19
 4509 01e0 00       		.byte	0
 4510 01e1 00       		.byte	0
 4511 01e2 21       		.uleb128 0x21
 4512 01e3 2E       		.uleb128 0x2e
 4513 01e4 00       		.byte	0
 4514 01e5 3F       		.uleb128 0x3f
 4515 01e6 19       		.uleb128 0x19
 4516 01e7 03       		.uleb128 0x3
 4517 01e8 0E       		.uleb128 0xe
 4518 01e9 3A       		.uleb128 0x3a
 4519 01ea 0B       		.uleb128 0xb
 4520 01eb 3B       		.uleb128 0x3b
 4521 01ec 0B       		.uleb128 0xb
 4522 01ed 27       		.uleb128 0x27
 4523 01ee 19       		.uleb128 0x19
 4524 01ef 49       		.uleb128 0x49
 4525 01f0 13       		.uleb128 0x13
 4526 01f1 3C       		.uleb128 0x3c
 4527 01f2 19       		.uleb128 0x19
 4528 01f3 00       		.byte	0
 4529 01f4 00       		.byte	0
 4530 01f5 22       		.uleb128 0x22
 4531 01f6 2E       		.uleb128 0x2e
 4532 01f7 01       		.byte	0x1
 4533 01f8 3F       		.uleb128 0x3f
 4534 01f9 19       		.uleb128 0x19
 4535 01fa 03       		.uleb128 0x3
 4536 01fb 0E       		.uleb128 0xe
 4537 01fc 3A       		.uleb128 0x3a
 4538 01fd 0B       		.uleb128 0xb
 4539 01fe 3B       		.uleb128 0x3b
 4540 01ff 0B       		.uleb128 0xb
 4541 0200 27       		.uleb128 0x27
 4542 0201 19       		.uleb128 0x19
 4543 0202 3C       		.uleb128 0x3c
 4544 0203 19       		.uleb128 0x19
 4545 0204 00       		.byte	0
 4546 0205 00       		.byte	0
 4547 0206 00       		.byte	0
 4548              		.section	.debug_loc,"",%progbits
 4549              	.Ldebug_loc0:
 4550              	.LLST0:
 4551 0000 0C000000 		.4byte	.LVL0
 4552 0004 10000000 		.4byte	.LVL1
 4553 0008 0100     		.2byte	0x1
 4554 000a 53       		.byte	0x53
 4555 000b 12000000 		.4byte	.LVL2
 4556 000f 1C000000 		.4byte	.LVL3
 4557 0013 0100     		.2byte	0x1
 4558 0015 51       		.byte	0x51
 4559 0016 1C000000 		.4byte	.LVL3
 4560 001a 20000000 		.4byte	.LVL4
ARM GAS  C:\Users\merlin\AppData\Local\Temp\ccZOZwzR.s 			page 122


 4561 001e 0100     		.2byte	0x1
 4562 0020 53       		.byte	0x53
 4563 0021 22000000 		.4byte	.LVL5
 4564 0025 28000000 		.4byte	.LVL6
 4565 0029 0100     		.2byte	0x1
 4566 002b 52       		.byte	0x52
 4567 002c 28000000 		.4byte	.LVL6
 4568 0030 2E000000 		.4byte	.LVL7
 4569 0034 0100     		.2byte	0x1
 4570 0036 53       		.byte	0x53
 4571 0037 2E000000 		.4byte	.LVL7
 4572 003b 30000000 		.4byte	.LVL8
 4573 003f 0200     		.2byte	0x2
 4574 0041 70       		.byte	0x70
 4575 0042 00       		.sleb128 0
 4576 0043 3A000000 		.4byte	.LVL9
 4577 0047 3E000000 		.4byte	.LVL10
 4578 004b 0100     		.2byte	0x1
 4579 004d 51       		.byte	0x51
 4580 004e 3E000000 		.4byte	.LVL10
 4581 0052 4B000000 		.4byte	.LVL12-1
 4582 0056 0100     		.2byte	0x1
 4583 0058 53       		.byte	0x53
 4584 0059 00000000 		.4byte	0
 4585 005d 00000000 		.4byte	0
 4586              	.LLST1:
 4587 0061 2A000000 		.4byte	.LVL21
 4588 0065 35000000 		.4byte	.LVL23-1
 4589 0069 0100     		.2byte	0x1
 4590 006b 53       		.byte	0x53
 4591 006c 00000000 		.4byte	0
 4592 0070 00000000 		.4byte	0
 4593              	.LLST2:
 4594 0074 00000000 		.4byte	.LVL27
 4595 0078 02000000 		.4byte	.LVL28
 4596 007c 0100     		.2byte	0x1
 4597 007e 50       		.byte	0x50
 4598 007f 02000000 		.4byte	.LVL28
 4599 0083 10000000 		.4byte	.LFE44
 4600 0087 0400     		.2byte	0x4
 4601 0089 F3       		.byte	0xf3
 4602 008a 01       		.uleb128 0x1
 4603 008b 50       		.byte	0x50
 4604 008c 9F       		.byte	0x9f
 4605 008d 00000000 		.4byte	0
 4606 0091 00000000 		.4byte	0
 4607              	.LLST3:
 4608 0095 00000000 		.4byte	.LVL29
 4609 0099 02000000 		.4byte	.LVL30
 4610 009d 0100     		.2byte	0x1
 4611 009f 50       		.byte	0x50
 4612 00a0 02000000 		.4byte	.LVL30
 4613 00a4 10000000 		.4byte	.LFE45
 4614 00a8 0400     		.2byte	0x4
 4615 00aa F3       		.byte	0xf3
 4616 00ab 01       		.uleb128 0x1
 4617 00ac 50       		.byte	0x50
ARM GAS  C:\Users\merlin\AppData\Local\Temp\ccZOZwzR.s 			page 123


 4618 00ad 9F       		.byte	0x9f
 4619 00ae 00000000 		.4byte	0
 4620 00b2 00000000 		.4byte	0
 4621              	.LLST4:
 4622 00b6 00000000 		.4byte	.LVL31
 4623 00ba 02000000 		.4byte	.LVL32
 4624 00be 0100     		.2byte	0x1
 4625 00c0 50       		.byte	0x50
 4626 00c1 02000000 		.4byte	.LVL32
 4627 00c5 0C000000 		.4byte	.LFE46
 4628 00c9 0400     		.2byte	0x4
 4629 00cb F3       		.byte	0xf3
 4630 00cc 01       		.uleb128 0x1
 4631 00cd 50       		.byte	0x50
 4632 00ce 9F       		.byte	0x9f
 4633 00cf 00000000 		.4byte	0
 4634 00d3 00000000 		.4byte	0
 4635              	.LLST5:
 4636 00d7 00000000 		.4byte	.LVL33
 4637 00db 02000000 		.4byte	.LVL34
 4638 00df 0100     		.2byte	0x1
 4639 00e1 50       		.byte	0x50
 4640 00e2 02000000 		.4byte	.LVL34
 4641 00e6 0C000000 		.4byte	.LFE47
 4642 00ea 0400     		.2byte	0x4
 4643 00ec F3       		.byte	0xf3
 4644 00ed 01       		.uleb128 0x1
 4645 00ee 50       		.byte	0x50
 4646 00ef 9F       		.byte	0x9f
 4647 00f0 00000000 		.4byte	0
 4648 00f4 00000000 		.4byte	0
 4649              	.LLST6:
 4650 00f8 00000000 		.4byte	.LVL35
 4651 00fc 05000000 		.4byte	.LVL37-1
 4652 0100 0100     		.2byte	0x1
 4653 0102 50       		.byte	0x50
 4654 0103 05000000 		.4byte	.LVL37-1
 4655 0107 34000000 		.4byte	.LFE49
 4656 010b 0400     		.2byte	0x4
 4657 010d F3       		.byte	0xf3
 4658 010e 01       		.uleb128 0x1
 4659 010f 50       		.byte	0x50
 4660 0110 9F       		.byte	0x9f
 4661 0111 00000000 		.4byte	0
 4662 0115 00000000 		.4byte	0
 4663              	.LLST7:
 4664 0119 06000000 		.4byte	.LVL37
 4665 011d 23000000 		.4byte	.LVL42-1
 4666 0121 0100     		.2byte	0x1
 4667 0123 50       		.byte	0x50
 4668 0124 00000000 		.4byte	0
 4669 0128 00000000 		.4byte	0
 4670              	.LLST8:
 4671 012c 0A000000 		.4byte	.LVL38
 4672 0130 0C000000 		.4byte	.LVL39
 4673 0134 0100     		.2byte	0x1
 4674 0136 53       		.byte	0x53
ARM GAS  C:\Users\merlin\AppData\Local\Temp\ccZOZwzR.s 			page 124


 4675 0137 0E000000 		.4byte	.LVL40
 4676 013b 23000000 		.4byte	.LVL42-1
 4677 013f 0100     		.2byte	0x1
 4678 0141 53       		.byte	0x53
 4679 0142 00000000 		.4byte	0
 4680 0146 00000000 		.4byte	0
 4681              	.LLST9:
 4682 014a 00000000 		.4byte	.LVL43
 4683 014e 23000000 		.4byte	.LVL48-1
 4684 0152 0100     		.2byte	0x1
 4685 0154 50       		.byte	0x50
 4686 0155 23000000 		.4byte	.LVL48-1
 4687 0159 58000000 		.4byte	.LFE50
 4688 015d 0400     		.2byte	0x4
 4689 015f F3       		.byte	0xf3
 4690 0160 01       		.uleb128 0x1
 4691 0161 50       		.byte	0x50
 4692 0162 9F       		.byte	0x9f
 4693 0163 00000000 		.4byte	0
 4694 0167 00000000 		.4byte	0
 4695              	.LLST10:
 4696 016b 24000000 		.4byte	.LVL48
 4697 016f 35000000 		.4byte	.LVL52-1
 4698 0173 0100     		.2byte	0x1
 4699 0175 50       		.byte	0x50
 4700 0176 00000000 		.4byte	0
 4701 017a 00000000 		.4byte	0
 4702              	.LLST11:
 4703 017e 28000000 		.4byte	.LVL49
 4704 0182 2C000000 		.4byte	.LVL50
 4705 0186 0100     		.2byte	0x1
 4706 0188 53       		.byte	0x53
 4707 0189 2C000000 		.4byte	.LVL50
 4708 018d 30000000 		.4byte	.LVL51
 4709 0191 0100     		.2byte	0x1
 4710 0193 52       		.byte	0x52
 4711 0194 30000000 		.4byte	.LVL51
 4712 0198 35000000 		.4byte	.LVL52-1
 4713 019c 0100     		.2byte	0x1
 4714 019e 53       		.byte	0x53
 4715 019f 00000000 		.4byte	0
 4716 01a3 00000000 		.4byte	0
 4717              	.LLST12:
 4718 01a7 02000000 		.4byte	.LVL44
 4719 01ab 20000000 		.4byte	.LVL47
 4720 01af 0200     		.2byte	0x2
 4721 01b1 30       		.byte	0x30
 4722 01b2 9F       		.byte	0x9f
 4723 01b3 20000000 		.4byte	.LVL47
 4724 01b7 40000000 		.4byte	.LVL53
 4725 01bb 0100     		.2byte	0x1
 4726 01bd 54       		.byte	0x54
 4727 01be 00000000 		.4byte	0
 4728 01c2 00000000 		.4byte	0
 4729              	.LLST13:
 4730 01c6 06000000 		.4byte	.LVL45
 4731 01ca 23000000 		.4byte	.LVL48-1
ARM GAS  C:\Users\merlin\AppData\Local\Temp\ccZOZwzR.s 			page 125


 4732 01ce 0100     		.2byte	0x1
 4733 01d0 52       		.byte	0x52
 4734 01d1 00000000 		.4byte	0
 4735 01d5 00000000 		.4byte	0
 4736              	.LLST14:
 4737 01d9 02000000 		.4byte	.LVL54
 4738 01dd 06000000 		.4byte	.LVL55
 4739 01e1 0200     		.2byte	0x2
 4740 01e3 30       		.byte	0x30
 4741 01e4 9F       		.byte	0x9f
 4742 01e5 06000000 		.4byte	.LVL55
 4743 01e9 12000000 		.4byte	.LVL58
 4744 01ed 0100     		.2byte	0x1
 4745 01ef 54       		.byte	0x54
 4746 01f0 00000000 		.4byte	0
 4747 01f4 00000000 		.4byte	0
 4748              	.LLST15:
 4749 01f8 00000000 		.4byte	.LVL59
 4750 01fc 16000000 		.4byte	.LVL64
 4751 0200 0100     		.2byte	0x1
 4752 0202 50       		.byte	0x50
 4753 0203 16000000 		.4byte	.LVL64
 4754 0207 20000000 		.4byte	.LFE53
 4755 020b 0400     		.2byte	0x4
 4756 020d F3       		.byte	0xf3
 4757 020e 01       		.uleb128 0x1
 4758 020f 50       		.byte	0x50
 4759 0210 9F       		.byte	0x9f
 4760 0211 00000000 		.4byte	0
 4761 0215 00000000 		.4byte	0
 4762              	.LLST16:
 4763 0219 00000000 		.4byte	.LVL59
 4764 021d 06000000 		.4byte	.LVL60
 4765 0221 0100     		.2byte	0x1
 4766 0223 51       		.byte	0x51
 4767 0224 06000000 		.4byte	.LVL60
 4768 0228 20000000 		.4byte	.LFE53
 4769 022c 0400     		.2byte	0x4
 4770 022e F3       		.byte	0xf3
 4771 022f 01       		.uleb128 0x1
 4772 0230 51       		.byte	0x51
 4773 0231 9F       		.byte	0x9f
 4774 0232 00000000 		.4byte	0
 4775 0236 00000000 		.4byte	0
 4776              	.LLST17:
 4777 023a 00000000 		.4byte	.LVL59
 4778 023e 08000000 		.4byte	.LVL61
 4779 0242 0100     		.2byte	0x1
 4780 0244 52       		.byte	0x52
 4781 0245 08000000 		.4byte	.LVL61
 4782 0249 20000000 		.4byte	.LFE53
 4783 024d 0400     		.2byte	0x4
 4784 024f F3       		.byte	0xf3
 4785 0250 01       		.uleb128 0x1
 4786 0251 52       		.byte	0x52
 4787 0252 9F       		.byte	0x9f
 4788 0253 00000000 		.4byte	0
ARM GAS  C:\Users\merlin\AppData\Local\Temp\ccZOZwzR.s 			page 126


 4789 0257 00000000 		.4byte	0
 4790              	.LLST18:
 4791 025b 0E000000 		.4byte	.LVL62
 4792 025f 18000000 		.4byte	.LVL65
 4793 0263 0100     		.2byte	0x1
 4794 0265 53       		.byte	0x53
 4795 0266 18000000 		.4byte	.LVL65
 4796 026a 20000000 		.4byte	.LFE53
 4797 026e 0100     		.2byte	0x1
 4798 0270 50       		.byte	0x50
 4799 0271 00000000 		.4byte	0
 4800 0275 00000000 		.4byte	0
 4801              	.LLST19:
 4802 0279 00000000 		.4byte	.LVL66
 4803 027d 08000000 		.4byte	.LVL68
 4804 0281 0100     		.2byte	0x1
 4805 0283 50       		.byte	0x50
 4806 0284 08000000 		.4byte	.LVL68
 4807 0288 24000000 		.4byte	.LVL74
 4808 028c 0100     		.2byte	0x1
 4809 028e 55       		.byte	0x55
 4810 028f 24000000 		.4byte	.LVL74
 4811 0293 26000000 		.4byte	.LFE51
 4812 0297 0400     		.2byte	0x4
 4813 0299 F3       		.byte	0xf3
 4814 029a 01       		.uleb128 0x1
 4815 029b 50       		.byte	0x50
 4816 029c 9F       		.byte	0x9f
 4817 029d 00000000 		.4byte	0
 4818 02a1 00000000 		.4byte	0
 4819              	.LLST20:
 4820 02a5 04000000 		.4byte	.LVL67
 4821 02a9 08000000 		.4byte	.LVL68
 4822 02ad 0200     		.2byte	0x2
 4823 02af 30       		.byte	0x30
 4824 02b0 9F       		.byte	0x9f
 4825 02b1 08000000 		.4byte	.LVL68
 4826 02b5 14000000 		.4byte	.LVL70
 4827 02b9 0100     		.2byte	0x1
 4828 02bb 54       		.byte	0x54
 4829 02bc 16000000 		.4byte	.LVL71
 4830 02c0 24000000 		.4byte	.LVL73
 4831 02c4 0100     		.2byte	0x1
 4832 02c6 54       		.byte	0x54
 4833 02c7 00000000 		.4byte	0
 4834 02cb 00000000 		.4byte	0
 4835              	.LLST21:
 4836 02cf 08000000 		.4byte	.LVL68
 4837 02d3 16000000 		.4byte	.LVL71
 4838 02d7 0200     		.2byte	0x2
 4839 02d9 33       		.byte	0x33
 4840 02da 9F       		.byte	0x9f
 4841 02db 00000000 		.4byte	0
 4842 02df 00000000 		.4byte	0
 4843              	.LLST22:
 4844 02e3 08000000 		.4byte	.LVL68
 4845 02e7 16000000 		.4byte	.LVL71
ARM GAS  C:\Users\merlin\AppData\Local\Temp\ccZOZwzR.s 			page 127


 4846 02eb 0200     		.2byte	0x2
 4847 02ed 37       		.byte	0x37
 4848 02ee 9F       		.byte	0x9f
 4849 02ef 00000000 		.4byte	0
 4850 02f3 00000000 		.4byte	0
 4851              	.LLST23:
 4852 02f7 0C000000 		.4byte	.LVL76
 4853 02fb 10000000 		.4byte	.LVL77
 4854 02ff 0100     		.2byte	0x1
 4855 0301 51       		.byte	0x51
 4856 0302 10000000 		.4byte	.LVL77
 4857 0306 24000000 		.4byte	.LFE52
 4858 030a 0100     		.2byte	0x1
 4859 030c 53       		.byte	0x53
 4860 030d 00000000 		.4byte	0
 4861 0311 00000000 		.4byte	0
 4862              	.LLST24:
 4863 0315 00000000 		.4byte	.LVL79
 4864 0319 0B000000 		.4byte	.LVL82-1
 4865 031d 0100     		.2byte	0x1
 4866 031f 50       		.byte	0x50
 4867 0320 0B000000 		.4byte	.LVL82-1
 4868 0324 82000000 		.4byte	.LVL102
 4869 0328 0100     		.2byte	0x1
 4870 032a 55       		.byte	0x55
 4871 032b 82000000 		.4byte	.LVL102
 4872 032f B4000000 		.4byte	.LFE54
 4873 0333 0400     		.2byte	0x4
 4874 0335 F3       		.byte	0xf3
 4875 0336 01       		.uleb128 0x1
 4876 0337 50       		.byte	0x50
 4877 0338 9F       		.byte	0x9f
 4878 0339 00000000 		.4byte	0
 4879 033d 00000000 		.4byte	0
 4880              	.LLST25:
 4881 0341 82000000 		.4byte	.LVL102
 4882 0345 94000000 		.4byte	.LVL106
 4883 0349 0100     		.2byte	0x1
 4884 034b 55       		.byte	0x55
 4885 034c 00000000 		.4byte	0
 4886 0350 00000000 		.4byte	0
 4887              	.LLST26:
 4888 0354 40000000 		.4byte	.LVL89
 4889 0358 44000000 		.4byte	.LVL90
 4890 035c 0100     		.2byte	0x1
 4891 035e 52       		.byte	0x52
 4892 035f 44000000 		.4byte	.LVL90
 4893 0363 4B000000 		.4byte	.LVL91-1
 4894 0367 0100     		.2byte	0x1
 4895 0369 53       		.byte	0x53
 4896 036a 56000000 		.4byte	.LVL93
 4897 036e 64000000 		.4byte	.LVL95
 4898 0372 0100     		.2byte	0x1
 4899 0374 52       		.byte	0x52
 4900 0375 64000000 		.4byte	.LVL95
 4901 0379 68000000 		.4byte	.LVL96
 4902 037d 0100     		.2byte	0x1
ARM GAS  C:\Users\merlin\AppData\Local\Temp\ccZOZwzR.s 			page 128


 4903 037f 53       		.byte	0x53
 4904 0380 68000000 		.4byte	.LVL96
 4905 0384 94000000 		.4byte	.LVL105
 4906 0388 0100     		.2byte	0x1
 4907 038a 54       		.byte	0x54
 4908 038b 00000000 		.4byte	0
 4909 038f 00000000 		.4byte	0
 4910              	.LLST27:
 4911 0393 08000000 		.4byte	.LVL81
 4912 0397 94000000 		.4byte	.LVL107
 4913 039b 0100     		.2byte	0x1
 4914 039d 57       		.byte	0x57
 4915 039e 00000000 		.4byte	0
 4916 03a2 00000000 		.4byte	0
 4917              	.LLST28:
 4918 03a6 00000000 		.4byte	.LVL108
 4919 03aa 13000000 		.4byte	.LVL109-1
 4920 03ae 0100     		.2byte	0x1
 4921 03b0 50       		.byte	0x50
 4922 03b1 13000000 		.4byte	.LVL109-1
 4923 03b5 1C000000 		.4byte	.LFE40
 4924 03b9 0400     		.2byte	0x4
 4925 03bb F3       		.byte	0xf3
 4926 03bc 01       		.uleb128 0x1
 4927 03bd 50       		.byte	0x50
 4928 03be 9F       		.byte	0x9f
 4929 03bf 00000000 		.4byte	0
 4930 03c3 00000000 		.4byte	0
 4931              	.LLST29:
 4932 03c7 00000000 		.4byte	.LVL110
 4933 03cb 11000000 		.4byte	.LVL111-1
 4934 03cf 0100     		.2byte	0x1
 4935 03d1 50       		.byte	0x50
 4936 03d2 11000000 		.4byte	.LVL111-1
 4937 03d6 54000000 		.4byte	.LFE55
 4938 03da 0400     		.2byte	0x4
 4939 03dc F3       		.byte	0xf3
 4940 03dd 01       		.uleb128 0x1
 4941 03de 50       		.byte	0x50
 4942 03df 9F       		.byte	0x9f
 4943 03e0 00000000 		.4byte	0
 4944 03e4 00000000 		.4byte	0
 4945              	.LLST30:
 4946 03e8 1C000000 		.4byte	.LVL113
 4947 03ec 20000000 		.4byte	.LVL114
 4948 03f0 0100     		.2byte	0x1
 4949 03f2 51       		.byte	0x51
 4950 03f3 20000000 		.4byte	.LVL114
 4951 03f7 2E000000 		.4byte	.LVL116
 4952 03fb 0100     		.2byte	0x1
 4953 03fd 53       		.byte	0x53
 4954 03fe 2E000000 		.4byte	.LVL116
 4955 0402 32000000 		.4byte	.LVL117
 4956 0406 0500     		.2byte	0x5
 4957 0408 0C       		.byte	0xc
 4958 0409 04002840 		.4byte	0x40280004
 4959 040d 00000000 		.4byte	0
ARM GAS  C:\Users\merlin\AppData\Local\Temp\ccZOZwzR.s 			page 129


 4960 0411 00000000 		.4byte	0
 4961              	.LLST31:
 4962 0415 00000000 		.4byte	.LVL119
 4963 0419 1E000000 		.4byte	.LVL122
 4964 041d 0100     		.2byte	0x1
 4965 041f 50       		.byte	0x50
 4966 0420 1E000000 		.4byte	.LVL122
 4967 0424 34000000 		.4byte	.LFE56
 4968 0428 0400     		.2byte	0x4
 4969 042a F3       		.byte	0xf3
 4970 042b 01       		.uleb128 0x1
 4971 042c 50       		.byte	0x50
 4972 042d 9F       		.byte	0x9f
 4973 042e 00000000 		.4byte	0
 4974 0432 00000000 		.4byte	0
 4975              	.LLST32:
 4976 0436 00000000 		.4byte	.LVL119
 4977 043a 06000000 		.4byte	.LVL120
 4978 043e 0100     		.2byte	0x1
 4979 0440 51       		.byte	0x51
 4980 0441 06000000 		.4byte	.LVL120
 4981 0445 34000000 		.4byte	.LFE56
 4982 0449 0400     		.2byte	0x4
 4983 044b F3       		.byte	0xf3
 4984 044c 01       		.uleb128 0x1
 4985 044d 51       		.byte	0x51
 4986 044e 9F       		.byte	0x9f
 4987 044f 00000000 		.4byte	0
 4988 0453 00000000 		.4byte	0
 4989              	.LLST33:
 4990 0457 1C000000 		.4byte	.LVL121
 4991 045b 2C000000 		.4byte	.LVL124
 4992 045f 0100     		.2byte	0x1
 4993 0461 53       		.byte	0x53
 4994 0462 2C000000 		.4byte	.LVL124
 4995 0466 34000000 		.4byte	.LFE56
 4996 046a 0100     		.2byte	0x1
 4997 046c 50       		.byte	0x50
 4998 046d 00000000 		.4byte	0
 4999 0471 00000000 		.4byte	0
 5000              	.LLST34:
 5001 0475 00000000 		.4byte	.LVL125
 5002 0479 04000000 		.4byte	.LVL126
 5003 047d 0100     		.2byte	0x1
 5004 047f 50       		.byte	0x50
 5005 0480 04000000 		.4byte	.LVL126
 5006 0484 0A000000 		.4byte	.LVL128
 5007 0488 0100     		.2byte	0x1
 5008 048a 50       		.byte	0x50
 5009 048b 0A000000 		.4byte	.LVL128
 5010 048f 14000000 		.4byte	.LFE57
 5011 0493 0600     		.2byte	0x6
 5012 0495 F3       		.byte	0xf3
 5013 0496 01       		.uleb128 0x1
 5014 0497 50       		.byte	0x50
 5015 0498 33       		.byte	0x33
 5016 0499 1A       		.byte	0x1a
ARM GAS  C:\Users\merlin\AppData\Local\Temp\ccZOZwzR.s 			page 130


 5017 049a 9F       		.byte	0x9f
 5018 049b 00000000 		.4byte	0
 5019 049f 00000000 		.4byte	0
 5020              	.LLST35:
 5021 04a3 08000000 		.4byte	.LVL127
 5022 04a7 0C000000 		.4byte	.LVL129
 5023 04ab 0100     		.2byte	0x1
 5024 04ad 52       		.byte	0x52
 5025 04ae 0C000000 		.4byte	.LVL129
 5026 04b2 14000000 		.4byte	.LFE57
 5027 04b6 0100     		.2byte	0x1
 5028 04b8 50       		.byte	0x50
 5029 04b9 00000000 		.4byte	0
 5030 04bd 00000000 		.4byte	0
 5031              	.LLST36:
 5032 04c1 02000000 		.4byte	.LVL130
 5033 04c5 06000000 		.4byte	.LVL131
 5034 04c9 0200     		.2byte	0x2
 5035 04cb 30       		.byte	0x30
 5036 04cc 9F       		.byte	0x9f
 5037 04cd 06000000 		.4byte	.LVL131
 5038 04d1 15000000 		.4byte	.LVL133-1
 5039 04d5 0100     		.2byte	0x1
 5040 04d7 53       		.byte	0x53
 5041 04d8 00000000 		.4byte	0
 5042 04dc 00000000 		.4byte	0
 5043              	.LLST37:
 5044 04e0 00000000 		.4byte	.LVL136
 5045 04e4 14000000 		.4byte	.LVL140
 5046 04e8 0100     		.2byte	0x1
 5047 04ea 50       		.byte	0x50
 5048 04eb 14000000 		.4byte	.LVL140
 5049 04ef 16000000 		.4byte	.LVL141
 5050 04f3 0400     		.2byte	0x4
 5051 04f5 F3       		.byte	0xf3
 5052 04f6 01       		.uleb128 0x1
 5053 04f7 50       		.byte	0x50
 5054 04f8 9F       		.byte	0x9f
 5055 04f9 16000000 		.4byte	.LVL141
 5056 04fd 18000000 		.4byte	.LVL142
 5057 0501 0100     		.2byte	0x1
 5058 0503 50       		.byte	0x50
 5059 0504 18000000 		.4byte	.LVL142
 5060 0508 1A000000 		.4byte	.LFE59
 5061 050c 0400     		.2byte	0x4
 5062 050e F3       		.byte	0xf3
 5063 050f 01       		.uleb128 0x1
 5064 0510 50       		.byte	0x50
 5065 0511 9F       		.byte	0x9f
 5066 0512 00000000 		.4byte	0
 5067 0516 00000000 		.4byte	0
 5068              	.LLST38:
 5069 051a 00000000 		.4byte	.LVL136
 5070 051e 06000000 		.4byte	.LVL138
 5071 0522 0100     		.2byte	0x1
 5072 0524 51       		.byte	0x51
 5073 0525 06000000 		.4byte	.LVL138
ARM GAS  C:\Users\merlin\AppData\Local\Temp\ccZOZwzR.s 			page 131


 5074 0529 1A000000 		.4byte	.LFE59
 5075 052d 0400     		.2byte	0x4
 5076 052f F3       		.byte	0xf3
 5077 0530 01       		.uleb128 0x1
 5078 0531 51       		.byte	0x51
 5079 0532 9F       		.byte	0x9f
 5080 0533 00000000 		.4byte	0
 5081 0537 00000000 		.4byte	0
 5082              	.LLST39:
 5083 053b 00000000 		.4byte	.LVL143
 5084 053f 04000000 		.4byte	.LVL144
 5085 0543 0100     		.2byte	0x1
 5086 0545 50       		.byte	0x50
 5087 0546 04000000 		.4byte	.LVL144
 5088 054a 06000000 		.4byte	.LVL145
 5089 054e 0100     		.2byte	0x1
 5090 0550 54       		.byte	0x54
 5091 0551 08000000 		.4byte	.LVL146
 5092 0555 1C000000 		.4byte	.LVL149
 5093 0559 0100     		.2byte	0x1
 5094 055b 54       		.byte	0x54
 5095 055c 1C000000 		.4byte	.LVL149
 5096 0560 24000000 		.4byte	.LFE39
 5097 0564 0100     		.2byte	0x1
 5098 0566 50       		.byte	0x50
 5099 0567 00000000 		.4byte	0
 5100 056b 00000000 		.4byte	0
 5101              	.LLST40:
 5102 056f 16000000 		.4byte	.LVL147
 5103 0573 1A000000 		.4byte	.LVL148
 5104 0577 0100     		.2byte	0x1
 5105 0579 50       		.byte	0x50
 5106 057a 00000000 		.4byte	0
 5107 057e 00000000 		.4byte	0
 5108              	.LLST41:
 5109 0582 00000000 		.4byte	.LVL152
 5110 0586 08000000 		.4byte	.LVL154
 5111 058a 0100     		.2byte	0x1
 5112 058c 51       		.byte	0x51
 5113 058d 08000000 		.4byte	.LVL154
 5114 0591 26000000 		.4byte	.LFE60
 5115 0595 0400     		.2byte	0x4
 5116 0597 F3       		.byte	0xf3
 5117 0598 01       		.uleb128 0x1
 5118 0599 51       		.byte	0x51
 5119 059a 9F       		.byte	0x9f
 5120 059b 00000000 		.4byte	0
 5121 059f 00000000 		.4byte	0
 5122              	.LLST42:
 5123 05a3 04000000 		.4byte	.LVL153
 5124 05a7 14000000 		.4byte	.LVL156
 5125 05ab 0100     		.2byte	0x1
 5126 05ad 54       		.byte	0x54
 5127 05ae 14000000 		.4byte	.LVL156
 5128 05b2 1C000000 		.4byte	.LVL158
 5129 05b6 0600     		.2byte	0x6
 5130 05b8 F3       		.byte	0xf3
ARM GAS  C:\Users\merlin\AppData\Local\Temp\ccZOZwzR.s 			page 132


 5131 05b9 01       		.uleb128 0x1
 5132 05ba 51       		.byte	0x51
 5133 05bb 33       		.byte	0x33
 5134 05bc 25       		.byte	0x25
 5135 05bd 9F       		.byte	0x9f
 5136 05be 1C000000 		.4byte	.LVL158
 5137 05c2 1E000000 		.4byte	.LVL159
 5138 05c6 0100     		.2byte	0x1
 5139 05c8 54       		.byte	0x54
 5140 05c9 1E000000 		.4byte	.LVL159
 5141 05cd 26000000 		.4byte	.LFE60
 5142 05d1 0600     		.2byte	0x6
 5143 05d3 F3       		.byte	0xf3
 5144 05d4 01       		.uleb128 0x1
 5145 05d5 51       		.byte	0x51
 5146 05d6 33       		.byte	0x33
 5147 05d7 25       		.byte	0x25
 5148 05d8 9F       		.byte	0x9f
 5149 05d9 00000000 		.4byte	0
 5150 05dd 00000000 		.4byte	0
 5151              	.LLST43:
 5152 05e1 0E000000 		.4byte	.LVL155
 5153 05e5 18000000 		.4byte	.LVL157
 5154 05e9 0100     		.2byte	0x1
 5155 05eb 51       		.byte	0x51
 5156 05ec 18000000 		.4byte	.LVL157
 5157 05f0 1C000000 		.4byte	.LVL158
 5158 05f4 0800     		.2byte	0x8
 5159 05f6 31       		.byte	0x31
 5160 05f7 F3       		.byte	0xf3
 5161 05f8 01       		.uleb128 0x1
 5162 05f9 51       		.byte	0x51
 5163 05fa 37       		.byte	0x37
 5164 05fb 1A       		.byte	0x1a
 5165 05fc 24       		.byte	0x24
 5166 05fd 9F       		.byte	0x9f
 5167 05fe 1C000000 		.4byte	.LVL158
 5168 0602 24000000 		.4byte	.LVL160
 5169 0606 0100     		.2byte	0x1
 5170 0608 51       		.byte	0x51
 5171 0609 24000000 		.4byte	.LVL160
 5172 060d 26000000 		.4byte	.LFE60
 5173 0611 0800     		.2byte	0x8
 5174 0613 31       		.byte	0x31
 5175 0614 F3       		.byte	0xf3
 5176 0615 01       		.uleb128 0x1
 5177 0616 51       		.byte	0x51
 5178 0617 37       		.byte	0x37
 5179 0618 1A       		.byte	0x1a
 5180 0619 24       		.byte	0x24
 5181 061a 9F       		.byte	0x9f
 5182 061b 00000000 		.4byte	0
 5183 061f 00000000 		.4byte	0
 5184              	.LLST44:
 5185 0623 00000000 		.4byte	.LVL161
 5186 0627 30000000 		.4byte	.LVL168
 5187 062b 0100     		.2byte	0x1
ARM GAS  C:\Users\merlin\AppData\Local\Temp\ccZOZwzR.s 			page 133


 5188 062d 50       		.byte	0x50
 5189 062e 30000000 		.4byte	.LVL168
 5190 0632 88000000 		.4byte	.LFE41
 5191 0636 0400     		.2byte	0x4
 5192 0638 F3       		.byte	0xf3
 5193 0639 01       		.uleb128 0x1
 5194 063a 50       		.byte	0x50
 5195 063b 9F       		.byte	0x9f
 5196 063c 00000000 		.4byte	0
 5197 0640 00000000 		.4byte	0
 5198              	.LLST45:
 5199 0644 0E000000 		.4byte	.LVL162
 5200 0648 1A000000 		.4byte	.LVL165
 5201 064c 0100     		.2byte	0x1
 5202 064e 53       		.byte	0x53
 5203 064f 00000000 		.4byte	0
 5204 0653 00000000 		.4byte	0
 5205              	.LLST46:
 5206 0657 18000000 		.4byte	.LVL164
 5207 065b 74000000 		.4byte	.LVL174
 5208 065f 0100     		.2byte	0x1
 5209 0661 55       		.byte	0x55
 5210 0662 00000000 		.4byte	0
 5211 0666 00000000 		.4byte	0
 5212              	.LLST47:
 5213 066a 18000000 		.4byte	.LVL164
 5214 066e 1C000000 		.4byte	.LVL166
 5215 0672 0200     		.2byte	0x2
 5216 0674 30       		.byte	0x30
 5217 0675 9F       		.byte	0x9f
 5218 0676 1C000000 		.4byte	.LVL166
 5219 067a 30000000 		.4byte	.LVL168
 5220 067e 0100     		.2byte	0x1
 5221 0680 53       		.byte	0x53
 5222 0681 30000000 		.4byte	.LVL168
 5223 0685 74000000 		.4byte	.LVL173
 5224 0689 0100     		.2byte	0x1
 5225 068b 54       		.byte	0x54
 5226 068c 00000000 		.4byte	0
 5227 0690 00000000 		.4byte	0
 5228              	.LLST48:
 5229 0694 00000000 		.4byte	.LVL175
 5230 0698 04000000 		.4byte	.LVL176
 5231 069c 0100     		.2byte	0x1
 5232 069e 50       		.byte	0x50
 5233 069f 04000000 		.4byte	.LVL176
 5234 06a3 0C000000 		.4byte	.LFE61
 5235 06a7 0400     		.2byte	0x4
 5236 06a9 F3       		.byte	0xf3
 5237 06aa 01       		.uleb128 0x1
 5238 06ab 50       		.byte	0x50
 5239 06ac 9F       		.byte	0x9f
 5240 06ad 00000000 		.4byte	0
 5241 06b1 00000000 		.4byte	0
 5242              	.LLST49:
 5243 06b5 00000000 		.4byte	.LVL177
 5244 06b9 04000000 		.4byte	.LVL178
ARM GAS  C:\Users\merlin\AppData\Local\Temp\ccZOZwzR.s 			page 134


 5245 06bd 0100     		.2byte	0x1
 5246 06bf 50       		.byte	0x50
 5247 06c0 04000000 		.4byte	.LVL178
 5248 06c4 0C000000 		.4byte	.LFE62
 5249 06c8 0400     		.2byte	0x4
 5250 06ca F3       		.byte	0xf3
 5251 06cb 01       		.uleb128 0x1
 5252 06cc 50       		.byte	0x50
 5253 06cd 9F       		.byte	0x9f
 5254 06ce 00000000 		.4byte	0
 5255 06d2 00000000 		.4byte	0
 5256              	.LLST50:
 5257 06d6 00000000 		.4byte	.LVL179
 5258 06da 04000000 		.4byte	.LVL180
 5259 06de 0100     		.2byte	0x1
 5260 06e0 50       		.byte	0x50
 5261 06e1 04000000 		.4byte	.LVL180
 5262 06e5 0C000000 		.4byte	.LFE63
 5263 06e9 0400     		.2byte	0x4
 5264 06eb F3       		.byte	0xf3
 5265 06ec 01       		.uleb128 0x1
 5266 06ed 50       		.byte	0x50
 5267 06ee 9F       		.byte	0x9f
 5268 06ef 00000000 		.4byte	0
 5269 06f3 00000000 		.4byte	0
 5270              	.LLST51:
 5271 06f7 00000000 		.4byte	.LVL181
 5272 06fb 04000000 		.4byte	.LVL182
 5273 06ff 0100     		.2byte	0x1
 5274 0701 50       		.byte	0x50
 5275 0702 04000000 		.4byte	.LVL182
 5276 0706 0C000000 		.4byte	.LFE64
 5277 070a 0400     		.2byte	0x4
 5278 070c F3       		.byte	0xf3
 5279 070d 01       		.uleb128 0x1
 5280 070e 50       		.byte	0x50
 5281 070f 9F       		.byte	0x9f
 5282 0710 00000000 		.4byte	0
 5283 0714 00000000 		.4byte	0
 5284              	.LLST52:
 5285 0718 00000000 		.4byte	.LVL183
 5286 071c 04000000 		.4byte	.LVL184
 5287 0720 0100     		.2byte	0x1
 5288 0722 50       		.byte	0x50
 5289 0723 04000000 		.4byte	.LVL184
 5290 0727 0C000000 		.4byte	.LFE65
 5291 072b 0400     		.2byte	0x4
 5292 072d F3       		.byte	0xf3
 5293 072e 01       		.uleb128 0x1
 5294 072f 50       		.byte	0x50
 5295 0730 9F       		.byte	0x9f
 5296 0731 00000000 		.4byte	0
 5297 0735 00000000 		.4byte	0
 5298              	.LLST53:
 5299 0739 00000000 		.4byte	.LVL185
 5300 073d 04000000 		.4byte	.LVL186
 5301 0741 0100     		.2byte	0x1
ARM GAS  C:\Users\merlin\AppData\Local\Temp\ccZOZwzR.s 			page 135


 5302 0743 50       		.byte	0x50
 5303 0744 04000000 		.4byte	.LVL186
 5304 0748 0C000000 		.4byte	.LFE66
 5305 074c 0400     		.2byte	0x4
 5306 074e F3       		.byte	0xf3
 5307 074f 01       		.uleb128 0x1
 5308 0750 50       		.byte	0x50
 5309 0751 9F       		.byte	0x9f
 5310 0752 00000000 		.4byte	0
 5311 0756 00000000 		.4byte	0
 5312              	.LLST54:
 5313 075a 00000000 		.4byte	.LVL187
 5314 075e 04000000 		.4byte	.LVL188
 5315 0762 0100     		.2byte	0x1
 5316 0764 50       		.byte	0x50
 5317 0765 04000000 		.4byte	.LVL188
 5318 0769 0C000000 		.4byte	.LFE67
 5319 076d 0400     		.2byte	0x4
 5320 076f F3       		.byte	0xf3
 5321 0770 01       		.uleb128 0x1
 5322 0771 50       		.byte	0x50
 5323 0772 9F       		.byte	0x9f
 5324 0773 00000000 		.4byte	0
 5325 0777 00000000 		.4byte	0
 5326              	.LLST55:
 5327 077b 00000000 		.4byte	.LVL189
 5328 077f 04000000 		.4byte	.LVL190
 5329 0783 0100     		.2byte	0x1
 5330 0785 50       		.byte	0x50
 5331 0786 04000000 		.4byte	.LVL190
 5332 078a 0C000000 		.4byte	.LFE68
 5333 078e 0400     		.2byte	0x4
 5334 0790 F3       		.byte	0xf3
 5335 0791 01       		.uleb128 0x1
 5336 0792 50       		.byte	0x50
 5337 0793 9F       		.byte	0x9f
 5338 0794 00000000 		.4byte	0
 5339 0798 00000000 		.4byte	0
 5340              	.LLST56:
 5341 079c 00000000 		.4byte	.LVL192
 5342 07a0 0A000000 		.4byte	.LVL194
 5343 07a4 0100     		.2byte	0x1
 5344 07a6 50       		.byte	0x50
 5345 07a7 0A000000 		.4byte	.LVL194
 5346 07ab 28000000 		.4byte	.LVL202
 5347 07af 0100     		.2byte	0x1
 5348 07b1 56       		.byte	0x56
 5349 07b2 28000000 		.4byte	.LVL202
 5350 07b6 2A000000 		.4byte	.LFE71
 5351 07ba 0400     		.2byte	0x4
 5352 07bc F3       		.byte	0xf3
 5353 07bd 01       		.uleb128 0x1
 5354 07be 50       		.byte	0x50
 5355 07bf 9F       		.byte	0x9f
 5356 07c0 00000000 		.4byte	0
 5357 07c4 00000000 		.4byte	0
 5358              	.LLST57:
ARM GAS  C:\Users\merlin\AppData\Local\Temp\ccZOZwzR.s 			page 136


 5359 07c8 04000000 		.4byte	.LVL193
 5360 07cc 0A000000 		.4byte	.LVL194
 5361 07d0 0200     		.2byte	0x2
 5362 07d2 30       		.byte	0x30
 5363 07d3 9F       		.byte	0x9f
 5364 07d4 0A000000 		.4byte	.LVL194
 5365 07d8 28000000 		.4byte	.LVL201
 5366 07dc 0100     		.2byte	0x1
 5367 07de 55       		.byte	0x55
 5368 07df 00000000 		.4byte	0
 5369 07e3 00000000 		.4byte	0
 5370              	.LLST58:
 5371 07e7 04000000 		.4byte	.LVL193
 5372 07eb 0A000000 		.4byte	.LVL194
 5373 07ef 0200     		.2byte	0x2
 5374 07f1 30       		.byte	0x30
 5375 07f2 9F       		.byte	0x9f
 5376 07f3 0A000000 		.4byte	.LVL194
 5377 07f7 28000000 		.4byte	.LVL200
 5378 07fb 0100     		.2byte	0x1
 5379 07fd 54       		.byte	0x54
 5380 07fe 00000000 		.4byte	0
 5381 0802 00000000 		.4byte	0
 5382              	.LLST59:
 5383 0806 00000000 		.4byte	.LVL203
 5384 080a 0E000000 		.4byte	.LVL205
 5385 080e 0100     		.2byte	0x1
 5386 0810 50       		.byte	0x50
 5387 0811 0E000000 		.4byte	.LVL205
 5388 0815 28000000 		.4byte	.LVL209
 5389 0819 0100     		.2byte	0x1
 5390 081b 55       		.byte	0x55
 5391 081c 28000000 		.4byte	.LVL209
 5392 0820 2A000000 		.4byte	.LFE72
 5393 0824 0400     		.2byte	0x4
 5394 0826 F3       		.byte	0xf3
 5395 0827 01       		.uleb128 0x1
 5396 0828 50       		.byte	0x50
 5397 0829 9F       		.byte	0x9f
 5398 082a 00000000 		.4byte	0
 5399 082e 00000000 		.4byte	0
 5400              	.LLST60:
 5401 0832 00000000 		.4byte	.LVL203
 5402 0836 0E000000 		.4byte	.LVL205
 5403 083a 0100     		.2byte	0x1
 5404 083c 51       		.byte	0x51
 5405 083d 0E000000 		.4byte	.LVL205
 5406 0841 28000000 		.4byte	.LVL210
 5407 0845 0100     		.2byte	0x1
 5408 0847 57       		.byte	0x57
 5409 0848 28000000 		.4byte	.LVL210
 5410 084c 2A000000 		.4byte	.LFE72
 5411 0850 0400     		.2byte	0x4
 5412 0852 F3       		.byte	0xf3
 5413 0853 01       		.uleb128 0x1
 5414 0854 51       		.byte	0x51
 5415 0855 9F       		.byte	0x9f
ARM GAS  C:\Users\merlin\AppData\Local\Temp\ccZOZwzR.s 			page 137


 5416 0856 00000000 		.4byte	0
 5417 085a 00000000 		.4byte	0
 5418              	.LLST61:
 5419 085e 00000000 		.4byte	.LVL203
 5420 0862 0E000000 		.4byte	.LVL205
 5421 0866 0100     		.2byte	0x1
 5422 0868 52       		.byte	0x52
 5423 0869 0E000000 		.4byte	.LVL205
 5424 086d 2A000000 		.4byte	.LFE72
 5425 0871 0400     		.2byte	0x4
 5426 0873 F3       		.byte	0xf3
 5427 0874 01       		.uleb128 0x1
 5428 0875 52       		.byte	0x52
 5429 0876 9F       		.byte	0x9f
 5430 0877 00000000 		.4byte	0
 5431 087b 00000000 		.4byte	0
 5432              	.LLST62:
 5433 087f 06000000 		.4byte	.LVL204
 5434 0883 0E000000 		.4byte	.LVL205
 5435 0887 0300     		.2byte	0x3
 5436 0889 09       		.byte	0x9
 5437 088a 80       		.byte	0x80
 5438 088b 9F       		.byte	0x9f
 5439 088c 0E000000 		.4byte	.LVL205
 5440 0890 28000000 		.4byte	.LVL208
 5441 0894 0100     		.2byte	0x1
 5442 0896 54       		.byte	0x54
 5443 0897 00000000 		.4byte	0
 5444 089b 00000000 		.4byte	0
 5445              	.LLST63:
 5446 089f 06000000 		.4byte	.LVL204
 5447 08a3 0E000000 		.4byte	.LVL205
 5448 08a7 0200     		.2byte	0x2
 5449 08a9 30       		.byte	0x30
 5450 08aa 9F       		.byte	0x9f
 5451 08ab 1A000000 		.4byte	.LVL206
 5452 08af 2A000000 		.4byte	.LFE72
 5453 08b3 0100     		.2byte	0x1
 5454 08b5 50       		.byte	0x50
 5455 08b6 00000000 		.4byte	0
 5456 08ba 00000000 		.4byte	0
 5457              	.LLST64:
 5458 08be 22000000 		.4byte	.LVL213
 5459 08c2 26000000 		.4byte	.LVL214
 5460 08c6 0200     		.2byte	0x2
 5461 08c8 30       		.byte	0x30
 5462 08c9 9F       		.byte	0x9f
 5463 08ca 26000000 		.4byte	.LVL214
 5464 08ce 4E000000 		.4byte	.LVL222
 5465 08d2 0100     		.2byte	0x1
 5466 08d4 54       		.byte	0x54
 5467 08d5 4E000000 		.4byte	.LVL222
 5468 08d9 66000000 		.4byte	.LVL224
 5469 08dd 0100     		.2byte	0x1
 5470 08df 52       		.byte	0x52
 5471 08e0 00000000 		.4byte	0
 5472 08e4 00000000 		.4byte	0
ARM GAS  C:\Users\merlin\AppData\Local\Temp\ccZOZwzR.s 			page 138


 5473              	.LLST65:
 5474 08e8 2A000000 		.4byte	.LVL215
 5475 08ec 2E000000 		.4byte	.LVL216
 5476 08f0 0100     		.2byte	0x1
 5477 08f2 53       		.byte	0x53
 5478 08f3 2E000000 		.4byte	.LVL216
 5479 08f7 37000000 		.4byte	.LVL217-1
 5480 08fb 0C00     		.2byte	0xc
 5481 08fd 03       		.byte	0x3
 5482 08fe 02000000 		.4byte	CapSense_widgetResolution+2
 5483 0902 94       		.byte	0x94
 5484 0903 02       		.byte	0x2
 5485 0904 0A       		.byte	0xa
 5486 0905 FFFF     		.2byte	0xffff
 5487 0907 1A       		.byte	0x1a
 5488 0908 9F       		.byte	0x9f
 5489 0909 3A000000 		.4byte	.LVL218
 5490 090d 40000000 		.4byte	.LVL219
 5491 0911 0100     		.2byte	0x1
 5492 0913 50       		.byte	0x50
 5493 0914 40000000 		.4byte	.LVL219
 5494 0918 43000000 		.4byte	.LVL220-1
 5495 091c 0100     		.2byte	0x1
 5496 091e 51       		.byte	0x51
 5497 091f 00000000 		.4byte	0
 5498 0923 00000000 		.4byte	0
 5499              	.LLST66:
 5500 0927 26000000 		.4byte	.LVL214
 5501 092b 46000000 		.4byte	.LVL221
 5502 092f 0200     		.2byte	0x2
 5503 0931 30       		.byte	0x30
 5504 0932 9F       		.byte	0x9f
 5505 0933 00000000 		.4byte	0
 5506 0937 00000000 		.4byte	0
 5507              		.section	.debug_aranges,"",%progbits
 5508 0000 54010000 		.4byte	0x154
 5509 0004 0200     		.2byte	0x2
 5510 0006 00000000 		.4byte	.Ldebug_info0
 5511 000a 04       		.byte	0x4
 5512 000b 00       		.byte	0
 5513 000c 0000     		.2byte	0
 5514 000e 0000     		.2byte	0
 5515 0010 00000000 		.4byte	.LFB35
 5516 0014 88000000 		.4byte	.LFE35-.LFB35
 5517 0018 00000000 		.4byte	.LFB36
 5518 001c 40000000 		.4byte	.LFE36-.LFB36
 5519 0020 00000000 		.4byte	.LFB38
 5520 0024 2C000000 		.4byte	.LFE38-.LFB38
 5521 0028 00000000 		.4byte	.LFB43
 5522 002c 10000000 		.4byte	.LFE43-.LFB43
 5523 0030 00000000 		.4byte	.LFB44
 5524 0034 10000000 		.4byte	.LFE44-.LFB44
 5525 0038 00000000 		.4byte	.LFB45
 5526 003c 10000000 		.4byte	.LFE45-.LFB45
 5527 0040 00000000 		.4byte	.LFB46
 5528 0044 0C000000 		.4byte	.LFE46-.LFB46
 5529 0048 00000000 		.4byte	.LFB47
ARM GAS  C:\Users\merlin\AppData\Local\Temp\ccZOZwzR.s 			page 139


 5530 004c 0C000000 		.4byte	.LFE47-.LFB47
 5531 0050 00000000 		.4byte	.LFB49
 5532 0054 34000000 		.4byte	.LFE49-.LFB49
 5533 0058 00000000 		.4byte	.LFB50
 5534 005c 58000000 		.4byte	.LFE50-.LFB50
 5535 0060 00000000 		.4byte	.LFB48
 5536 0064 14000000 		.4byte	.LFE48-.LFB48
 5537 0068 00000000 		.4byte	.LFB53
 5538 006c 20000000 		.4byte	.LFE53-.LFB53
 5539 0070 00000000 		.4byte	.LFB51
 5540 0074 26000000 		.4byte	.LFE51-.LFB51
 5541 0078 00000000 		.4byte	.LFB52
 5542 007c 24000000 		.4byte	.LFE52-.LFB52
 5543 0080 00000000 		.4byte	.LFB54
 5544 0084 B4000000 		.4byte	.LFE54-.LFB54
 5545 0088 00000000 		.4byte	.LFB40
 5546 008c 1C000000 		.4byte	.LFE40-.LFB40
 5547 0090 00000000 		.4byte	.LFB55
 5548 0094 54000000 		.4byte	.LFE55-.LFB55
 5549 0098 00000000 		.4byte	.LFB56
 5550 009c 34000000 		.4byte	.LFE56-.LFB56
 5551 00a0 00000000 		.4byte	.LFB57
 5552 00a4 14000000 		.4byte	.LFE57-.LFB57
 5553 00a8 00000000 		.4byte	.LFB34
 5554 00ac 28000000 		.4byte	.LFE34-.LFB34
 5555 00b0 00000000 		.4byte	.LFB58
 5556 00b4 1C000000 		.4byte	.LFE58-.LFB58
 5557 00b8 00000000 		.4byte	.LFB59
 5558 00bc 1A000000 		.4byte	.LFE59-.LFB59
 5559 00c0 00000000 		.4byte	.LFB39
 5560 00c4 24000000 		.4byte	.LFE39-.LFB39
 5561 00c8 00000000 		.4byte	.LFB42
 5562 00cc 34000000 		.4byte	.LFE42-.LFB42
 5563 00d0 00000000 		.4byte	.LFB60
 5564 00d4 26000000 		.4byte	.LFE60-.LFB60
 5565 00d8 00000000 		.4byte	.LFB41
 5566 00dc 88000000 		.4byte	.LFE41-.LFB41
 5567 00e0 00000000 		.4byte	.LFB61
 5568 00e4 0C000000 		.4byte	.LFE61-.LFB61
 5569 00e8 00000000 		.4byte	.LFB62
 5570 00ec 0C000000 		.4byte	.LFE62-.LFB62
 5571 00f0 00000000 		.4byte	.LFB63
 5572 00f4 0C000000 		.4byte	.LFE63-.LFB63
 5573 00f8 00000000 		.4byte	.LFB64
 5574 00fc 0C000000 		.4byte	.LFE64-.LFB64
 5575 0100 00000000 		.4byte	.LFB65
 5576 0104 0C000000 		.4byte	.LFE65-.LFB65
 5577 0108 00000000 		.4byte	.LFB66
 5578 010c 0C000000 		.4byte	.LFE66-.LFB66
 5579 0110 00000000 		.4byte	.LFB67
 5580 0114 0C000000 		.4byte	.LFE67-.LFB67
 5581 0118 00000000 		.4byte	.LFB68
 5582 011c 0C000000 		.4byte	.LFE68-.LFB68
 5583 0120 00000000 		.4byte	.LFB69
 5584 0124 14000000 		.4byte	.LFE69-.LFB69
 5585 0128 00000000 		.4byte	.LFB70
 5586 012c 28000000 		.4byte	.LFE70-.LFB70
ARM GAS  C:\Users\merlin\AppData\Local\Temp\ccZOZwzR.s 			page 140


 5587 0130 00000000 		.4byte	.LFB71
 5588 0134 2A000000 		.4byte	.LFE71-.LFB71
 5589 0138 00000000 		.4byte	.LFB72
 5590 013c 2A000000 		.4byte	.LFE72-.LFB72
 5591 0140 00000000 		.4byte	.LFB37
 5592 0144 94000000 		.4byte	.LFE37-.LFB37
 5593 0148 00000000 		.4byte	.LFB73
 5594 014c 0C000000 		.4byte	.LFE73-.LFB73
 5595 0150 00000000 		.4byte	0
 5596 0154 00000000 		.4byte	0
 5597              		.section	.debug_ranges,"",%progbits
 5598              	.Ldebug_ranges0:
 5599 0000 00000000 		.4byte	.LFB35
 5600 0004 88000000 		.4byte	.LFE35
 5601 0008 00000000 		.4byte	.LFB36
 5602 000c 40000000 		.4byte	.LFE36
 5603 0010 00000000 		.4byte	.LFB38
 5604 0014 2C000000 		.4byte	.LFE38
 5605 0018 00000000 		.4byte	.LFB43
 5606 001c 10000000 		.4byte	.LFE43
 5607 0020 00000000 		.4byte	.LFB44
 5608 0024 10000000 		.4byte	.LFE44
 5609 0028 00000000 		.4byte	.LFB45
 5610 002c 10000000 		.4byte	.LFE45
 5611 0030 00000000 		.4byte	.LFB46
 5612 0034 0C000000 		.4byte	.LFE46
 5613 0038 00000000 		.4byte	.LFB47
 5614 003c 0C000000 		.4byte	.LFE47
 5615 0040 00000000 		.4byte	.LFB49
 5616 0044 34000000 		.4byte	.LFE49
 5617 0048 00000000 		.4byte	.LFB50
 5618 004c 58000000 		.4byte	.LFE50
 5619 0050 00000000 		.4byte	.LFB48
 5620 0054 14000000 		.4byte	.LFE48
 5621 0058 00000000 		.4byte	.LFB53
 5622 005c 20000000 		.4byte	.LFE53
 5623 0060 00000000 		.4byte	.LFB51
 5624 0064 26000000 		.4byte	.LFE51
 5625 0068 00000000 		.4byte	.LFB52
 5626 006c 24000000 		.4byte	.LFE52
 5627 0070 00000000 		.4byte	.LFB54
 5628 0074 B4000000 		.4byte	.LFE54
 5629 0078 00000000 		.4byte	.LFB40
 5630 007c 1C000000 		.4byte	.LFE40
 5631 0080 00000000 		.4byte	.LFB55
 5632 0084 54000000 		.4byte	.LFE55
 5633 0088 00000000 		.4byte	.LFB56
 5634 008c 34000000 		.4byte	.LFE56
 5635 0090 00000000 		.4byte	.LFB57
 5636 0094 14000000 		.4byte	.LFE57
 5637 0098 00000000 		.4byte	.LFB34
 5638 009c 28000000 		.4byte	.LFE34
 5639 00a0 00000000 		.4byte	.LFB58
 5640 00a4 1C000000 		.4byte	.LFE58
 5641 00a8 00000000 		.4byte	.LFB59
 5642 00ac 1A000000 		.4byte	.LFE59
 5643 00b0 00000000 		.4byte	.LFB39
ARM GAS  C:\Users\merlin\AppData\Local\Temp\ccZOZwzR.s 			page 141


 5644 00b4 24000000 		.4byte	.LFE39
 5645 00b8 00000000 		.4byte	.LFB42
 5646 00bc 34000000 		.4byte	.LFE42
 5647 00c0 00000000 		.4byte	.LFB60
 5648 00c4 26000000 		.4byte	.LFE60
 5649 00c8 00000000 		.4byte	.LFB41
 5650 00cc 88000000 		.4byte	.LFE41
 5651 00d0 00000000 		.4byte	.LFB61
 5652 00d4 0C000000 		.4byte	.LFE61
 5653 00d8 00000000 		.4byte	.LFB62
 5654 00dc 0C000000 		.4byte	.LFE62
 5655 00e0 00000000 		.4byte	.LFB63
 5656 00e4 0C000000 		.4byte	.LFE63
 5657 00e8 00000000 		.4byte	.LFB64
 5658 00ec 0C000000 		.4byte	.LFE64
 5659 00f0 00000000 		.4byte	.LFB65
 5660 00f4 0C000000 		.4byte	.LFE65
 5661 00f8 00000000 		.4byte	.LFB66
 5662 00fc 0C000000 		.4byte	.LFE66
 5663 0100 00000000 		.4byte	.LFB67
 5664 0104 0C000000 		.4byte	.LFE67
 5665 0108 00000000 		.4byte	.LFB68
 5666 010c 0C000000 		.4byte	.LFE68
 5667 0110 00000000 		.4byte	.LFB69
 5668 0114 14000000 		.4byte	.LFE69
 5669 0118 00000000 		.4byte	.LFB70
 5670 011c 28000000 		.4byte	.LFE70
 5671 0120 00000000 		.4byte	.LFB71
 5672 0124 2A000000 		.4byte	.LFE71
 5673 0128 00000000 		.4byte	.LFB72
 5674 012c 2A000000 		.4byte	.LFE72
 5675 0130 00000000 		.4byte	.LFB37
 5676 0134 94000000 		.4byte	.LFE37
 5677 0138 00000000 		.4byte	.LFB73
 5678 013c 0C000000 		.4byte	.LFE73
 5679 0140 00000000 		.4byte	0
 5680 0144 00000000 		.4byte	0
 5681              		.section	.debug_line,"",%progbits
 5682              	.Ldebug_line0:
 5683 0000 F2040000 		.section	.debug_str,"MS",%progbits,1
 5683      02009400 
 5683      00000201 
 5683      FB0E0D00 
 5683      01010101 
 5684              	.LASF123:
 5685 0000 4379496E 		.ascii	"CyIntSetPriority\000"
 5685      74536574 
 5685      5072696F 
 5685      72697479 
 5685      00
 5686              	.LASF134:
 5687 0011 433A5C55 		.ascii	"C:\\Users\\merlin\\Documents\\PSoC Creator\\Sandbox"
 5687      73657273 
 5687      5C6D6572 
 5687      6C696E5C 
 5687      446F6375 
 5688 003f 5F437261 		.ascii	"_CrazyEyes.cydsn\000"
ARM GAS  C:\Users\merlin\AppData\Local\Temp\ccZOZwzR.s 			page 142


 5688      7A794579 
 5688      65732E63 
 5688      7964736E 
 5688      00
 5689              	.LASF54:
 5690 0050 43617053 		.ascii	"CapSense_PostScan\000"
 5690      656E7365 
 5690      5F506F73 
 5690      74536361 
 5690      6E00
 5691              	.LASF100:
 5692 0062 43617053 		.ascii	"CapSense_csdStatusVar\000"
 5692      656E7365 
 5692      5F637364 
 5692      53746174 
 5692      75735661 
 5693              	.LASF107:
 5694 0078 43617053 		.ascii	"CapSense_compensationIDAC\000"
 5694      656E7365 
 5694      5F636F6D 
 5694      70656E73 
 5694      6174696F 
 5695              	.LASF117:
 5696 0092 43617053 		.ascii	"CapSense_maskTable\000"
 5696      656E7365 
 5696      5F6D6173 
 5696      6B546162 
 5696      6C6500
 5697              	.LASF8:
 5698 00a5 756E7369 		.ascii	"unsigned int\000"
 5698      676E6564 
 5698      20696E74 
 5698      00
 5699              	.LASF110:
 5700 00b2 43617053 		.ascii	"CapSense_sampleClkDividerVal\000"
 5700      656E7365 
 5700      5F73616D 
 5700      706C6543 
 5700      6C6B4469 
 5701              	.LASF34:
 5702 00cf 696E7465 		.ascii	"interruptState\000"
 5702      72727570 
 5702      74537461 
 5702      746500
 5703              	.LASF15:
 5704 00de 72656738 		.ascii	"reg8\000"
 5704      00
 5705              	.LASF96:
 5706 00e3 43617053 		.ascii	"CapSense_Start\000"
 5706      656E7365 
 5706      5F537461 
 5706      727400
 5707              	.LASF70:
 5708 00f2 43617053 		.ascii	"CapSense_ScanWidget\000"
 5708      656E7365 
 5708      5F536361 
 5708      6E576964 
ARM GAS  C:\Users\merlin\AppData\Local\Temp\ccZOZwzR.s 			page 143


 5708      67657400 
 5709              	.LASF33:
 5710 0106 70696E48 		.ascii	"pinHSIOMShift\000"
 5710      53494F4D 
 5710      53686966 
 5710      7400
 5711              	.LASF74:
 5712 0114 43617053 		.ascii	"CapSense_SetSenseClkDivider\000"
 5712      656E7365 
 5712      5F536574 
 5712      53656E73 
 5712      65436C6B 
 5713              	.LASF122:
 5714 0130 4379496E 		.ascii	"CyIntDisable\000"
 5714      74446973 
 5714      61626C65 
 5714      00
 5715              	.LASF90:
 5716 013d 61766756 		.ascii	"avgVal\000"
 5716      616C00
 5717              	.LASF59:
 5718 0144 43617053 		.ascii	"CapSense_IsBusy\000"
 5718      656E7365 
 5718      5F497342 
 5718      75737900 
 5719              	.LASF32:
 5720 0154 70696E4D 		.ascii	"pinModeShift\000"
 5720      6F646553 
 5720      68696674 
 5720      00
 5721              	.LASF83:
 5722 0161 43617053 		.ascii	"CapSense_SetCompensationIDAC\000"
 5722      656E7365 
 5722      5F536574 
 5722      436F6D70 
 5722      656E7361 
 5723              	.LASF119:
 5724 017e 43617053 		.ascii	"CapSense_rawDataIndex\000"
 5724      656E7365 
 5724      5F726177 
 5724      44617461 
 5724      496E6465 
 5725              	.LASF37:
 5726 0194 43617053 		.ascii	"CapSense_DisableSensor\000"
 5726      656E7365 
 5726      5F446973 
 5726      61626C65 
 5726      53656E73 
 5727              	.LASF19:
 5728 01ab 43617053 		.ascii	"CapSense_CsdHwBlockInit\000"
 5728      656E7365 
 5728      5F437364 
 5728      4877426C 
 5728      6F636B49 
 5729              	.LASF38:
 5730 01c3 696E6163 		.ascii	"inactiveConnect\000"
 5730      74697665 
ARM GAS  C:\Users\merlin\AppData\Local\Temp\ccZOZwzR.s 			page 144


 5730      436F6E6E 
 5730      65637400 
 5731              	.LASF121:
 5732 01d3 43617053 		.ascii	"CapSense_csdTrim1\000"
 5732      656E7365 
 5732      5F637364 
 5732      5472696D 
 5732      3100
 5733              	.LASF22:
 5734 01e5 43617053 		.ascii	"CapSense_Stop\000"
 5734      656E7365 
 5734      5F53746F 
 5734      7000
 5735              	.LASF133:
 5736 01f3 2E5C4765 		.ascii	".\\Generated_Source\\PSoC4\\CapSense.c\000"
 5736      6E657261 
 5736      7465645F 
 5736      536F7572 
 5736      63655C50 
 5737              	.LASF112:
 5738 0217 43617053 		.ascii	"CapSense_prtSelTbl\000"
 5738      656E7365 
 5738      5F707274 
 5738      53656C54 
 5738      626C00
 5739              	.LASF40:
 5740 022a 43617053 		.ascii	"CapSense_ClearSensors\000"
 5740      656E7365 
 5740      5F436C65 
 5740      61725365 
 5740      6E736F72 
 5741              	.LASF114:
 5742 0240 43617053 		.ascii	"CapSense_prtDRTbl\000"
 5742      656E7365 
 5742      5F707274 
 5742      44525462 
 5742      6C00
 5743              	.LASF55:
 5744 0252 43617053 		.ascii	"CapSense_EnableShieldElectrode\000"
 5744      656E7365 
 5744      5F456E61 
 5744      626C6553 
 5744      6869656C 
 5745              	.LASF12:
 5746 0271 666C6F61 		.ascii	"float\000"
 5746      7400
 5747              	.LASF7:
 5748 0277 6C6F6E67 		.ascii	"long long unsigned int\000"
 5748      206C6F6E 
 5748      6720756E 
 5748      7369676E 
 5748      65642069 
 5749              	.LASF101:
 5750 028e 43617053 		.ascii	"CapSense_sensorIndex\000"
 5750      656E7365 
 5750      5F73656E 
 5750      736F7249 
ARM GAS  C:\Users\merlin\AppData\Local\Temp\ccZOZwzR.s 			page 145


 5750      6E646578 
 5751              	.LASF27:
 5752 02a3 77696467 		.ascii	"widget\000"
 5752      657400
 5753              	.LASF56:
 5754 02aa 43617053 		.ascii	"CapSense_SetShieldDelay\000"
 5754      656E7365 
 5754      5F536574 
 5754      53686965 
 5754      6C644465 
 5755              	.LASF111:
 5756 02c2 43617053 		.ascii	"CapSense_widgetNumber\000"
 5756      656E7365 
 5756      5F776964 
 5756      6765744E 
 5756      756D6265 
 5757              	.LASF113:
 5758 02d8 43617053 		.ascii	"CapSense_prtCfgTbl\000"
 5758      656E7365 
 5758      5F707274 
 5758      43666754 
 5758      626C00
 5759              	.LASF30:
 5760 02eb 43617053 		.ascii	"CapSense_GetScanResolution\000"
 5760      656E7365 
 5760      5F476574 
 5760      5363616E 
 5760      5265736F 
 5761              	.LASF78:
 5762 0306 6D6F6475 		.ascii	"modulatorClk\000"
 5762      6C61746F 
 5762      72436C6B 
 5762      00
 5763              	.LASF25:
 5764 0313 76616C75 		.ascii	"value\000"
 5764      6500
 5765              	.LASF35:
 5766 0319 6E657752 		.ascii	"newRegisterValue\000"
 5766      65676973 
 5766      74657256 
 5766      616C7565 
 5766      00
 5767              	.LASF23:
 5768 032a 43617053 		.ascii	"CapSense_WriteSensorRaw\000"
 5768      656E7365 
 5768      5F577269 
 5768      74655365 
 5768      6E736F72 
 5769              	.LASF109:
 5770 0342 43617053 		.ascii	"CapSense_senseClkDividerVal\000"
 5770      656E7365 
 5770      5F73656E 
 5770      7365436C 
 5770      6B446976 
 5771              	.LASF20:
 5772 035e 43617053 		.ascii	"CapSense_Enable\000"
 5772      656E7365 
ARM GAS  C:\Users\merlin\AppData\Local\Temp\ccZOZwzR.s 			page 146


 5772      5F456E61 
 5772      626C6500 
 5773              	.LASF39:
 5774 036e 73656E73 		.ascii	"sensorState\000"
 5774      6F725374 
 5774      61746500 
 5775              	.LASF51:
 5776 037a 43617053 		.ascii	"CapSense_PreScan\000"
 5776      656E7365 
 5776      5F507265 
 5776      5363616E 
 5776      00
 5777              	.LASF64:
 5778 038b 6F666673 		.ascii	"offset\000"
 5778      657400
 5779              	.LASF26:
 5780 0392 43617053 		.ascii	"CapSense_SetScanResolution\000"
 5780      656E7365 
 5780      5F536574 
 5780      5363616E 
 5780      5265736F 
 5781              	.LASF53:
 5782 03ad 43617053 		.ascii	"CapSense_ScanSensor\000"
 5782      656E7365 
 5782      5F536361 
 5782      6E53656E 
 5782      736F7200 
 5783              	.LASF92:
 5784 03c1 7261774C 		.ascii	"rawLevel\000"
 5784      6576656C 
 5784      00
 5785              	.LASF48:
 5786 03ca 7072744E 		.ascii	"prtNumberTmp\000"
 5786      756D6265 
 5786      72546D70 
 5786      00
 5787              	.LASF71:
 5788 03d7 73656E73 		.ascii	"sensorsPerWidget\000"
 5788      6F727350 
 5788      65725769 
 5788      64676574 
 5788      00
 5789              	.LASF97:
 5790 03e8 43617053 		.ascii	"CapSense_initVar\000"
 5790      656E7365 
 5790      5F696E69 
 5790      74566172 
 5790      00
 5791              	.LASF120:
 5792 03f9 43617053 		.ascii	"CapSense_numberOfSensors\000"
 5792      656E7365 
 5792      5F6E756D 
 5792      6265724F 
 5792      6653656E 
 5793              	.LASF89:
 5794 0412 63757253 		.ascii	"curSample\000"
 5794      616D706C 
ARM GAS  C:\Users\merlin\AppData\Local\Temp\ccZOZwzR.s 			page 147


 5794      6500
 5795              	.LASF24:
 5796 041c 73656E73 		.ascii	"sensor\000"
 5796      6F7200
 5797              	.LASF102:
 5798 0423 43617053 		.ascii	"CapSense_sensorRaw\000"
 5798      656E7365 
 5798      5F73656E 
 5798      736F7252 
 5798      617700
 5799              	.LASF14:
 5800 0436 63686172 		.ascii	"char\000"
 5800      00
 5801              	.LASF131:
 5802 043b 43794578 		.ascii	"CyExitCriticalSection\000"
 5802      69744372 
 5802      69746963 
 5802      616C5365 
 5802      6374696F 
 5803              	.LASF137:
 5804 0451 43794465 		.ascii	"CyDelayCycles\000"
 5804      6C617943 
 5804      79636C65 
 5804      7300
 5805              	.LASF62:
 5806 045f 7461626C 		.ascii	"table\000"
 5806      6500
 5807              	.LASF66:
 5808 0465 43617053 		.ascii	"CapSense_FindNextSensor\000"
 5808      656E7365 
 5808      5F46696E 
 5808      644E6578 
 5808      7453656E 
 5809              	.LASF115:
 5810 047d 43617053 		.ascii	"CapSense_pcTable\000"
 5810      656E7365 
 5810      5F706354 
 5810      61626C65 
 5810      00
 5811              	.LASF10:
 5812 048e 75696E74 		.ascii	"uint16\000"
 5812      313600
 5813              	.LASF135:
 5814 0495 4379496E 		.ascii	"CyIntSetVector\000"
 5814      74536574 
 5814      56656374 
 5814      6F7200
 5815              	.LASF28:
 5816 04a4 7265736F 		.ascii	"resolution\000"
 5816      6C757469 
 5816      6F6E00
 5817              	.LASF108:
 5818 04af 43617053 		.ascii	"CapSense_widgetResolution\000"
 5818      656E7365 
 5818      5F776964 
 5818      67657452 
 5818      65736F6C 
ARM GAS  C:\Users\merlin\AppData\Local\Temp\ccZOZwzR.s 			page 148


 5819              	.LASF49:
 5820 04c9 70696E4E 		.ascii	"pinNumberTmp\000"
 5820      756D6265 
 5820      72546D70 
 5820      00
 5821              	.LASF85:
 5822 04d6 43617053 		.ascii	"CapSense_GetIDACRange\000"
 5822      656E7365 
 5822      5F476574 
 5822      49444143 
 5822      52616E67 
 5823              	.LASF68:
 5824 04ec 43617053 		.ascii	"CapSense_ScanEnabledWidgets\000"
 5824      656E7365 
 5824      5F536361 
 5824      6E456E61 
 5824      626C6564 
 5825              	.LASF106:
 5826 0508 43617053 		.ascii	"CapSense_modulationIDAC\000"
 5826      656E7365 
 5826      5F6D6F64 
 5826      756C6174 
 5826      696F6E49 
 5827              	.LASF6:
 5828 0520 6C6F6E67 		.ascii	"long long int\000"
 5828      206C6F6E 
 5828      6720696E 
 5828      7400
 5829              	.LASF129:
 5830 052e 43617053 		.ascii	"CapSense_SenseClk_StartEx\000"
 5830      656E7365 
 5830      5F53656E 
 5830      7365436C 
 5830      6B5F5374 
 5831              	.LASF67:
 5832 0548 656E6162 		.ascii	"enableFlag\000"
 5832      6C65466C 
 5832      616700
 5833              	.LASF118:
 5834 0553 43617053 		.ascii	"CapSense_pinShiftTbl\000"
 5834      656E7365 
 5834      5F70696E 
 5834      53686966 
 5834      7454626C 
 5835              	.LASF31:
 5836 0568 43617053 		.ascii	"CapSense_EnableSensor\000"
 5836      656E7365 
 5836      5F456E61 
 5836      626C6553 
 5836      656E736F 
 5837              	.LASF77:
 5838 057e 43617053 		.ascii	"CapSense_SetModulatorClkDivider\000"
 5838      656E7365 
 5838      5F536574 
 5838      4D6F6475 
 5838      6C61746F 
 5839              	.LASF103:
ARM GAS  C:\Users\merlin\AppData\Local\Temp\ccZOZwzR.s 			page 149


 5840 059e 43617053 		.ascii	"CapSense_unscannedSnsDriveMode\000"
 5840      656E7365 
 5840      5F756E73 
 5840      63616E6E 
 5840      6564536E 
 5841              	.LASF17:
 5842 05bd 63796973 		.ascii	"cyisraddress\000"
 5842      72616464 
 5842      72657373 
 5842      00
 5843              	.LASF73:
 5844 05ca 43617053 		.ascii	"CapSense_GetSenseClkDivider\000"
 5844      656E7365 
 5844      5F476574 
 5844      53656E73 
 5844      65436C6B 
 5845              	.LASF11:
 5846 05e6 75696E74 		.ascii	"uint32\000"
 5846      333200
 5847              	.LASF94:
 5848 05ed 6D61736B 		.ascii	"mask\000"
 5848      00
 5849              	.LASF44:
 5850 05f2 70696E4E 		.ascii	"pinNumber\000"
 5850      756D6265 
 5850      7200
 5851              	.LASF41:
 5852 05fc 736E7349 		.ascii	"snsIndex\000"
 5852      6E646578 
 5852      00
 5853              	.LASF72:
 5854 0605 6C617374 		.ascii	"lastSensor\000"
 5854      53656E73 
 5854      6F7200
 5855              	.LASF16:
 5856 0610 72656733 		.ascii	"reg32\000"
 5856      3200
 5857              	.LASF50:
 5858 0616 43617053 		.ascii	"CapSense_RestoreDriveModeAllPins\000"
 5858      656E7365 
 5858      5F526573 
 5858      746F7265 
 5858      44726976 
 5859              	.LASF124:
 5860 0637 43617053 		.ascii	"CapSense_SenseClk_Stop\000"
 5860      656E7365 
 5860      5F53656E 
 5860      7365436C 
 5860      6B5F5374 
 5861              	.LASF86:
 5862 064e 43617053 		.ascii	"CapSense_SetIDACRange\000"
 5862      656E7365 
 5862      5F536574 
 5862      49444143 
 5862      52616E67 
 5863              	.LASF45:
 5864 0664 706F7274 		.ascii	"portNumber\000"
ARM GAS  C:\Users\merlin\AppData\Local\Temp\ccZOZwzR.s 			page 150


 5864      4E756D62 
 5864      657200
 5865              	.LASF88:
 5866 066f 43617053 		.ascii	"CapSense_GetSensorRaw\000"
 5866      656E7365 
 5866      5F476574 
 5866      53656E73 
 5866      6F725261 
 5867              	.LASF58:
 5868 0685 43617053 		.ascii	"CapSense_Init\000"
 5868      656E7365 
 5868      5F496E69 
 5868      7400
 5869              	.LASF95:
 5870 0693 72617744 		.ascii	"rawData\000"
 5870      61746100 
 5871              	.LASF99:
 5872 069b 43617053 		.ascii	"CapSense_prescalersTuningDone\000"
 5872      656E7365 
 5872      5F707265 
 5872      7363616C 
 5872      65727354 
 5873              	.LASF75:
 5874 06b9 73656E73 		.ascii	"senseClk\000"
 5874      65436C6B 
 5874      00
 5875              	.LASF42:
 5876 06c2 43617053 		.ascii	"CapSense_SetPinDriveMode\000"
 5876      656E7365 
 5876      5F536574 
 5876      50696E44 
 5876      72697665 
 5877              	.LASF2:
 5878 06db 73686F72 		.ascii	"short int\000"
 5878      7420696E 
 5878      7400
 5879              	.LASF4:
 5880 06e5 6C6F6E67 		.ascii	"long int\000"
 5880      20696E74 
 5880      00
 5881              	.LASF57:
 5882 06ee 64656C61 		.ascii	"delay\000"
 5882      7900
 5883              	.LASF91:
 5884 06f4 43617053 		.ascii	"CapSense_CalibrateSensor\000"
 5884      656E7365 
 5884      5F43616C 
 5884      69627261 
 5884      74655365 
 5885              	.LASF60:
 5886 070d 43617053 		.ascii	"CapSense_ReadCurrentScanningSensor\000"
 5886      656E7365 
 5886      5F526561 
 5886      64437572 
 5886      72656E74 
 5887              	.LASF46:
 5888 0730 43617053 		.ascii	"CapSense_SetDriveModeAllPins\000"
ARM GAS  C:\Users\merlin\AppData\Local\Temp\ccZOZwzR.s 			page 151


 5888      656E7365 
 5888      5F536574 
 5888      44726976 
 5888      654D6F64 
 5889              	.LASF104:
 5890 074d 43617053 		.ascii	"CapSense_sensorEnableMaskBackup\000"
 5890      656E7365 
 5890      5F73656E 
 5890      736F7245 
 5890      6E61626C 
 5891              	.LASF98:
 5892 076d 43617053 		.ascii	"CapSense_SetUnscannedSensorState\000"
 5892      656E7365 
 5892      5F536574 
 5892      556E7363 
 5892      616E6E65 
 5893              	.LASF132:
 5894 078e 474E5520 		.ascii	"GNU C 4.9.3 20150303 (release) [ARM/embedded-4_9-br"
 5894      4320342E 
 5894      392E3320 
 5894      32303135 
 5894      30333033 
 5895 07c1 616E6368 		.ascii	"anch revision 221220] -mcpu=cortex-m0 -mthumb -g -O"
 5895      20726576 
 5895      6973696F 
 5895      6E203232 
 5895      31323230 
 5896 07f4 67202D66 		.ascii	"g -ffunction-sections -ffat-lto-objects\000"
 5896      66756E63 
 5896      74696F6E 
 5896      2D736563 
 5896      74696F6E 
 5897              	.LASF126:
 5898 081c 43617053 		.ascii	"CapSense_SampleClk_SetFractionalDividerRegister\000"
 5898      656E7365 
 5898      5F53616D 
 5898      706C6543 
 5898      6C6B5F53 
 5899              	.LASF76:
 5900 084c 43617053 		.ascii	"CapSense_GetModulatorClkDivider\000"
 5900      656E7365 
 5900      5F476574 
 5900      4D6F6475 
 5900      6C61746F 
 5901              	.LASF105:
 5902 086c 43617053 		.ascii	"CapSense_sensorEnableMask\000"
 5902      656E7365 
 5902      5F73656E 
 5902      736F7245 
 5902      6E61626C 
 5903              	.LASF87:
 5904 0886 69446163 		.ascii	"iDacRange\000"
 5904      52616E67 
 5904      6500
 5905              	.LASF116:
 5906 0890 43617053 		.ascii	"CapSense_portTable\000"
 5906      656E7365 
ARM GAS  C:\Users\merlin\AppData\Local\Temp\ccZOZwzR.s 			page 152


 5906      5F706F72 
 5906      74546162 
 5906      6C6500
 5907              	.LASF84:
 5908 08a3 636F6D70 		.ascii	"compIdacValue\000"
 5908      49646163 
 5908      56616C75 
 5908      6500
 5909              	.LASF125:
 5910 08b1 43617053 		.ascii	"CapSense_SampleClk_Stop\000"
 5910      656E7365 
 5910      5F53616D 
 5910      706C6543 
 5910      6C6B5F53 
 5911              	.LASF81:
 5912 08c9 6D6F6449 		.ascii	"modIdacValue\000"
 5912      64616356 
 5912      616C7565 
 5912      00
 5913              	.LASF18:
 5914 08d6 73697A65 		.ascii	"sizetype\000"
 5914      74797065 
 5914      00
 5915              	.LASF5:
 5916 08df 6C6F6E67 		.ascii	"long unsigned int\000"
 5916      20756E73 
 5916      69676E65 
 5916      6420696E 
 5916      7400
 5917              	.LASF36:
 5918 08f1 706F7274 		.ascii	"port\000"
 5918      00
 5919              	.LASF65:
 5920 08f6 656E4D61 		.ascii	"enMask\000"
 5920      736B00
 5921              	.LASF1:
 5922 08fd 756E7369 		.ascii	"unsigned char\000"
 5922      676E6564 
 5922      20636861 
 5922      7200
 5923              	.LASF52:
 5924 090b 636F756E 		.ascii	"counterResolution\000"
 5924      74657252 
 5924      65736F6C 
 5924      7574696F 
 5924      6E00
 5925              	.LASF29:
 5926 091d 43617053 		.ascii	"CapSense_ReadSensorRaw\000"
 5926      656E7365 
 5926      5F526561 
 5926      6453656E 
 5926      736F7252 
 5927              	.LASF80:
 5928 0934 43617053 		.ascii	"CapSense_SetModulationIDAC\000"
 5928      656E7365 
 5928      5F536574 
 5928      4D6F6475 
ARM GAS  C:\Users\merlin\AppData\Local\Temp\ccZOZwzR.s 			page 153


 5928      6C617469 
 5929              	.LASF128:
 5930 094f 43617053 		.ascii	"CapSense_SampleClk_StartEx\000"
 5930      656E7365 
 5930      5F53616D 
 5930      706C6543 
 5930      6C6B5F53 
 5931              	.LASF69:
 5932 096a 43617053 		.ascii	"CapSense_SetBitValue\000"
 5932      656E7365 
 5932      5F536574 
 5932      42697456 
 5932      616C7565 
 5933              	.LASF61:
 5934 097f 43617053 		.ascii	"CapSense_GetBitValue\000"
 5934      656E7365 
 5934      5F476574 
 5934      42697456 
 5934      616C7565 
 5935              	.LASF82:
 5936 0994 43617053 		.ascii	"CapSense_GetCompensationIDAC\000"
 5936      656E7365 
 5936      5F476574 
 5936      436F6D70 
 5936      656E7361 
 5937              	.LASF127:
 5938 09b1 43617053 		.ascii	"CapSense_SenseClk_SetFractionalDividerRegister\000"
 5938      656E7365 
 5938      5F53656E 
 5938      7365436C 
 5938      6B5F5365 
 5939              	.LASF130:
 5940 09e0 4379496E 		.ascii	"CyIntEnable\000"
 5940      74456E61 
 5940      626C6500 
 5941              	.LASF79:
 5942 09ec 43617053 		.ascii	"CapSense_GetModulationIDAC\000"
 5942      656E7365 
 5942      5F476574 
 5942      4D6F6475 
 5942      6C617469 
 5943              	.LASF136:
 5944 0a07 4379456E 		.ascii	"CyEnterCriticalSection\000"
 5944      74657243 
 5944      72697469 
 5944      63616C53 
 5944      65637469 
 5945              	.LASF0:
 5946 0a1e 7369676E 		.ascii	"signed char\000"
 5946      65642063 
 5946      68617200 
 5947              	.LASF3:
 5948 0a2a 73686F72 		.ascii	"short unsigned int\000"
 5948      7420756E 
 5948      7369676E 
 5948      65642069 
 5948      6E7400
ARM GAS  C:\Users\merlin\AppData\Local\Temp\ccZOZwzR.s 			page 154


 5949              	.LASF21:
 5950 0a3d 6E657752 		.ascii	"newRegValue\000"
 5950      65675661 
 5950      6C756500 
 5951              	.LASF9:
 5952 0a49 75696E74 		.ascii	"uint8\000"
 5952      3800
 5953              	.LASF13:
 5954 0a4f 646F7562 		.ascii	"double\000"
 5954      6C6500
 5955              	.LASF93:
 5956 0a56 69646163 		.ascii	"idacLevelsTbl\000"
 5956      4C657665 
 5956      6C735462 
 5956      6C00
 5957              	.LASF47:
 5958 0a64 63757253 		.ascii	"curSensor\000"
 5958      656E736F 
 5958      7200
 5959              	.LASF43:
 5960 0a6e 64726976 		.ascii	"driveMode\000"
 5960      654D6F64 
 5960      6500
 5961              	.LASF63:
 5962 0a78 706F7369 		.ascii	"position\000"
 5962      74696F6E 
 5962      00
 5963              		.ident	"GCC: (GNU Tools for ARM Embedded Processors) 4.9.3 20150303 (release) [ARM/embedded-4_9-br
