ARM GAS  C:\Users\merlin\AppData\Local\Temp\cchlGLBb.s 			page 1


   1              		.cpu cortex-m0
   2              		.fpu softvfp
   3              		.eabi_attribute 20, 1
   4              		.eabi_attribute 21, 1
   5              		.eabi_attribute 23, 3
   6              		.eabi_attribute 24, 1
   7              		.eabi_attribute 25, 1
   8              		.eabi_attribute 26, 1
   9              		.eabi_attribute 30, 1
  10              		.eabi_attribute 34, 0
  11              		.eabi_attribute 18, 4
  12              		.code	16
  13              		.file	"CapSense_CSHL.c"
  14              		.text
  15              	.Ltext0:
  16              		.cfi_sections	.debug_frame
  17              		.section	.text.CapSense_BaseInit,"ax",%progbits
  18              		.align	2
  19              		.global	CapSense_BaseInit
  20              		.code	16
  21              		.thumb_func
  22              		.type	CapSense_BaseInit, %function
  23              	CapSense_BaseInit:
  24              	.LFB34:
  25              		.file 1 ".\\Generated_Source\\PSoC4\\CapSense_CSHL.c"
   1:.\Generated_Source\PSoC4/CapSense_CSHL.c **** /*******************************************************************************
   2:.\Generated_Source\PSoC4/CapSense_CSHL.c **** * File Name: CapSense_CSHL.c
   3:.\Generated_Source\PSoC4/CapSense_CSHL.c **** * Version 2.10
   4:.\Generated_Source\PSoC4/CapSense_CSHL.c **** *
   5:.\Generated_Source\PSoC4/CapSense_CSHL.c **** * Description:
   6:.\Generated_Source\PSoC4/CapSense_CSHL.c **** *  This file provides the source code to the High Level APIs for the CapSesne
   7:.\Generated_Source\PSoC4/CapSense_CSHL.c **** *  CSD component.
   8:.\Generated_Source\PSoC4/CapSense_CSHL.c **** *
   9:.\Generated_Source\PSoC4/CapSense_CSHL.c **** * Note:
  10:.\Generated_Source\PSoC4/CapSense_CSHL.c **** *
  11:.\Generated_Source\PSoC4/CapSense_CSHL.c **** ********************************************************************************
  12:.\Generated_Source\PSoC4/CapSense_CSHL.c **** * Copyright 2014, Cypress Semiconductor Corporation.  All rights reserved.
  13:.\Generated_Source\PSoC4/CapSense_CSHL.c **** * You may use this file only in accordance with the license, terms, conditions,
  14:.\Generated_Source\PSoC4/CapSense_CSHL.c **** * disclaimers, and limitations in the end user license agreement accompanying
  15:.\Generated_Source\PSoC4/CapSense_CSHL.c **** * the software package with which this file was provided.
  16:.\Generated_Source\PSoC4/CapSense_CSHL.c **** *******************************************************************************/
  17:.\Generated_Source\PSoC4/CapSense_CSHL.c **** 
  18:.\Generated_Source\PSoC4/CapSense_CSHL.c **** #include "CapSense_CSHL.h"
  19:.\Generated_Source\PSoC4/CapSense_CSHL.c **** #include "CapSense_PVT.h"
  20:.\Generated_Source\PSoC4/CapSense_CSHL.c **** 
  21:.\Generated_Source\PSoC4/CapSense_CSHL.c **** /* SmartSense functions */
  22:.\Generated_Source\PSoC4/CapSense_CSHL.c **** #if (CapSense_TUNING_METHOD == CapSense__TUNING_AUTO)
  23:.\Generated_Source\PSoC4/CapSense_CSHL.c ****     extern void CapSense_UpdateThresholds(uint32 sensor);
  24:.\Generated_Source\PSoC4/CapSense_CSHL.c **** #endif /* (CapSense_TUNING_METHOD == CapSense__TUNING_AUTO) */
  25:.\Generated_Source\PSoC4/CapSense_CSHL.c **** 
  26:.\Generated_Source\PSoC4/CapSense_CSHL.c **** /* Storage of filters data */
  27:.\Generated_Source\PSoC4/CapSense_CSHL.c **** #if ( (0u != (CapSense_RAW_FILTER_MASK & CapSense_MEDIAN_FILTER)) || \
  28:.\Generated_Source\PSoC4/CapSense_CSHL.c ****       (0u != (CapSense_RAW_FILTER_MASK & CapSense_AVERAGING_FILTER)) )
  29:.\Generated_Source\PSoC4/CapSense_CSHL.c **** 
  30:.\Generated_Source\PSoC4/CapSense_CSHL.c ****     uint16 CapSense_rawFilterData1[CapSense_TOTAL_SENSOR_COUNT];
  31:.\Generated_Source\PSoC4/CapSense_CSHL.c ****     uint16 CapSense_rawFilterData2[CapSense_TOTAL_SENSOR_COUNT];
  32:.\Generated_Source\PSoC4/CapSense_CSHL.c **** 
ARM GAS  C:\Users\merlin\AppData\Local\Temp\cchlGLBb.s 			page 2


  33:.\Generated_Source\PSoC4/CapSense_CSHL.c **** #elif ( (0u != (CapSense_RAW_FILTER_MASK & CapSense_IIR2_FILTER))   || \
  34:.\Generated_Source\PSoC4/CapSense_CSHL.c ****         (0u != (CapSense_RAW_FILTER_MASK & CapSense_IIR4_FILTER))   || \
  35:.\Generated_Source\PSoC4/CapSense_CSHL.c ****         (0u != (CapSense_RAW_FILTER_MASK & CapSense_JITTER_FILTER)) || \
  36:.\Generated_Source\PSoC4/CapSense_CSHL.c ****         (0u != (CapSense_RAW_FILTER_MASK & CapSense_IIR8_FILTER))   || \
  37:.\Generated_Source\PSoC4/CapSense_CSHL.c ****         (0u != (CapSense_RAW_FILTER_MASK & CapSense_IIR16_FILTER)) )
  38:.\Generated_Source\PSoC4/CapSense_CSHL.c ****         
  39:.\Generated_Source\PSoC4/CapSense_CSHL.c ****     uint16 CapSense_rawFilterData1[CapSense_TOTAL_SENSOR_COUNT];
  40:.\Generated_Source\PSoC4/CapSense_CSHL.c **** #endif  /* ( (CapSense_RAW_FILTER_MASK & CapSense_MEDIAN_FILTER) || \
  41:.\Generated_Source\PSoC4/CapSense_CSHL.c ****         *    (CapSense_RAW_FILTER_MASK & CapSense_AVERAGING_FILTER) )
  42:.\Generated_Source\PSoC4/CapSense_CSHL.c ****         */
  43:.\Generated_Source\PSoC4/CapSense_CSHL.c **** 
  44:.\Generated_Source\PSoC4/CapSense_CSHL.c **** extern uint16 CapSense_sensorRaw[CapSense_TOTAL_SENSOR_COUNT];
  45:.\Generated_Source\PSoC4/CapSense_CSHL.c **** extern uint8 CapSense_sensorEnableMask[CapSense_TOTAL_SENSOR_MASK];
  46:.\Generated_Source\PSoC4/CapSense_CSHL.c **** extern const uint8 CapSense_widgetNumber[CapSense_TOTAL_SENSOR_COUNT];
  47:.\Generated_Source\PSoC4/CapSense_CSHL.c **** 
  48:.\Generated_Source\PSoC4/CapSense_CSHL.c **** #if (CapSense_TUNING_METHOD != CapSense__TUNING_NONE)
  49:.\Generated_Source\PSoC4/CapSense_CSHL.c **** 	extern uint32 CapSense_widgetResolution[CapSense_RESOLUTIONS_TBL_SIZE];	
  50:.\Generated_Source\PSoC4/CapSense_CSHL.c **** #endif /* (CapSense_TUNING_METHOD != CapSense__TUNING_NONE) */
  51:.\Generated_Source\PSoC4/CapSense_CSHL.c **** 
  52:.\Generated_Source\PSoC4/CapSense_CSHL.c **** uint16 CapSense_sensorBaseline[CapSense_TOTAL_SENSOR_COUNT] = {0u};
  53:.\Generated_Source\PSoC4/CapSense_CSHL.c **** uint8 CapSense_sensorBaselineLow[CapSense_TOTAL_SENSOR_COUNT] = {0u};
  54:.\Generated_Source\PSoC4/CapSense_CSHL.c **** uint16 CapSense_sensorSignal[CapSense_TOTAL_SENSOR_COUNT] = {0u};
  55:.\Generated_Source\PSoC4/CapSense_CSHL.c **** uint8 CapSense_sensorOnMask[CapSense_TOTAL_SENSOR_MASK] = {0u};
  56:.\Generated_Source\PSoC4/CapSense_CSHL.c **** 
  57:.\Generated_Source\PSoC4/CapSense_CSHL.c **** uint8 CapSense_lowBaselineResetCnt[CapSense_TOTAL_SENSOR_COUNT];
  58:.\Generated_Source\PSoC4/CapSense_CSHL.c **** uint8 CapSense_lowBaselineReset[CapSense_TOTAL_SENSOR_COUNT] = {
  59:.\Generated_Source\PSoC4/CapSense_CSHL.c ****     5u, 
  60:.\Generated_Source\PSoC4/CapSense_CSHL.c **** };
  61:.\Generated_Source\PSoC4/CapSense_CSHL.c **** 
  62:.\Generated_Source\PSoC4/CapSense_CSHL.c **** 
  63:.\Generated_Source\PSoC4/CapSense_CSHL.c **** 
  64:.\Generated_Source\PSoC4/CapSense_CSHL.c **** #if (CapSense_TUNING_METHOD == CapSense__TUNING_AUTO)
  65:.\Generated_Source\PSoC4/CapSense_CSHL.c **** 	extern CapSense_CONFIG_TYPE_P4_v2_20 CapSense_config;
  66:.\Generated_Source\PSoC4/CapSense_CSHL.c **** #endif  /* (CapSense_TUNING_METHOD == CapSense__TUNING_AUTO) */
  67:.\Generated_Source\PSoC4/CapSense_CSHL.c **** 
  68:.\Generated_Source\PSoC4/CapSense_CSHL.c **** #if (CapSense_RAW_FILTER_MASK != 0u)
  69:.\Generated_Source\PSoC4/CapSense_CSHL.c **** uint8 CapSense_enableRawFilters = CapSense_RAW_FILTERS_ENABLED;
  70:.\Generated_Source\PSoC4/CapSense_CSHL.c **** #endif  /* (CapSense_RAW_FILTER_MASK != 0u) */
  71:.\Generated_Source\PSoC4/CapSense_CSHL.c **** 
  72:.\Generated_Source\PSoC4/CapSense_CSHL.c **** /* Generated by Customizer */
  73:.\Generated_Source\PSoC4/CapSense_CSHL.c **** uint16 CapSense_fingerThreshold[] = {
  74:.\Generated_Source\PSoC4/CapSense_CSHL.c ****     200u, 
  75:.\Generated_Source\PSoC4/CapSense_CSHL.c **** };
  76:.\Generated_Source\PSoC4/CapSense_CSHL.c **** 
  77:.\Generated_Source\PSoC4/CapSense_CSHL.c **** uint16 CapSense_noiseThreshold[] = {
  78:.\Generated_Source\PSoC4/CapSense_CSHL.c ****     100u, 
  79:.\Generated_Source\PSoC4/CapSense_CSHL.c **** };
  80:.\Generated_Source\PSoC4/CapSense_CSHL.c **** 
  81:.\Generated_Source\PSoC4/CapSense_CSHL.c **** uint16 CapSense_negativeNoiseThreshold[] = {
  82:.\Generated_Source\PSoC4/CapSense_CSHL.c ****     20u, 
  83:.\Generated_Source\PSoC4/CapSense_CSHL.c **** };
  84:.\Generated_Source\PSoC4/CapSense_CSHL.c **** 
  85:.\Generated_Source\PSoC4/CapSense_CSHL.c **** uint16 CapSense_hysteresis[] = {
  86:.\Generated_Source\PSoC4/CapSense_CSHL.c ****     25u, 
  87:.\Generated_Source\PSoC4/CapSense_CSHL.c **** };
  88:.\Generated_Source\PSoC4/CapSense_CSHL.c **** 
  89:.\Generated_Source\PSoC4/CapSense_CSHL.c **** uint8 CapSense_debounce[] = {
ARM GAS  C:\Users\merlin\AppData\Local\Temp\cchlGLBb.s 			page 3


  90:.\Generated_Source\PSoC4/CapSense_CSHL.c ****     2u, 
  91:.\Generated_Source\PSoC4/CapSense_CSHL.c **** };
  92:.\Generated_Source\PSoC4/CapSense_CSHL.c **** 
  93:.\Generated_Source\PSoC4/CapSense_CSHL.c **** static uint8 CapSense_debounceCounter[] = {
  94:.\Generated_Source\PSoC4/CapSense_CSHL.c ****     0u, 0u, 
  95:.\Generated_Source\PSoC4/CapSense_CSHL.c **** };
  96:.\Generated_Source\PSoC4/CapSense_CSHL.c **** 
  97:.\Generated_Source\PSoC4/CapSense_CSHL.c **** const uint8 CapSense_rawDataIndex[] = {
  98:.\Generated_Source\PSoC4/CapSense_CSHL.c ****     0u, /* ProximitySensor__PROX */
  99:.\Generated_Source\PSoC4/CapSense_CSHL.c **** };
 100:.\Generated_Source\PSoC4/CapSense_CSHL.c **** 
 101:.\Generated_Source\PSoC4/CapSense_CSHL.c **** const uint8 CapSense_numberOfSensors[] = {
 102:.\Generated_Source\PSoC4/CapSense_CSHL.c ****     1u, /* ProximitySensor__PROX */
 103:.\Generated_Source\PSoC4/CapSense_CSHL.c **** };
 104:.\Generated_Source\PSoC4/CapSense_CSHL.c **** 
 105:.\Generated_Source\PSoC4/CapSense_CSHL.c **** 
 106:.\Generated_Source\PSoC4/CapSense_CSHL.c **** 
 107:.\Generated_Source\PSoC4/CapSense_CSHL.c **** 
 108:.\Generated_Source\PSoC4/CapSense_CSHL.c **** /*******************************************************************************
 109:.\Generated_Source\PSoC4/CapSense_CSHL.c **** * Function Name: CapSense_BaseInit
 110:.\Generated_Source\PSoC4/CapSense_CSHL.c **** ********************************************************************************
 111:.\Generated_Source\PSoC4/CapSense_CSHL.c **** *
 112:.\Generated_Source\PSoC4/CapSense_CSHL.c **** * Summary:
 113:.\Generated_Source\PSoC4/CapSense_CSHL.c **** *  Loads the CapSense_sensorBaseline[sensor] array element with an 
 114:.\Generated_Source\PSoC4/CapSense_CSHL.c **** *  initial value which is equal to the raw count value. 
 115:.\Generated_Source\PSoC4/CapSense_CSHL.c **** *  Resets to zero CapSense_sensorBaselineLow[sensor] and 
 116:.\Generated_Source\PSoC4/CapSense_CSHL.c **** *  CapSense_sensorSignal[sensor] array element.
 117:.\Generated_Source\PSoC4/CapSense_CSHL.c **** *  Loads the CapSense_rawFilterData2[sensor] and 
 118:.\Generated_Source\PSoC4/CapSense_CSHL.c **** *  CapSense_rawFilterData2[sensor] array element with an 
 119:.\Generated_Source\PSoC4/CapSense_CSHL.c **** *  initial value which is equal to the raw count value if the raw data filter is enabled.
 120:.\Generated_Source\PSoC4/CapSense_CSHL.c **** *
 121:.\Generated_Source\PSoC4/CapSense_CSHL.c **** * Parameters:
 122:.\Generated_Source\PSoC4/CapSense_CSHL.c **** *  sensor:  Sensor number.
 123:.\Generated_Source\PSoC4/CapSense_CSHL.c **** *
 124:.\Generated_Source\PSoC4/CapSense_CSHL.c **** * Return:
 125:.\Generated_Source\PSoC4/CapSense_CSHL.c **** *  None
 126:.\Generated_Source\PSoC4/CapSense_CSHL.c **** *
 127:.\Generated_Source\PSoC4/CapSense_CSHL.c **** * Global Variables:
 128:.\Generated_Source\PSoC4/CapSense_CSHL.c **** *  CapSense_sensorBaseline[]    - used to store the baseline value.
 129:.\Generated_Source\PSoC4/CapSense_CSHL.c **** *  CapSense_sensorBaselineLow[] - used to store the fraction byte of 
 130:.\Generated_Source\PSoC4/CapSense_CSHL.c **** *  the baseline value.
 131:.\Generated_Source\PSoC4/CapSense_CSHL.c **** *  CapSense_sensorSignal[]      - used to store a difference between 
 132:.\Generated_Source\PSoC4/CapSense_CSHL.c **** *  the current value of raw data and the previous value of the baseline.
 133:.\Generated_Source\PSoC4/CapSense_CSHL.c **** *  CapSense_rawFilterData1[]    - used to store a previous sample of 
 134:.\Generated_Source\PSoC4/CapSense_CSHL.c **** *  any enabled raw data filter.
 135:.\Generated_Source\PSoC4/CapSense_CSHL.c **** *  CapSense_rawFilterData2[]    - used to store before a previous sample
 136:.\Generated_Source\PSoC4/CapSense_CSHL.c **** *  of the enabled raw data filter. Required only for median or average filters.
 137:.\Generated_Source\PSoC4/CapSense_CSHL.c **** *
 138:.\Generated_Source\PSoC4/CapSense_CSHL.c **** * Side Effects:
 139:.\Generated_Source\PSoC4/CapSense_CSHL.c **** *  None
 140:.\Generated_Source\PSoC4/CapSense_CSHL.c **** * 
 141:.\Generated_Source\PSoC4/CapSense_CSHL.c **** *******************************************************************************/
 142:.\Generated_Source\PSoC4/CapSense_CSHL.c **** void CapSense_BaseInit(uint32 sensor)
 143:.\Generated_Source\PSoC4/CapSense_CSHL.c **** {
  26              		.loc 1 143 0
  27              		.cfi_startproc
  28              	.LVL0:
ARM GAS  C:\Users\merlin\AppData\Local\Temp\cchlGLBb.s 			page 4


  29 0000 10B5     		push	{r4, lr}
  30              		.cfi_def_cfa_offset 8
  31              		.cfi_offset 4, -8
  32              		.cfi_offset 14, -4
 144:.\Generated_Source\PSoC4/CapSense_CSHL.c ****     #if ((CapSense_TOTAL_BUTTONS_COUNT) || (CapSense_TOTAL_MATRIX_BUTTONS_COUNT) || \
 145:.\Generated_Source\PSoC4/CapSense_CSHL.c ****          (CapSense_TOTAL_GENERICS_COUNT))
 146:.\Generated_Source\PSoC4/CapSense_CSHL.c ****         uint8 widget = CapSense_widgetNumber[sensor];
  33              		.loc 1 146 0
  34 0002 084B     		ldr	r3, .L2
  35 0004 1A5C     		ldrb	r2, [r3, r0]
  36              	.LVL1:
 147:.\Generated_Source\PSoC4/CapSense_CSHL.c ****     #endif /* ((CapSense_TOTAL_MATRIX_BUTTONS_COUNT) || (CapSense_TOTAL_MATRIX_BUTTONS_COUNT)) */
 148:.\Generated_Source\PSoC4/CapSense_CSHL.c ****     
 149:.\Generated_Source\PSoC4/CapSense_CSHL.c ****     #if (CapSense_TOTAL_MATRIX_BUTTONS_COUNT)
 150:.\Generated_Source\PSoC4/CapSense_CSHL.c ****         uint8 debounceIndex;
 151:.\Generated_Source\PSoC4/CapSense_CSHL.c ****     #endif  /* (CapSense_TOTAL_MATRIX_BUTTONS_COUNT) */
 152:.\Generated_Source\PSoC4/CapSense_CSHL.c ****     
 153:.\Generated_Source\PSoC4/CapSense_CSHL.c ****     #if (CapSense_TOTAL_GENERICS_COUNT)
 154:.\Generated_Source\PSoC4/CapSense_CSHL.c ****         /* Exclude generic widget */
 155:.\Generated_Source\PSoC4/CapSense_CSHL.c ****         if(widget < CapSense_END_OF_WIDGETS_INDEX)
 156:.\Generated_Source\PSoC4/CapSense_CSHL.c ****         {
 157:.\Generated_Source\PSoC4/CapSense_CSHL.c ****     #endif  /* CapSense_TOTAL_GENERICS_COUNT */
 158:.\Generated_Source\PSoC4/CapSense_CSHL.c ****     
 159:.\Generated_Source\PSoC4/CapSense_CSHL.c ****     /* Initialize Baseline */
 160:.\Generated_Source\PSoC4/CapSense_CSHL.c ****     CapSense_sensorBaseline[sensor] = CapSense_sensorRaw[sensor];
  37              		.loc 1 160 0
  38 0006 4300     		lsl	r3, r0, #1
  39 0008 0749     		ldr	r1, .L2+4
  40 000a 5C5A     		ldrh	r4, [r3, r1]
  41 000c 0749     		ldr	r1, .L2+8
  42 000e 5C52     		strh	r4, [r3, r1]
 161:.\Generated_Source\PSoC4/CapSense_CSHL.c ****     CapSense_sensorBaselineLow[sensor] = 0u;
  43              		.loc 1 161 0
  44 0010 0818     		add	r0, r1, r0
  45              	.LVL2:
  46 0012 0024     		mov	r4, #0
  47 0014 0471     		strb	r4, [r0, #4]
 162:.\Generated_Source\PSoC4/CapSense_CSHL.c ****     CapSense_sensorSignal[sensor] = 0u;
  48              		.loc 1 162 0
  49 0016 CB18     		add	r3, r1, r3
  50 0018 1C81     		strh	r4, [r3, #8]
 163:.\Generated_Source\PSoC4/CapSense_CSHL.c ****         
 164:.\Generated_Source\PSoC4/CapSense_CSHL.c ****     CapSense_debounceCounter[widget] =  CapSense_debounce[widget];
  51              		.loc 1 164 0
  52 001a 054B     		ldr	r3, .L2+12
  53 001c 9B5C     		ldrb	r3, [r3, r2]
  54 001e 8A18     		add	r2, r1, r2
  55              	.LVL3:
  56 0020 1373     		strb	r3, [r2, #12]
 165:.\Generated_Source\PSoC4/CapSense_CSHL.c **** 
 166:.\Generated_Source\PSoC4/CapSense_CSHL.c ****     
 167:.\Generated_Source\PSoC4/CapSense_CSHL.c ****     #if ((0u != (CapSense_RAW_FILTER_MASK & CapSense_MEDIAN_FILTER)) ||\
 168:.\Generated_Source\PSoC4/CapSense_CSHL.c ****          (0u != (CapSense_RAW_FILTER_MASK & CapSense_AVERAGING_FILTER)))
 169:.\Generated_Source\PSoC4/CapSense_CSHL.c **** 
 170:.\Generated_Source\PSoC4/CapSense_CSHL.c ****         CapSense_rawFilterData1[sensor] = CapSense_sensorRaw[sensor];
 171:.\Generated_Source\PSoC4/CapSense_CSHL.c ****         CapSense_rawFilterData2[sensor] = CapSense_sensorRaw[sensor];
 172:.\Generated_Source\PSoC4/CapSense_CSHL.c ****     
ARM GAS  C:\Users\merlin\AppData\Local\Temp\cchlGLBb.s 			page 5


 173:.\Generated_Source\PSoC4/CapSense_CSHL.c ****     #elif ((CapSense_RAW_FILTER_MASK & CapSense_IIR2_FILTER) ||\
 174:.\Generated_Source\PSoC4/CapSense_CSHL.c ****            (CapSense_RAW_FILTER_MASK & CapSense_IIR4_FILTER) ||\
 175:.\Generated_Source\PSoC4/CapSense_CSHL.c ****            (CapSense_RAW_FILTER_MASK & CapSense_JITTER_FILTER) ||\
 176:.\Generated_Source\PSoC4/CapSense_CSHL.c ****            (CapSense_RAW_FILTER_MASK & CapSense_IIR8_FILTER) ||\
 177:.\Generated_Source\PSoC4/CapSense_CSHL.c ****            (CapSense_RAW_FILTER_MASK & CapSense_IIR16_FILTER))
 178:.\Generated_Source\PSoC4/CapSense_CSHL.c ****             
 179:.\Generated_Source\PSoC4/CapSense_CSHL.c ****         CapSense_rawFilterData1[sensor] = CapSense_sensorRaw[sensor];
 180:.\Generated_Source\PSoC4/CapSense_CSHL.c ****     
 181:.\Generated_Source\PSoC4/CapSense_CSHL.c ****     #else
 182:.\Generated_Source\PSoC4/CapSense_CSHL.c ****         /* No Raw filters */
 183:.\Generated_Source\PSoC4/CapSense_CSHL.c ****     #endif  /* ((CapSense_RAW_FILTER_MASK & CapSense_MEDIAN_FILTER) || \
 184:.\Generated_Source\PSoC4/CapSense_CSHL.c ****             *   (CapSense_RAW_FILTER_MASK & CapSense_AVERAGING_FILTER))
 185:.\Generated_Source\PSoC4/CapSense_CSHL.c ****             */
 186:.\Generated_Source\PSoC4/CapSense_CSHL.c ****     
 187:.\Generated_Source\PSoC4/CapSense_CSHL.c ****     #if (CapSense_TOTAL_GENERICS_COUNT)
 188:.\Generated_Source\PSoC4/CapSense_CSHL.c ****         /* Exclude generic widget */
 189:.\Generated_Source\PSoC4/CapSense_CSHL.c ****         }
 190:.\Generated_Source\PSoC4/CapSense_CSHL.c ****     #endif  /* CapSense_TOTAL_GENERICS_COUNT */
 191:.\Generated_Source\PSoC4/CapSense_CSHL.c **** }
  57              		.loc 1 191 0
  58              		@ sp needed
  59 0022 10BD     		pop	{r4, pc}
  60              	.L3:
  61              		.align	2
  62              	.L2:
  63 0024 00000000 		.word	CapSense_widgetNumber
  64 0028 00000000 		.word	CapSense_sensorRaw
  65 002c 00000000 		.word	.LANCHOR0
  66 0030 00000000 		.word	.LANCHOR1
  67              		.cfi_endproc
  68              	.LFE34:
  69              		.size	CapSense_BaseInit, .-CapSense_BaseInit
  70              		.section	.text.CapSense_InitializeSensorBaseline,"ax",%progbits
  71              		.align	2
  72              		.global	CapSense_InitializeSensorBaseline
  73              		.code	16
  74              		.thumb_func
  75              		.type	CapSense_InitializeSensorBaseline, %function
  76              	CapSense_InitializeSensorBaseline:
  77              	.LFB35:
 192:.\Generated_Source\PSoC4/CapSense_CSHL.c **** 
 193:.\Generated_Source\PSoC4/CapSense_CSHL.c **** 
 194:.\Generated_Source\PSoC4/CapSense_CSHL.c **** /*******************************************************************************
 195:.\Generated_Source\PSoC4/CapSense_CSHL.c **** * Function Name: CapSense_InitializeSensorBaseline
 196:.\Generated_Source\PSoC4/CapSense_CSHL.c **** ********************************************************************************
 197:.\Generated_Source\PSoC4/CapSense_CSHL.c **** *
 198:.\Generated_Source\PSoC4/CapSense_CSHL.c **** * Summary:
 199:.\Generated_Source\PSoC4/CapSense_CSHL.c **** *  Loads the CapSense_sensorBaseline[sensor] array element with an 
 200:.\Generated_Source\PSoC4/CapSense_CSHL.c **** *  initial value by scanning the selected sensor (one channel design) or a pair 
 201:.\Generated_Source\PSoC4/CapSense_CSHL.c **** *  of sensors (two channels designs). The raw count value is copied into the 
 202:.\Generated_Source\PSoC4/CapSense_CSHL.c **** *  baseline array for each sensor. The raw data filters are initialized if 
 203:.\Generated_Source\PSoC4/CapSense_CSHL.c **** *  enabled.
 204:.\Generated_Source\PSoC4/CapSense_CSHL.c **** *
 205:.\Generated_Source\PSoC4/CapSense_CSHL.c **** * Parameters:
 206:.\Generated_Source\PSoC4/CapSense_CSHL.c **** *  sensor:  Sensor number.
 207:.\Generated_Source\PSoC4/CapSense_CSHL.c **** *
 208:.\Generated_Source\PSoC4/CapSense_CSHL.c **** * Return:
ARM GAS  C:\Users\merlin\AppData\Local\Temp\cchlGLBb.s 			page 6


 209:.\Generated_Source\PSoC4/CapSense_CSHL.c **** *  None
 210:.\Generated_Source\PSoC4/CapSense_CSHL.c **** *
 211:.\Generated_Source\PSoC4/CapSense_CSHL.c **** * Global Variables:
 212:.\Generated_Source\PSoC4/CapSense_CSHL.c **** *  None
 213:.\Generated_Source\PSoC4/CapSense_CSHL.c **** *
 214:.\Generated_Source\PSoC4/CapSense_CSHL.c **** * Side Effects:
 215:.\Generated_Source\PSoC4/CapSense_CSHL.c **** *  None
 216:.\Generated_Source\PSoC4/CapSense_CSHL.c **** * 
 217:.\Generated_Source\PSoC4/CapSense_CSHL.c **** *******************************************************************************/
 218:.\Generated_Source\PSoC4/CapSense_CSHL.c **** void CapSense_InitializeSensorBaseline(uint32 sensor)
 219:.\Generated_Source\PSoC4/CapSense_CSHL.c **** {
  78              		.loc 1 219 0
  79              		.cfi_startproc
  80              	.LVL4:
  81 0000 10B5     		push	{r4, lr}
  82              		.cfi_def_cfa_offset 8
  83              		.cfi_offset 4, -8
  84              		.cfi_offset 14, -4
  85 0002 041C     		mov	r4, r0
 220:.\Generated_Source\PSoC4/CapSense_CSHL.c ****     /* Scan sensor */
 221:.\Generated_Source\PSoC4/CapSense_CSHL.c ****     CapSense_ScanSensor(sensor);
  86              		.loc 1 221 0
  87 0004 FFF7FEFF 		bl	CapSense_ScanSensor
  88              	.LVL5:
  89              	.L5:
 222:.\Generated_Source\PSoC4/CapSense_CSHL.c ****     while(CapSense_IsBusy() != 0u)
  90              		.loc 1 222 0 discriminator 1
  91 0008 FFF7FEFF 		bl	CapSense_IsBusy
  92              	.LVL6:
  93 000c 0028     		cmp	r0, #0
  94 000e FBD1     		bne	.L5
 223:.\Generated_Source\PSoC4/CapSense_CSHL.c ****     {
 224:.\Generated_Source\PSoC4/CapSense_CSHL.c ****         /* Wait while sensor is busy */
 225:.\Generated_Source\PSoC4/CapSense_CSHL.c ****     }
 226:.\Generated_Source\PSoC4/CapSense_CSHL.c ****     
 227:.\Generated_Source\PSoC4/CapSense_CSHL.c ****     /* Initialize Baseline, Signal and debounce counters */       
 228:.\Generated_Source\PSoC4/CapSense_CSHL.c ****     CapSense_BaseInit(sensor);
  95              		.loc 1 228 0
  96 0010 201C     		mov	r0, r4
  97 0012 FFF7FEFF 		bl	CapSense_BaseInit
  98              	.LVL7:
 229:.\Generated_Source\PSoC4/CapSense_CSHL.c **** }
  99              		.loc 1 229 0
 100              		@ sp needed
 101              	.LVL8:
 102 0016 10BD     		pop	{r4, pc}
 103              		.cfi_endproc
 104              	.LFE35:
 105              		.size	CapSense_InitializeSensorBaseline, .-CapSense_InitializeSensorBaseline
 106              		.section	.text.CapSense_InitializeAllBaselines,"ax",%progbits
 107              		.align	2
 108              		.global	CapSense_InitializeAllBaselines
 109              		.code	16
 110              		.thumb_func
 111              		.type	CapSense_InitializeAllBaselines, %function
 112              	CapSense_InitializeAllBaselines:
 113              	.LFB36:
ARM GAS  C:\Users\merlin\AppData\Local\Temp\cchlGLBb.s 			page 7


 230:.\Generated_Source\PSoC4/CapSense_CSHL.c **** 
 231:.\Generated_Source\PSoC4/CapSense_CSHL.c **** 
 232:.\Generated_Source\PSoC4/CapSense_CSHL.c **** /*******************************************************************************
 233:.\Generated_Source\PSoC4/CapSense_CSHL.c **** * Function Name: CapSense_InitializeAllBaselines
 234:.\Generated_Source\PSoC4/CapSense_CSHL.c **** ********************************************************************************
 235:.\Generated_Source\PSoC4/CapSense_CSHL.c **** *
 236:.\Generated_Source\PSoC4/CapSense_CSHL.c **** * Summary:
 237:.\Generated_Source\PSoC4/CapSense_CSHL.c **** *  Uses the CapSense_InitializeSensorBaseline function to load the 
 238:.\Generated_Source\PSoC4/CapSense_CSHL.c **** *  CapSense_sensorBaseline[] array with an initial values by scanning 
 239:.\Generated_Source\PSoC4/CapSense_CSHL.c **** *  all the sensors. The raw count values are copied into the baseline array for 
 240:.\Generated_Source\PSoC4/CapSense_CSHL.c **** *  all the sensors. The raw data filters are initialized if enabled.
 241:.\Generated_Source\PSoC4/CapSense_CSHL.c **** *
 242:.\Generated_Source\PSoC4/CapSense_CSHL.c **** * Parameters:
 243:.\Generated_Source\PSoC4/CapSense_CSHL.c **** *  None
 244:.\Generated_Source\PSoC4/CapSense_CSHL.c **** *
 245:.\Generated_Source\PSoC4/CapSense_CSHL.c **** * Return:
 246:.\Generated_Source\PSoC4/CapSense_CSHL.c **** *  None
 247:.\Generated_Source\PSoC4/CapSense_CSHL.c **** *
 248:.\Generated_Source\PSoC4/CapSense_CSHL.c **** * Global Variables:
 249:.\Generated_Source\PSoC4/CapSense_CSHL.c **** *  None
 250:.\Generated_Source\PSoC4/CapSense_CSHL.c **** *
 251:.\Generated_Source\PSoC4/CapSense_CSHL.c **** * Side Effects:
 252:.\Generated_Source\PSoC4/CapSense_CSHL.c **** *  None
 253:.\Generated_Source\PSoC4/CapSense_CSHL.c **** * 
 254:.\Generated_Source\PSoC4/CapSense_CSHL.c **** *******************************************************************************/
 255:.\Generated_Source\PSoC4/CapSense_CSHL.c **** void CapSense_InitializeAllBaselines(void)
 256:.\Generated_Source\PSoC4/CapSense_CSHL.c **** {
 114              		.loc 1 256 0
 115              		.cfi_startproc
 116 0000 10B5     		push	{r4, lr}
 117              		.cfi_def_cfa_offset 8
 118              		.cfi_offset 4, -8
 119              		.cfi_offset 14, -4
 120              	.LVL9:
 257:.\Generated_Source\PSoC4/CapSense_CSHL.c ****     uint32 i;
 258:.\Generated_Source\PSoC4/CapSense_CSHL.c ****     
 259:.\Generated_Source\PSoC4/CapSense_CSHL.c **** 	for(i = 0u; i < CapSense_TOTAL_SCANSLOT_COUNT; i++)
 121              		.loc 1 259 0
 122 0002 0024     		mov	r4, #0
 123 0004 03E0     		b	.L7
 124              	.LVL10:
 125              	.L8:
 260:.\Generated_Source\PSoC4/CapSense_CSHL.c **** 	{
 261:.\Generated_Source\PSoC4/CapSense_CSHL.c ****     	CapSense_InitializeSensorBaseline(i);
 126              		.loc 1 261 0 discriminator 3
 127 0006 201C     		mov	r0, r4
 128 0008 FFF7FEFF 		bl	CapSense_InitializeSensorBaseline
 129              	.LVL11:
 259:.\Generated_Source\PSoC4/CapSense_CSHL.c **** 	{
 130              		.loc 1 259 0 discriminator 3
 131 000c 0134     		add	r4, r4, #1
 132              	.LVL12:
 133              	.L7:
 259:.\Generated_Source\PSoC4/CapSense_CSHL.c **** 	{
 134              		.loc 1 259 0 is_stmt 0 discriminator 1
 135 000e 002C     		cmp	r4, #0
 136 0010 F9D0     		beq	.L8
ARM GAS  C:\Users\merlin\AppData\Local\Temp\cchlGLBb.s 			page 8


 262:.\Generated_Source\PSoC4/CapSense_CSHL.c **** 	}
 263:.\Generated_Source\PSoC4/CapSense_CSHL.c **** }
 137              		.loc 1 263 0 is_stmt 1
 138              		@ sp needed
 139              	.LVL13:
 140 0012 10BD     		pop	{r4, pc}
 141              		.cfi_endproc
 142              	.LFE36:
 143              		.size	CapSense_InitializeAllBaselines, .-CapSense_InitializeAllBaselines
 144              		.section	.text.CapSense_InitializeEnabledBaselines,"ax",%progbits
 145              		.align	2
 146              		.global	CapSense_InitializeEnabledBaselines
 147              		.code	16
 148              		.thumb_func
 149              		.type	CapSense_InitializeEnabledBaselines, %function
 150              	CapSense_InitializeEnabledBaselines:
 151              	.LFB37:
 264:.\Generated_Source\PSoC4/CapSense_CSHL.c **** 
 265:.\Generated_Source\PSoC4/CapSense_CSHL.c **** 
 266:.\Generated_Source\PSoC4/CapSense_CSHL.c **** /*******************************************************************************
 267:.\Generated_Source\PSoC4/CapSense_CSHL.c **** * Function Name: CapSense_InitializeEnabledBaselines
 268:.\Generated_Source\PSoC4/CapSense_CSHL.c **** ********************************************************************************
 269:.\Generated_Source\PSoC4/CapSense_CSHL.c **** *
 270:.\Generated_Source\PSoC4/CapSense_CSHL.c **** * Summary:
 271:.\Generated_Source\PSoC4/CapSense_CSHL.c **** *  Scans all the enabled widgets and the raw count values are copied into the 
 272:.\Generated_Source\PSoC4/CapSense_CSHL.c **** *  baseline array for all the sensors enabled in the scanning process. The baselines 
 273:.\Generated_Source\PSoC4/CapSense_CSHL.c **** *  are initialized with zero values for sensors disabled from the scanning process. 
 274:.\Generated_Source\PSoC4/CapSense_CSHL.c **** *  The raw data filters are initialized if enabled.
 275:.\Generated_Source\PSoC4/CapSense_CSHL.c **** *
 276:.\Generated_Source\PSoC4/CapSense_CSHL.c **** * Parameters:
 277:.\Generated_Source\PSoC4/CapSense_CSHL.c **** *  None
 278:.\Generated_Source\PSoC4/CapSense_CSHL.c **** *
 279:.\Generated_Source\PSoC4/CapSense_CSHL.c **** * Return:
 280:.\Generated_Source\PSoC4/CapSense_CSHL.c **** *  None
 281:.\Generated_Source\PSoC4/CapSense_CSHL.c **** *
 282:.\Generated_Source\PSoC4/CapSense_CSHL.c **** * Global Variables:
 283:.\Generated_Source\PSoC4/CapSense_CSHL.c **** *  CapSense_sensorRaw[] - used to store the sensors raw data.
 284:.\Generated_Source\PSoC4/CapSense_CSHL.c **** *  CapSense_sensorEnableMask[ ] - used to store bit masks of the enabled sensors.
 285:.\Generated_Source\PSoC4/CapSense_CSHL.c **** *
 286:.\Generated_Source\PSoC4/CapSense_CSHL.c **** * Side Effects:
 287:.\Generated_Source\PSoC4/CapSense_CSHL.c **** *  None
 288:.\Generated_Source\PSoC4/CapSense_CSHL.c **** * 
 289:.\Generated_Source\PSoC4/CapSense_CSHL.c **** *******************************************************************************/
 290:.\Generated_Source\PSoC4/CapSense_CSHL.c **** void CapSense_InitializeEnabledBaselines(void)
 291:.\Generated_Source\PSoC4/CapSense_CSHL.c **** {
 152              		.loc 1 291 0
 153              		.cfi_startproc
 154 0000 10B5     		push	{r4, lr}
 155              		.cfi_def_cfa_offset 8
 156              		.cfi_offset 4, -8
 157              		.cfi_offset 14, -4
 292:.\Generated_Source\PSoC4/CapSense_CSHL.c ****     uint32 i;
 293:.\Generated_Source\PSoC4/CapSense_CSHL.c ****     uint32 isSensorEnabled;
 294:.\Generated_Source\PSoC4/CapSense_CSHL.c ****     
 295:.\Generated_Source\PSoC4/CapSense_CSHL.c ****     CapSense_ScanEnabledWidgets();
 158              		.loc 1 295 0
 159 0002 FFF7FEFF 		bl	CapSense_ScanEnabledWidgets
ARM GAS  C:\Users\merlin\AppData\Local\Temp\cchlGLBb.s 			page 9


 160              	.LVL14:
 161              	.L10:
 296:.\Generated_Source\PSoC4/CapSense_CSHL.c ****     while(CapSense_IsBusy() != 0u)
 162              		.loc 1 296 0 discriminator 1
 163 0006 FFF7FEFF 		bl	CapSense_IsBusy
 164              	.LVL15:
 165 000a 0028     		cmp	r0, #0
 166 000c FBD1     		bne	.L10
 167 000e 0024     		mov	r4, #0
 168 0010 09E0     		b	.L11
 169              	.LVL16:
 170              	.L13:
 297:.\Generated_Source\PSoC4/CapSense_CSHL.c ****     {
 298:.\Generated_Source\PSoC4/CapSense_CSHL.c ****         /* Wait while sensor is busy */
 299:.\Generated_Source\PSoC4/CapSense_CSHL.c ****     }
 300:.\Generated_Source\PSoC4/CapSense_CSHL.c ****     
 301:.\Generated_Source\PSoC4/CapSense_CSHL.c ****     for(i = 0u; i < CapSense_TOTAL_SENSOR_COUNT; i++)
 302:.\Generated_Source\PSoC4/CapSense_CSHL.c ****     {
 303:.\Generated_Source\PSoC4/CapSense_CSHL.c ****         isSensorEnabled = CapSense_GetBitValue(CapSense_sensorEnableMask, i);
 171              		.loc 1 303 0
 172 0012 0648     		ldr	r0, .L14
 173 0014 211C     		mov	r1, r4
 174 0016 FFF7FEFF 		bl	CapSense_GetBitValue
 175              	.LVL17:
 304:.\Generated_Source\PSoC4/CapSense_CSHL.c ****         
 305:.\Generated_Source\PSoC4/CapSense_CSHL.c ****         /* Clear raw data if sensor is disabled from scanning process */
 306:.\Generated_Source\PSoC4/CapSense_CSHL.c ****         if(isSensorEnabled != 0u)
 176              		.loc 1 306 0
 177 001a 0028     		cmp	r0, #0
 178 001c 02D0     		beq	.L12
 307:.\Generated_Source\PSoC4/CapSense_CSHL.c ****         {
 308:.\Generated_Source\PSoC4/CapSense_CSHL.c ****             /* Initialize baselines */
 309:.\Generated_Source\PSoC4/CapSense_CSHL.c ****             CapSense_BaseInit(i);
 179              		.loc 1 309 0
 180 001e 201C     		mov	r0, r4
 181              	.LVL18:
 182 0020 FFF7FEFF 		bl	CapSense_BaseInit
 183              	.LVL19:
 184              	.L12:
 301:.\Generated_Source\PSoC4/CapSense_CSHL.c ****     {
 185              		.loc 1 301 0 discriminator 2
 186 0024 0134     		add	r4, r4, #1
 187              	.LVL20:
 188              	.L11:
 301:.\Generated_Source\PSoC4/CapSense_CSHL.c ****     {
 189              		.loc 1 301 0 is_stmt 0 discriminator 1
 190 0026 002C     		cmp	r4, #0
 191 0028 F3D0     		beq	.L13
 310:.\Generated_Source\PSoC4/CapSense_CSHL.c ****         }
 311:.\Generated_Source\PSoC4/CapSense_CSHL.c ****     }
 312:.\Generated_Source\PSoC4/CapSense_CSHL.c **** }  
 192              		.loc 1 312 0 is_stmt 1
 193              		@ sp needed
 194              	.LVL21:
 195 002a 10BD     		pop	{r4, pc}
 196              	.L15:
 197              		.align	2
ARM GAS  C:\Users\merlin\AppData\Local\Temp\cchlGLBb.s 			page 10


 198              	.L14:
 199 002c 00000000 		.word	CapSense_sensorEnableMask
 200              		.cfi_endproc
 201              	.LFE37:
 202              		.size	CapSense_InitializeEnabledBaselines, .-CapSense_InitializeEnabledBaselines
 203              		.section	.text.CapSense_UpdateBaselineNoThreshold,"ax",%progbits
 204              		.align	2
 205              		.global	CapSense_UpdateBaselineNoThreshold
 206              		.code	16
 207              		.thumb_func
 208              		.type	CapSense_UpdateBaselineNoThreshold, %function
 209              	CapSense_UpdateBaselineNoThreshold:
 210              	.LFB38:
 313:.\Generated_Source\PSoC4/CapSense_CSHL.c **** 
 314:.\Generated_Source\PSoC4/CapSense_CSHL.c **** 
 315:.\Generated_Source\PSoC4/CapSense_CSHL.c **** /*******************************************************************************
 316:.\Generated_Source\PSoC4/CapSense_CSHL.c **** * Function Name: CapSense_UpdateBaselineNoThreshold
 317:.\Generated_Source\PSoC4/CapSense_CSHL.c **** ********************************************************************************
 318:.\Generated_Source\PSoC4/CapSense_CSHL.c **** *
 319:.\Generated_Source\PSoC4/CapSense_CSHL.c **** * Summary:
 320:.\Generated_Source\PSoC4/CapSense_CSHL.c **** *  Updates the CapSense_sensorBaseline[sensor] array element using the 
 321:.\Generated_Source\PSoC4/CapSense_CSHL.c **** *  LP filter with k = 256. The signal calculates the difference of count by 
 322:.\Generated_Source\PSoC4/CapSense_CSHL.c **** *  subtracting the previous baseline from the current raw count value and stores
 323:.\Generated_Source\PSoC4/CapSense_CSHL.c **** *  it in CapSense_sensorSignal[sensor]. 
 324:.\Generated_Source\PSoC4/CapSense_CSHL.c **** *  If the auto reset option is enabled, the baseline updated regards the noise threshold. 
 325:.\Generated_Source\PSoC4/CapSense_CSHL.c **** *  If the auto reset option is disabled, the baseline stops updating; baseline is loaded 
 326:.\Generated_Source\PSoC4/CapSense_CSHL.c **** *  with a raw count value if a signal is greater than zero and if signal is less 
 327:.\Generated_Source\PSoC4/CapSense_CSHL.c **** *  than noise threshold.
 328:.\Generated_Source\PSoC4/CapSense_CSHL.c **** *  Raw data filters are applied to the values if enabled before baseline 
 329:.\Generated_Source\PSoC4/CapSense_CSHL.c **** *  calculation.
 330:.\Generated_Source\PSoC4/CapSense_CSHL.c **** *
 331:.\Generated_Source\PSoC4/CapSense_CSHL.c **** *  This API does not update the thresholds in the Smartsense Mode.
 332:.\Generated_Source\PSoC4/CapSense_CSHL.c **** *
 333:.\Generated_Source\PSoC4/CapSense_CSHL.c **** * Parameters:
 334:.\Generated_Source\PSoC4/CapSense_CSHL.c **** *  sensor:  Sensor number.
 335:.\Generated_Source\PSoC4/CapSense_CSHL.c **** *
 336:.\Generated_Source\PSoC4/CapSense_CSHL.c **** * Return:
 337:.\Generated_Source\PSoC4/CapSense_CSHL.c **** *  None
 338:.\Generated_Source\PSoC4/CapSense_CSHL.c **** *
 339:.\Generated_Source\PSoC4/CapSense_CSHL.c **** * Global Variables:
 340:.\Generated_Source\PSoC4/CapSense_CSHL.c **** *  CapSense_widgetNumber[]  - stores widget numbers.
 341:.\Generated_Source\PSoC4/CapSense_CSHL.c **** *  CapSense_sensorBaseline[]    - used to store baseline value.
 342:.\Generated_Source\PSoC4/CapSense_CSHL.c **** *  CapSense_sensorBaselineLow[] - used to store fraction byte of 
 343:.\Generated_Source\PSoC4/CapSense_CSHL.c **** *  baseline value.
 344:.\Generated_Source\PSoC4/CapSense_CSHL.c **** *  CapSense_sensorSignal[]      - used to store difference between 
 345:.\Generated_Source\PSoC4/CapSense_CSHL.c **** *  current value of raw data and previous value of baseline.
 346:.\Generated_Source\PSoC4/CapSense_CSHL.c **** *  CapSense_rawFilterData1[]    - used to store previous sample of 
 347:.\Generated_Source\PSoC4/CapSense_CSHL.c **** *  any enabled raw data filter.
 348:.\Generated_Source\PSoC4/CapSense_CSHL.c **** *  CapSense_rawFilterData2[]    - used to store before previous sample
 349:.\Generated_Source\PSoC4/CapSense_CSHL.c **** *  of enabled raw data filter. Only required for median or average filters.
 350:.\Generated_Source\PSoC4/CapSense_CSHL.c **** * 
 351:.\Generated_Source\PSoC4/CapSense_CSHL.c **** * Side Effects:
 352:.\Generated_Source\PSoC4/CapSense_CSHL.c **** *  None
 353:.\Generated_Source\PSoC4/CapSense_CSHL.c **** * 
 354:.\Generated_Source\PSoC4/CapSense_CSHL.c **** *******************************************************************************/
 355:.\Generated_Source\PSoC4/CapSense_CSHL.c **** void CapSense_UpdateBaselineNoThreshold(uint32 sensor)
 356:.\Generated_Source\PSoC4/CapSense_CSHL.c **** {
ARM GAS  C:\Users\merlin\AppData\Local\Temp\cchlGLBb.s 			page 11


 211              		.loc 1 356 0
 212              		.cfi_startproc
 213              	.LVL22:
 214 0000 F0B5     		push	{r4, r5, r6, r7, lr}
 215              		.cfi_def_cfa_offset 20
 216              		.cfi_offset 4, -20
 217              		.cfi_offset 5, -16
 218              		.cfi_offset 6, -12
 219              		.cfi_offset 7, -8
 220              		.cfi_offset 14, -4
 221 0002 4746     		mov	r7, r8
 222 0004 80B4     		push	{r7}
 223              		.cfi_def_cfa_offset 24
 224              		.cfi_offset 8, -24
 225 0006 82B0     		sub	sp, sp, #8
 226              		.cfi_def_cfa_offset 32
 227 0008 041C     		mov	r4, r0
 357:.\Generated_Source\PSoC4/CapSense_CSHL.c ****     uint32 calc;
 358:.\Generated_Source\PSoC4/CapSense_CSHL.c **** 	uint32 sign;
 359:.\Generated_Source\PSoC4/CapSense_CSHL.c ****     uint16 tempRaw;
 360:.\Generated_Source\PSoC4/CapSense_CSHL.c ****     uint16 filteredRawData;
 361:.\Generated_Source\PSoC4/CapSense_CSHL.c ****     uint8 widget = CapSense_widgetNumber[sensor];
 228              		.loc 1 361 0
 229 000a 314B     		ldr	r3, .L25
 230 000c 1B5C     		ldrb	r3, [r3, r0]
 362:.\Generated_Source\PSoC4/CapSense_CSHL.c ****     uint16 noiseThreshold = CapSense_noiseThreshold[widget];
 231              		.loc 1 362 0
 232 000e 5A00     		lsl	r2, r3, #1
 233 0010 3049     		ldr	r1, .L25+4
 234 0012 8A18     		add	r2, r1, r2
 235 0014 9688     		ldrh	r6, [r2, #4]
 236              	.LVL23:
 363:.\Generated_Source\PSoC4/CapSense_CSHL.c ****     
 364:.\Generated_Source\PSoC4/CapSense_CSHL.c ****     #if (CapSense_TOTAL_GENERICS_COUNT)
 365:.\Generated_Source\PSoC4/CapSense_CSHL.c ****         /* Exclude generic widget */
 366:.\Generated_Source\PSoC4/CapSense_CSHL.c ****         if(widget < CapSense_END_OF_WIDGETS_INDEX)
 367:.\Generated_Source\PSoC4/CapSense_CSHL.c ****         {
 368:.\Generated_Source\PSoC4/CapSense_CSHL.c ****     #endif  /* CapSense_TOTAL_GENERICS_COUNT */
 369:.\Generated_Source\PSoC4/CapSense_CSHL.c ****     
 370:.\Generated_Source\PSoC4/CapSense_CSHL.c ****     filteredRawData = CapSense_sensorRaw[sensor];
 237              		.loc 1 370 0
 238 0016 4200     		lsl	r2, r0, #1
 239 0018 2F49     		ldr	r1, .L25+8
 240 001a 505A     		ldrh	r0, [r2, r1]
 241              	.LVL24:
 371:.\Generated_Source\PSoC4/CapSense_CSHL.c **** 
 372:.\Generated_Source\PSoC4/CapSense_CSHL.c **** 	#if (CapSense_RAW_FILTER_MASK != 0u)
 373:.\Generated_Source\PSoC4/CapSense_CSHL.c **** 	if(CapSense_enableRawFilters != 0u)
 374:.\Generated_Source\PSoC4/CapSense_CSHL.c **** 	{
 375:.\Generated_Source\PSoC4/CapSense_CSHL.c **** 		#if (CapSense_RAW_FILTER_MASK & CapSense_MEDIAN_FILTER)
 376:.\Generated_Source\PSoC4/CapSense_CSHL.c **** 			tempRaw = filteredRawData;
 377:.\Generated_Source\PSoC4/CapSense_CSHL.c **** 			filteredRawData = CapSense_MedianFilter(filteredRawData, CapSense_rawFilterData1[sensor], 
 378:.\Generated_Source\PSoC4/CapSense_CSHL.c **** 															CapSense_rawFilterData2[sensor]);
 379:.\Generated_Source\PSoC4/CapSense_CSHL.c **** 			CapSense_rawFilterData2[sensor] = CapSense_rawFilterData1[sensor];
 380:.\Generated_Source\PSoC4/CapSense_CSHL.c **** 			CapSense_rawFilterData1[sensor] = tempRaw;
 381:.\Generated_Source\PSoC4/CapSense_CSHL.c **** 			
 382:.\Generated_Source\PSoC4/CapSense_CSHL.c **** 		#elif (CapSense_RAW_FILTER_MASK & CapSense_AVERAGING_FILTER)
ARM GAS  C:\Users\merlin\AppData\Local\Temp\cchlGLBb.s 			page 12


 383:.\Generated_Source\PSoC4/CapSense_CSHL.c **** 			tempRaw = filteredRawData;
 384:.\Generated_Source\PSoC4/CapSense_CSHL.c **** 			filteredRawData = CapSense_AveragingFilter(filteredRawData, CapSense_rawFilterData1[sensor],
 385:.\Generated_Source\PSoC4/CapSense_CSHL.c **** 															   CapSense_rawFilterData2[sensor]);
 386:.\Generated_Source\PSoC4/CapSense_CSHL.c **** 			CapSense_rawFilterData2[sensor] = CapSense_rawFilterData1[sensor];
 387:.\Generated_Source\PSoC4/CapSense_CSHL.c **** 			CapSense_rawFilterData1[sensor] = tempRaw;
 388:.\Generated_Source\PSoC4/CapSense_CSHL.c **** 			
 389:.\Generated_Source\PSoC4/CapSense_CSHL.c **** 		#elif (CapSense_RAW_FILTER_MASK & CapSense_IIR2_FILTER)
 390:.\Generated_Source\PSoC4/CapSense_CSHL.c **** 			filteredRawData = CapSense_IIR2Filter(filteredRawData, CapSense_rawFilterData1[sensor]);
 391:.\Generated_Source\PSoC4/CapSense_CSHL.c **** 			CapSense_rawFilterData1[sensor] = filteredRawData;
 392:.\Generated_Source\PSoC4/CapSense_CSHL.c **** 			
 393:.\Generated_Source\PSoC4/CapSense_CSHL.c **** 		#elif (CapSense_RAW_FILTER_MASK & CapSense_IIR4_FILTER)
 394:.\Generated_Source\PSoC4/CapSense_CSHL.c **** 			filteredRawData = CapSense_IIR4Filter(filteredRawData, CapSense_rawFilterData1[sensor]);
 395:.\Generated_Source\PSoC4/CapSense_CSHL.c **** 			CapSense_rawFilterData1[sensor] = filteredRawData;
 396:.\Generated_Source\PSoC4/CapSense_CSHL.c **** 				
 397:.\Generated_Source\PSoC4/CapSense_CSHL.c **** 		#elif (CapSense_RAW_FILTER_MASK & CapSense_JITTER_FILTER)
 398:.\Generated_Source\PSoC4/CapSense_CSHL.c **** 			filteredRawData = CapSense_JitterFilter(filteredRawData, CapSense_rawFilterData1[sensor]);
 399:.\Generated_Source\PSoC4/CapSense_CSHL.c **** 			CapSense_rawFilterData1[sensor] = filteredRawData;
 400:.\Generated_Source\PSoC4/CapSense_CSHL.c **** 			
 401:.\Generated_Source\PSoC4/CapSense_CSHL.c **** 		#elif (CapSense_RAW_FILTER_MASK & CapSense_IIR8_FILTER)
 402:.\Generated_Source\PSoC4/CapSense_CSHL.c **** 			filteredRawData = CapSense_IIR8Filter(filteredRawData, CapSense_rawFilterData1[sensor]);
 403:.\Generated_Source\PSoC4/CapSense_CSHL.c **** 			CapSense_rawFilterData1[sensor] = filteredRawData;
 404:.\Generated_Source\PSoC4/CapSense_CSHL.c **** 			
 405:.\Generated_Source\PSoC4/CapSense_CSHL.c **** 		#elif (CapSense_RAW_FILTER_MASK & CapSense_IIR16_FILTER)
 406:.\Generated_Source\PSoC4/CapSense_CSHL.c **** 			filteredRawData = CapSense_IIR16Filter(filteredRawData, CapSense_rawFilterData1[sensor]);
 407:.\Generated_Source\PSoC4/CapSense_CSHL.c **** 			CapSense_rawFilterData1[sensor] = filteredRawData;
 408:.\Generated_Source\PSoC4/CapSense_CSHL.c **** 			
 409:.\Generated_Source\PSoC4/CapSense_CSHL.c **** 		#else
 410:.\Generated_Source\PSoC4/CapSense_CSHL.c **** 			/* No Raw filters */
 411:.\Generated_Source\PSoC4/CapSense_CSHL.c **** 		#endif  /* (CapSense_RAW_FILTER_MASK & CapSense_MEDIAN_FILTER) */
 412:.\Generated_Source\PSoC4/CapSense_CSHL.c **** 	}
 413:.\Generated_Source\PSoC4/CapSense_CSHL.c **** 	#endif  /* (CapSense_RAW_FILTER_MASK != 0u) */
 414:.\Generated_Source\PSoC4/CapSense_CSHL.c **** 	
 415:.\Generated_Source\PSoC4/CapSense_CSHL.c **** 	#if (CapSense_TUNING_METHOD == CapSense__TUNING_AUTO)
 416:.\Generated_Source\PSoC4/CapSense_CSHL.c **** 	    MeasureNoiseEnvelope_P4_v2_20(&CapSense_config, (uint8)sensor, CapSense_sensorRaw);
 417:.\Generated_Source\PSoC4/CapSense_CSHL.c **** 	#endif /* (CapSense_TUNING_METHOD == CapSense__TUNING_AUTO) */
 418:.\Generated_Source\PSoC4/CapSense_CSHL.c **** 
 419:.\Generated_Source\PSoC4/CapSense_CSHL.c ****     /* Baseline calculation */
 420:.\Generated_Source\PSoC4/CapSense_CSHL.c ****     /* Calculate difference RawData[cur] - Baseline[prev] */
 421:.\Generated_Source\PSoC4/CapSense_CSHL.c ****     if(filteredRawData >= CapSense_sensorBaseline[sensor])
 242              		.loc 1 421 0
 243 001c 2F49     		ldr	r1, .L25+12
 244 001e 515A     		ldrh	r1, [r2, r1]
 245 0020 8142     		cmp	r1, r0
 246 0022 06D8     		bhi	.L17
 422:.\Generated_Source\PSoC4/CapSense_CSHL.c ****     {
 423:.\Generated_Source\PSoC4/CapSense_CSHL.c **** 		CapSense_lowBaselineResetCnt[sensor] = 0u;	
 247              		.loc 1 423 0
 248 0024 0025     		mov	r5, #0
 249 0026 2E4A     		ldr	r2, .L25+16
 250 0028 1555     		strb	r5, [r2, r4]
 424:.\Generated_Source\PSoC4/CapSense_CSHL.c ****         tempRaw = filteredRawData - CapSense_sensorBaseline[sensor];
 251              		.loc 1 424 0
 252 002a 451A     		sub	r5, r0, r1
 253 002c ADB2     		uxth	r5, r5
 254              	.LVL25:
 425:.\Generated_Source\PSoC4/CapSense_CSHL.c ****         sign = 1u;    /* Positive difference - Calculate the Signal */
 255              		.loc 1 425 0
ARM GAS  C:\Users\merlin\AppData\Local\Temp\cchlGLBb.s 			page 13


 256 002e 0127     		mov	r7, #1
 257 0030 02E0     		b	.L18
 258              	.LVL26:
 259              	.L17:
 426:.\Generated_Source\PSoC4/CapSense_CSHL.c ****     }
 427:.\Generated_Source\PSoC4/CapSense_CSHL.c ****     else
 428:.\Generated_Source\PSoC4/CapSense_CSHL.c ****     {
 429:.\Generated_Source\PSoC4/CapSense_CSHL.c ****         tempRaw = CapSense_sensorBaseline[sensor] - filteredRawData;
 260              		.loc 1 429 0
 261 0032 0D1A     		sub	r5, r1, r0
 262 0034 ADB2     		uxth	r5, r5
 263              	.LVL27:
 430:.\Generated_Source\PSoC4/CapSense_CSHL.c ****         sign = 0u;    /* Negative difference - Do NOT calculate the Signal */
 264              		.loc 1 430 0
 265 0036 0027     		mov	r7, #0
 266              	.LVL28:
 267              	.L18:
 431:.\Generated_Source\PSoC4/CapSense_CSHL.c ****     }
 432:.\Generated_Source\PSoC4/CapSense_CSHL.c **** 
 433:.\Generated_Source\PSoC4/CapSense_CSHL.c **** 	#if (CapSense_TUNING_METHOD != CapSense__TUNING_NONE)
 434:.\Generated_Source\PSoC4/CapSense_CSHL.c **** 	if((sign == 0u) && (tempRaw > (uint16) CapSense_negativeNoiseThreshold[widget]))
 268              		.loc 1 434 0
 269 0038 002F     		cmp	r7, #0
 270 003a 1AD1     		bne	.L19
 271              		.loc 1 434 0 is_stmt 0 discriminator 1
 272 003c 5A00     		lsl	r2, r3, #1
 273 003e 0192     		str	r2, [sp, #4]
 274 0040 244A     		ldr	r2, .L25+4
 275 0042 9446     		mov	ip, r2
 276 0044 019A     		ldr	r2, [sp, #4]
 277 0046 6244     		add	r2, r2, ip
 278 0048 1289     		ldrh	r2, [r2, #8]
 279 004a AA42     		cmp	r2, r5
 280 004c 11D2     		bcs	.L19
 435:.\Generated_Source\PSoC4/CapSense_CSHL.c **** 	#else
 436:.\Generated_Source\PSoC4/CapSense_CSHL.c **** 	if((sign == 0u) && (tempRaw > (uint16) CapSense_NEGATIVE_NOISE_THRESHOLD))
 437:.\Generated_Source\PSoC4/CapSense_CSHL.c **** 	#endif /* (CapSense_TUNING_METHOD != CapSense__TUNING_NONE) */ 
 438:.\Generated_Source\PSoC4/CapSense_CSHL.c ****     {
 439:.\Generated_Source\PSoC4/CapSense_CSHL.c ****         if(CapSense_lowBaselineResetCnt[sensor] >= CapSense_lowBaselineReset[sensor])
 281              		.loc 1 439 0 is_stmt 1
 282 004e 244B     		ldr	r3, .L25+16
 283 0050 1B5D     		ldrb	r3, [r3, r4]
 284 0052 6246     		mov	r2, ip
 285 0054 1219     		add	r2, r2, r4
 286 0056 127B     		ldrb	r2, [r2, #12]
 287 0058 9342     		cmp	r3, r2
 288 005a 06D3     		bcc	.L20
 440:.\Generated_Source\PSoC4/CapSense_CSHL.c ****         {
 441:.\Generated_Source\PSoC4/CapSense_CSHL.c ****             CapSense_BaseInit(sensor);
 289              		.loc 1 441 0
 290 005c 201C     		mov	r0, r4
 291              	.LVL29:
 292 005e FFF7FEFF 		bl	CapSense_BaseInit
 293              	.LVL30:
 442:.\Generated_Source\PSoC4/CapSense_CSHL.c ****             CapSense_lowBaselineResetCnt[sensor] = 0u;
 294              		.loc 1 442 0
 295 0062 0022     		mov	r2, #0
ARM GAS  C:\Users\merlin\AppData\Local\Temp\cchlGLBb.s 			page 14


 296 0064 1E4B     		ldr	r3, .L25+16
 297 0066 1A55     		strb	r2, [r3, r4]
 298 0068 20E0     		b	.L21
 299              	.LVL31:
 300              	.L20:
 443:.\Generated_Source\PSoC4/CapSense_CSHL.c ****         }
 444:.\Generated_Source\PSoC4/CapSense_CSHL.c ****         else
 445:.\Generated_Source\PSoC4/CapSense_CSHL.c ****         {
 446:.\Generated_Source\PSoC4/CapSense_CSHL.c ****             CapSense_lowBaselineResetCnt[sensor]++;
 301              		.loc 1 446 0
 302 006a 0133     		add	r3, r3, #1
 303 006c 1C4A     		ldr	r2, .L25+16
 304 006e 1355     		strb	r3, [r2, r4]
 305 0070 1CE0     		b	.L21
 306              	.L19:
 447:.\Generated_Source\PSoC4/CapSense_CSHL.c ****         }
 448:.\Generated_Source\PSoC4/CapSense_CSHL.c ****     }
 449:.\Generated_Source\PSoC4/CapSense_CSHL.c ****     else
 450:.\Generated_Source\PSoC4/CapSense_CSHL.c ****     {
 451:.\Generated_Source\PSoC4/CapSense_CSHL.c ****         #if (CapSense_AUTO_RESET == CapSense_AUTO_RESET_DISABLE)
 452:.\Generated_Source\PSoC4/CapSense_CSHL.c **** 		#if (CapSense_TUNING_METHOD != CapSense__TUNING_NONE)			
 453:.\Generated_Source\PSoC4/CapSense_CSHL.c **** 			/* Update Baseline if lower than noiseThreshold */
 454:.\Generated_Source\PSoC4/CapSense_CSHL.c **** 			if ( (tempRaw <= noiseThreshold) || 
 307              		.loc 1 454 0
 308 0072 B542     		cmp	r5, r6
 309 0074 07D9     		bls	.L22
 455:.\Generated_Source\PSoC4/CapSense_CSHL.c **** 			 ((tempRaw < (uint16) CapSense_negativeNoiseThreshold[widget])
 310              		.loc 1 455 0 discriminator 1
 311 0076 5B00     		lsl	r3, r3, #1
 312 0078 164A     		ldr	r2, .L25+4
 313 007a D318     		add	r3, r2, r3
 314 007c 1B89     		ldrh	r3, [r3, #8]
 454:.\Generated_Source\PSoC4/CapSense_CSHL.c **** 			 ((tempRaw < (uint16) CapSense_negativeNoiseThreshold[widget])
 315              		.loc 1 454 0 discriminator 1
 316 007e AB42     		cmp	r3, r5
 317 0080 14D9     		bls	.L21
 456:.\Generated_Source\PSoC4/CapSense_CSHL.c **** 			   && (sign == 0u)))
 318              		.loc 1 456 0
 319 0082 002F     		cmp	r7, #0
 320 0084 12D1     		bne	.L21
 321              	.L22:
 457:.\Generated_Source\PSoC4/CapSense_CSHL.c **** 			{
 458:.\Generated_Source\PSoC4/CapSense_CSHL.c **** 		#else
 459:.\Generated_Source\PSoC4/CapSense_CSHL.c **** 			/* Update Baseline if lower than noiseThreshold */
 460:.\Generated_Source\PSoC4/CapSense_CSHL.c **** 			if ( (tempRaw <= noiseThreshold) || 
 461:.\Generated_Source\PSoC4/CapSense_CSHL.c **** 				 ((tempRaw < (uint16) CapSense_NEGATIVE_NOISE_THRESHOLD)
 462:.\Generated_Source\PSoC4/CapSense_CSHL.c **** 				   && (sign == 0u)))
 463:.\Generated_Source\PSoC4/CapSense_CSHL.c **** 			{
 464:.\Generated_Source\PSoC4/CapSense_CSHL.c **** 		#endif /* (CapSense_TUNING_METHOD != CapSense__TUNING_NONE) */ 
 465:.\Generated_Source\PSoC4/CapSense_CSHL.c ****         #endif /* (CapSense_AUTO_RESET == CapSense_AUTO_RESET_DISABLE) */
 466:.\Generated_Source\PSoC4/CapSense_CSHL.c ****                 /* Make full Baseline 23 bits */
 467:.\Generated_Source\PSoC4/CapSense_CSHL.c ****                 calc = (uint32) CapSense_sensorBaseline[sensor] << 8u;
 322              		.loc 1 467 0
 323 0086 0A02     		lsl	r2, r1, #8
 324              	.LVL32:
 468:.\Generated_Source\PSoC4/CapSense_CSHL.c ****                 calc |= (uint32) CapSense_sensorBaselineLow[sensor];
 325              		.loc 1 468 0
ARM GAS  C:\Users\merlin\AppData\Local\Temp\cchlGLBb.s 			page 15


 326 0088 144B     		ldr	r3, .L25+12
 327 008a 9846     		mov	r8, r3
 328 008c A446     		mov	ip, r4
 329 008e C444     		add	ip, ip, r8
 330 0090 6346     		mov	r3, ip
 331 0092 1B79     		ldrb	r3, [r3, #4]
 332 0094 1343     		orr	r3, r2
 333              	.LVL33:
 469:.\Generated_Source\PSoC4/CapSense_CSHL.c **** 
 470:.\Generated_Source\PSoC4/CapSense_CSHL.c ****                 /* Add Raw Data to Baseline */
 471:.\Generated_Source\PSoC4/CapSense_CSHL.c ****                 calc += filteredRawData;
 334              		.loc 1 471 0
 335 0096 C318     		add	r3, r0, r3
 336              	.LVL34:
 472:.\Generated_Source\PSoC4/CapSense_CSHL.c **** 
 473:.\Generated_Source\PSoC4/CapSense_CSHL.c ****                 /* Sub the high Baseline */
 474:.\Generated_Source\PSoC4/CapSense_CSHL.c ****                 calc -= CapSense_sensorBaseline[sensor];
 337              		.loc 1 474 0
 338 0098 5B1A     		sub	r3, r3, r1
 339              	.LVL35:
 475:.\Generated_Source\PSoC4/CapSense_CSHL.c **** 
 476:.\Generated_Source\PSoC4/CapSense_CSHL.c ****                 /* Put Baseline and BaselineLow */
 477:.\Generated_Source\PSoC4/CapSense_CSHL.c ****                 CapSense_sensorBaseline[sensor] = ((uint16) (calc >> 8u));
 340              		.loc 1 477 0
 341 009a 190A     		lsr	r1, r3, #8
 342 009c 6200     		lsl	r2, r4, #1
 343 009e 4046     		mov	r0, r8
 344              	.LVL36:
 345 00a0 8152     		strh	r1, [r0, r2]
 478:.\Generated_Source\PSoC4/CapSense_CSHL.c ****                 CapSense_sensorBaselineLow[sensor] = ((uint8) calc);
 346              		.loc 1 478 0
 347 00a2 6246     		mov	r2, ip
 348 00a4 1371     		strb	r3, [r2, #4]
 479:.\Generated_Source\PSoC4/CapSense_CSHL.c **** 
 480:.\Generated_Source\PSoC4/CapSense_CSHL.c ****                 CapSense_lowBaselineResetCnt[sensor] = 0u;
 349              		.loc 1 480 0
 350 00a6 0022     		mov	r2, #0
 351 00a8 0D4B     		ldr	r3, .L25+16
 352              	.LVL37:
 353 00aa 1A55     		strb	r2, [r3, r4]
 354              	.LVL38:
 355              	.L21:
 481:.\Generated_Source\PSoC4/CapSense_CSHL.c ****         #if (CapSense_AUTO_RESET == CapSense_AUTO_RESET_DISABLE)
 482:.\Generated_Source\PSoC4/CapSense_CSHL.c ****             }
 483:.\Generated_Source\PSoC4/CapSense_CSHL.c ****         #endif /* (CapSense_AUTO_RESET == CapSense_AUTO_RESET_DISABLE) */
 484:.\Generated_Source\PSoC4/CapSense_CSHL.c ****     }
 485:.\Generated_Source\PSoC4/CapSense_CSHL.c **** 
 486:.\Generated_Source\PSoC4/CapSense_CSHL.c ****     /* Calculate Signal if positive difference > noiseThreshold */
 487:.\Generated_Source\PSoC4/CapSense_CSHL.c ****     if((tempRaw > (uint16) noiseThreshold) && (sign != 0u))
 356              		.loc 1 487 0
 357 00ac B542     		cmp	r5, r6
 358 00ae 06D9     		bls	.L23
 359              		.loc 1 487 0 is_stmt 0 discriminator 1
 360 00b0 002F     		cmp	r7, #0
 361 00b2 04D0     		beq	.L23
 488:.\Generated_Source\PSoC4/CapSense_CSHL.c ****     {
 489:.\Generated_Source\PSoC4/CapSense_CSHL.c ****         #if (CapSense_SIGNAL_SIZE == CapSense_SIGNAL_SIZE_UINT8)
ARM GAS  C:\Users\merlin\AppData\Local\Temp\cchlGLBb.s 			page 16


 490:.\Generated_Source\PSoC4/CapSense_CSHL.c ****             /* Over flow defence for uint8 */
 491:.\Generated_Source\PSoC4/CapSense_CSHL.c ****             if (tempRaw > 0xFFu)
 492:.\Generated_Source\PSoC4/CapSense_CSHL.c ****             {
 493:.\Generated_Source\PSoC4/CapSense_CSHL.c ****                 CapSense_sensorSignal[sensor] = 0xFFu;
 494:.\Generated_Source\PSoC4/CapSense_CSHL.c ****             }    
 495:.\Generated_Source\PSoC4/CapSense_CSHL.c ****             else 
 496:.\Generated_Source\PSoC4/CapSense_CSHL.c ****             {
 497:.\Generated_Source\PSoC4/CapSense_CSHL.c ****                 CapSense_sensorSignal[sensor] = ((uint8) tempRaw);
 498:.\Generated_Source\PSoC4/CapSense_CSHL.c ****             }
 499:.\Generated_Source\PSoC4/CapSense_CSHL.c ****         #else
 500:.\Generated_Source\PSoC4/CapSense_CSHL.c ****             CapSense_sensorSignal[sensor] = ((uint16) tempRaw);
 362              		.loc 1 500 0 is_stmt 1
 363 00b4 6400     		lsl	r4, r4, #1
 364              	.LVL39:
 365 00b6 094B     		ldr	r3, .L25+12
 366 00b8 1C19     		add	r4, r3, r4
 367 00ba 2581     		strh	r5, [r4, #8]
 368 00bc 04E0     		b	.L16
 369              	.LVL40:
 370              	.L23:
 501:.\Generated_Source\PSoC4/CapSense_CSHL.c ****         #endif  /* (CapSense_SIGNAL_SIZE == CapSense_SIGNAL_SIZE_UINT8) */
 502:.\Generated_Source\PSoC4/CapSense_CSHL.c ****     }
 503:.\Generated_Source\PSoC4/CapSense_CSHL.c ****     else
 504:.\Generated_Source\PSoC4/CapSense_CSHL.c ****     {
 505:.\Generated_Source\PSoC4/CapSense_CSHL.c ****         /* Signal is zero */
 506:.\Generated_Source\PSoC4/CapSense_CSHL.c ****         CapSense_sensorSignal[sensor] = 0u;
 371              		.loc 1 506 0
 372 00be 6400     		lsl	r4, r4, #1
 373              	.LVL41:
 374 00c0 064B     		ldr	r3, .L25+12
 375 00c2 1C19     		add	r4, r3, r4
 376 00c4 0023     		mov	r3, #0
 377 00c6 2381     		strh	r3, [r4, #8]
 378              	.L16:
 507:.\Generated_Source\PSoC4/CapSense_CSHL.c ****     }
 508:.\Generated_Source\PSoC4/CapSense_CSHL.c **** 
 509:.\Generated_Source\PSoC4/CapSense_CSHL.c ****     #if (CapSense_TOTAL_GENERICS_COUNT)
 510:.\Generated_Source\PSoC4/CapSense_CSHL.c ****         /* Exclude generic widget */
 511:.\Generated_Source\PSoC4/CapSense_CSHL.c ****         }
 512:.\Generated_Source\PSoC4/CapSense_CSHL.c ****     #endif  /* CapSense_TOTAL_GENERICS_COUNT */
 513:.\Generated_Source\PSoC4/CapSense_CSHL.c **** }
 379              		.loc 1 513 0
 380 00c8 02B0     		add	sp, sp, #8
 381              		@ sp needed
 382              	.LVL42:
 383              	.LVL43:
 384              	.LVL44:
 385 00ca 04BC     		pop	{r2}
 386 00cc 9046     		mov	r8, r2
 387 00ce F0BD     		pop	{r4, r5, r6, r7, pc}
 388              	.L26:
 389              		.align	2
 390              	.L25:
 391 00d0 00000000 		.word	CapSense_widgetNumber
 392 00d4 00000000 		.word	.LANCHOR1
 393 00d8 00000000 		.word	CapSense_sensorRaw
 394 00dc 00000000 		.word	.LANCHOR0
ARM GAS  C:\Users\merlin\AppData\Local\Temp\cchlGLBb.s 			page 17


 395 00e0 00000000 		.word	CapSense_lowBaselineResetCnt
 396              		.cfi_endproc
 397              	.LFE38:
 398              		.size	CapSense_UpdateBaselineNoThreshold, .-CapSense_UpdateBaselineNoThreshold
 399              		.section	.text.CapSense_UpdateSensorBaseline,"ax",%progbits
 400              		.align	2
 401              		.global	CapSense_UpdateSensorBaseline
 402              		.code	16
 403              		.thumb_func
 404              		.type	CapSense_UpdateSensorBaseline, %function
 405              	CapSense_UpdateSensorBaseline:
 406              	.LFB39:
 514:.\Generated_Source\PSoC4/CapSense_CSHL.c **** 
 515:.\Generated_Source\PSoC4/CapSense_CSHL.c **** 
 516:.\Generated_Source\PSoC4/CapSense_CSHL.c **** /*******************************************************************************
 517:.\Generated_Source\PSoC4/CapSense_CSHL.c **** * Function Name: CapSense_UpdateSensorBaseline
 518:.\Generated_Source\PSoC4/CapSense_CSHL.c **** ********************************************************************************
 519:.\Generated_Source\PSoC4/CapSense_CSHL.c **** *
 520:.\Generated_Source\PSoC4/CapSense_CSHL.c **** * Summary:
 521:.\Generated_Source\PSoC4/CapSense_CSHL.c **** *  Updates the CapSense_sensorBaseline[sensor] array element using the 
 522:.\Generated_Source\PSoC4/CapSense_CSHL.c **** *  LP filter with k = 256. The signal calculates the difference of count by 
 523:.\Generated_Source\PSoC4/CapSense_CSHL.c **** *  subtracting the previous baseline from the current raw count value and stores
 524:.\Generated_Source\PSoC4/CapSense_CSHL.c **** *  it in CapSense_sensorSignal[sensor]. 
 525:.\Generated_Source\PSoC4/CapSense_CSHL.c **** *  If the auto reset option is enabled, the baseline updated regards the noise threshold. 
 526:.\Generated_Source\PSoC4/CapSense_CSHL.c **** *  If the auto reset option is disabled, the baseline stops updating. 
 527:.\Generated_Source\PSoC4/CapSense_CSHL.c **** *  Baseline is loaded with raw count value if a signal is greater than zero and  
 528:.\Generated_Source\PSoC4/CapSense_CSHL.c **** *  if signal is less than noise threshold.
 529:.\Generated_Source\PSoC4/CapSense_CSHL.c **** *  Raw data filters are applied to the values if enabled before baseline 
 530:.\Generated_Source\PSoC4/CapSense_CSHL.c **** *  calculation.
 531:.\Generated_Source\PSoC4/CapSense_CSHL.c **** *  This API updates the thresholds in the Smartsense Mode.
 532:.\Generated_Source\PSoC4/CapSense_CSHL.c **** *
 533:.\Generated_Source\PSoC4/CapSense_CSHL.c **** * Parameters:
 534:.\Generated_Source\PSoC4/CapSense_CSHL.c **** *  sensor:  Sensor number.
 535:.\Generated_Source\PSoC4/CapSense_CSHL.c **** *
 536:.\Generated_Source\PSoC4/CapSense_CSHL.c **** * Return:
 537:.\Generated_Source\PSoC4/CapSense_CSHL.c **** *  None
 538:.\Generated_Source\PSoC4/CapSense_CSHL.c **** *
 539:.\Generated_Source\PSoC4/CapSense_CSHL.c **** * Global Variables:
 540:.\Generated_Source\PSoC4/CapSense_CSHL.c **** *  CapSense_widgetNumber[]  - stores widget numbers.
 541:.\Generated_Source\PSoC4/CapSense_CSHL.c **** * 
 542:.\Generated_Source\PSoC4/CapSense_CSHL.c **** * Side Effects:
 543:.\Generated_Source\PSoC4/CapSense_CSHL.c **** *  None
 544:.\Generated_Source\PSoC4/CapSense_CSHL.c **** * 
 545:.\Generated_Source\PSoC4/CapSense_CSHL.c **** *******************************************************************************/
 546:.\Generated_Source\PSoC4/CapSense_CSHL.c ****  void CapSense_UpdateSensorBaseline(uint32 sensor)
 547:.\Generated_Source\PSoC4/CapSense_CSHL.c **** {
 407              		.loc 1 547 0
 408              		.cfi_startproc
 409              	.LVL45:
 410 0000 08B5     		push	{r3, lr}
 411              		.cfi_def_cfa_offset 8
 412              		.cfi_offset 3, -8
 413              		.cfi_offset 14, -4
 548:.\Generated_Source\PSoC4/CapSense_CSHL.c ****     #if (CapSense_TOTAL_GENERICS_COUNT)
 549:.\Generated_Source\PSoC4/CapSense_CSHL.c **** 		uint32 widget;
 550:.\Generated_Source\PSoC4/CapSense_CSHL.c **** 		
 551:.\Generated_Source\PSoC4/CapSense_CSHL.c **** 		widget = CapSense_widgetNumber[sensor];
ARM GAS  C:\Users\merlin\AppData\Local\Temp\cchlGLBb.s 			page 18


 552:.\Generated_Source\PSoC4/CapSense_CSHL.c **** 	
 553:.\Generated_Source\PSoC4/CapSense_CSHL.c ****         /* Exclude generic widget */
 554:.\Generated_Source\PSoC4/CapSense_CSHL.c ****         if(widget < CapSense_END_OF_WIDGETS_INDEX)
 555:.\Generated_Source\PSoC4/CapSense_CSHL.c ****         {
 556:.\Generated_Source\PSoC4/CapSense_CSHL.c ****     #endif  /* CapSense_TOTAL_GENERICS_COUNT */
 557:.\Generated_Source\PSoC4/CapSense_CSHL.c **** 
 558:.\Generated_Source\PSoC4/CapSense_CSHL.c ****     #if (CapSense_TUNING_METHOD == CapSense__TUNING_AUTO)
 559:.\Generated_Source\PSoC4/CapSense_CSHL.c ****     	CapSense_UpdateThresholds(sensor);
 560:.\Generated_Source\PSoC4/CapSense_CSHL.c ****     #endif /* (CapSense_TUNING_METHOD == CapSense__TUNING_AUTO) */
 561:.\Generated_Source\PSoC4/CapSense_CSHL.c **** 
 562:.\Generated_Source\PSoC4/CapSense_CSHL.c ****     CapSense_UpdateBaselineNoThreshold(sensor);
 414              		.loc 1 562 0
 415 0002 FFF7FEFF 		bl	CapSense_UpdateBaselineNoThreshold
 416              	.LVL46:
 563:.\Generated_Source\PSoC4/CapSense_CSHL.c ****     
 564:.\Generated_Source\PSoC4/CapSense_CSHL.c ****     #if (CapSense_TOTAL_GENERICS_COUNT)
 565:.\Generated_Source\PSoC4/CapSense_CSHL.c ****         /* Exclude generic widget */
 566:.\Generated_Source\PSoC4/CapSense_CSHL.c ****         }
 567:.\Generated_Source\PSoC4/CapSense_CSHL.c ****     #endif  /* CapSense_TOTAL_GENERICS_COUNT */
 568:.\Generated_Source\PSoC4/CapSense_CSHL.c **** }
 417              		.loc 1 568 0
 418              		@ sp needed
 419 0006 08BD     		pop	{r3, pc}
 420              		.cfi_endproc
 421              	.LFE39:
 422              		.size	CapSense_UpdateSensorBaseline, .-CapSense_UpdateSensorBaseline
 423              		.section	.text.CapSense_UpdateEnabledBaselines,"ax",%progbits
 424              		.align	2
 425              		.global	CapSense_UpdateEnabledBaselines
 426              		.code	16
 427              		.thumb_func
 428              		.type	CapSense_UpdateEnabledBaselines, %function
 429              	CapSense_UpdateEnabledBaselines:
 430              	.LFB40:
 569:.\Generated_Source\PSoC4/CapSense_CSHL.c **** 
 570:.\Generated_Source\PSoC4/CapSense_CSHL.c **** 
 571:.\Generated_Source\PSoC4/CapSense_CSHL.c **** /*******************************************************************************
 572:.\Generated_Source\PSoC4/CapSense_CSHL.c **** * Function Name: CapSense_UpdateEnabledBaselines
 573:.\Generated_Source\PSoC4/CapSense_CSHL.c **** ********************************************************************************
 574:.\Generated_Source\PSoC4/CapSense_CSHL.c **** *
 575:.\Generated_Source\PSoC4/CapSense_CSHL.c **** * Summary:
 576:.\Generated_Source\PSoC4/CapSense_CSHL.c **** *  Checks CapSense_sensorEnableMask[] array and calls the 
 577:.\Generated_Source\PSoC4/CapSense_CSHL.c **** *  CapSense_UpdateSensorBaseline function to update the baselines 
 578:.\Generated_Source\PSoC4/CapSense_CSHL.c **** *  for the enabled sensors.
 579:.\Generated_Source\PSoC4/CapSense_CSHL.c **** *
 580:.\Generated_Source\PSoC4/CapSense_CSHL.c **** * Parameters:
 581:.\Generated_Source\PSoC4/CapSense_CSHL.c **** *  None
 582:.\Generated_Source\PSoC4/CapSense_CSHL.c **** *
 583:.\Generated_Source\PSoC4/CapSense_CSHL.c **** * Return:
 584:.\Generated_Source\PSoC4/CapSense_CSHL.c **** *  None
 585:.\Generated_Source\PSoC4/CapSense_CSHL.c **** *
 586:.\Generated_Source\PSoC4/CapSense_CSHL.c **** * Global Variables:
 587:.\Generated_Source\PSoC4/CapSense_CSHL.c **** *  CapSense_sensorEnableMask[] - used to store the sensor scanning 
 588:.\Generated_Source\PSoC4/CapSense_CSHL.c **** *  state.
 589:.\Generated_Source\PSoC4/CapSense_CSHL.c **** *  CapSense_sensorEnableMask[0] contains the masked bits for sensors 
 590:.\Generated_Source\PSoC4/CapSense_CSHL.c **** *   0 through 7 (sensor 0 is bit 0, sensor 1 is bit 1).
 591:.\Generated_Source\PSoC4/CapSense_CSHL.c **** *  CapSense_sensorEnableMask[1] contains the masked bits for 
ARM GAS  C:\Users\merlin\AppData\Local\Temp\cchlGLBb.s 			page 19


 592:.\Generated_Source\PSoC4/CapSense_CSHL.c **** *  sensors 8 through 15 (if needed), and so on.
 593:.\Generated_Source\PSoC4/CapSense_CSHL.c **** *  0 - sensor doesn't scan by CapSense_ScanEnabledWidgets().
 594:.\Generated_Source\PSoC4/CapSense_CSHL.c **** *  1 - sensor scans by CapSense_ScanEnabledWidgets().
 595:.\Generated_Source\PSoC4/CapSense_CSHL.c **** * 
 596:.\Generated_Source\PSoC4/CapSense_CSHL.c **** * Side Effects:
 597:.\Generated_Source\PSoC4/CapSense_CSHL.c **** *  None
 598:.\Generated_Source\PSoC4/CapSense_CSHL.c **** * 
 599:.\Generated_Source\PSoC4/CapSense_CSHL.c **** *******************************************************************************/
 600:.\Generated_Source\PSoC4/CapSense_CSHL.c ****  void CapSense_UpdateEnabledBaselines(void)
 601:.\Generated_Source\PSoC4/CapSense_CSHL.c **** {
 431              		.loc 1 601 0
 432              		.cfi_startproc
 433 0000 10B5     		push	{r4, lr}
 434              		.cfi_def_cfa_offset 8
 435              		.cfi_offset 4, -8
 436              		.cfi_offset 14, -4
 437              	.LVL47:
 602:.\Generated_Source\PSoC4/CapSense_CSHL.c ****     uint32 i;
 603:.\Generated_Source\PSoC4/CapSense_CSHL.c ****     uint32 isSensorEnabled;
 604:.\Generated_Source\PSoC4/CapSense_CSHL.c ****     
 605:.\Generated_Source\PSoC4/CapSense_CSHL.c ****     for(i = 0u; i < CapSense_TOTAL_SENSOR_COUNT; i++)
 438              		.loc 1 605 0
 439 0002 0024     		mov	r4, #0
 440 0004 09E0     		b	.L29
 441              	.LVL48:
 442              	.L31:
 606:.\Generated_Source\PSoC4/CapSense_CSHL.c ****     {
 607:.\Generated_Source\PSoC4/CapSense_CSHL.c ****         isSensorEnabled = CapSense_GetBitValue(CapSense_sensorEnableMask, i);
 443              		.loc 1 607 0
 444 0006 0648     		ldr	r0, .L32
 445 0008 211C     		mov	r1, r4
 446 000a FFF7FEFF 		bl	CapSense_GetBitValue
 447              	.LVL49:
 608:.\Generated_Source\PSoC4/CapSense_CSHL.c ****         
 609:.\Generated_Source\PSoC4/CapSense_CSHL.c ****         if(0u != isSensorEnabled)
 448              		.loc 1 609 0
 449 000e 0028     		cmp	r0, #0
 450 0010 02D0     		beq	.L30
 610:.\Generated_Source\PSoC4/CapSense_CSHL.c ****         {
 611:.\Generated_Source\PSoC4/CapSense_CSHL.c ****             CapSense_UpdateSensorBaseline(i);
 451              		.loc 1 611 0
 452 0012 201C     		mov	r0, r4
 453              	.LVL50:
 454 0014 FFF7FEFF 		bl	CapSense_UpdateSensorBaseline
 455              	.LVL51:
 456              	.L30:
 605:.\Generated_Source\PSoC4/CapSense_CSHL.c ****     {
 457              		.loc 1 605 0 discriminator 2
 458 0018 0134     		add	r4, r4, #1
 459              	.LVL52:
 460              	.L29:
 605:.\Generated_Source\PSoC4/CapSense_CSHL.c ****     {
 461              		.loc 1 605 0 is_stmt 0 discriminator 1
 462 001a 002C     		cmp	r4, #0
 463 001c F3D0     		beq	.L31
 612:.\Generated_Source\PSoC4/CapSense_CSHL.c ****         }
 613:.\Generated_Source\PSoC4/CapSense_CSHL.c ****     }
ARM GAS  C:\Users\merlin\AppData\Local\Temp\cchlGLBb.s 			page 20


 614:.\Generated_Source\PSoC4/CapSense_CSHL.c **** }
 464              		.loc 1 614 0 is_stmt 1
 465              		@ sp needed
 466              	.LVL53:
 467 001e 10BD     		pop	{r4, pc}
 468              	.L33:
 469              		.align	2
 470              	.L32:
 471 0020 00000000 		.word	CapSense_sensorEnableMask
 472              		.cfi_endproc
 473              	.LFE40:
 474              		.size	CapSense_UpdateEnabledBaselines, .-CapSense_UpdateEnabledBaselines
 475              		.section	.text.CapSense_UpdateWidgetBaseline,"ax",%progbits
 476              		.align	2
 477              		.global	CapSense_UpdateWidgetBaseline
 478              		.code	16
 479              		.thumb_func
 480              		.type	CapSense_UpdateWidgetBaseline, %function
 481              	CapSense_UpdateWidgetBaseline:
 482              	.LFB41:
 615:.\Generated_Source\PSoC4/CapSense_CSHL.c **** 
 616:.\Generated_Source\PSoC4/CapSense_CSHL.c **** /*******************************************************************************
 617:.\Generated_Source\PSoC4/CapSense_CSHL.c **** * Function Name: CapSense_UpdateWidgetBaseline
 618:.\Generated_Source\PSoC4/CapSense_CSHL.c **** ********************************************************************************
 619:.\Generated_Source\PSoC4/CapSense_CSHL.c **** *
 620:.\Generated_Source\PSoC4/CapSense_CSHL.c **** * Summary:
 621:.\Generated_Source\PSoC4/CapSense_CSHL.c **** *  Checks CapSense_sensorEnableMask[] array and calls the 
 622:.\Generated_Source\PSoC4/CapSense_CSHL.c **** *  CapSense_UpdateSensorBaseline function to update the baselines 
 623:.\Generated_Source\PSoC4/CapSense_CSHL.c **** *  for the enabled sensors that belong to widget.
 624:.\Generated_Source\PSoC4/CapSense_CSHL.c **** *
 625:.\Generated_Source\PSoC4/CapSense_CSHL.c **** * Parameters:
 626:.\Generated_Source\PSoC4/CapSense_CSHL.c **** *  widget:  Widget number.
 627:.\Generated_Source\PSoC4/CapSense_CSHL.c **** *
 628:.\Generated_Source\PSoC4/CapSense_CSHL.c **** * Return:
 629:.\Generated_Source\PSoC4/CapSense_CSHL.c **** *  None
 630:.\Generated_Source\PSoC4/CapSense_CSHL.c **** *
 631:.\Generated_Source\PSoC4/CapSense_CSHL.c **** * Global Variables:
 632:.\Generated_Source\PSoC4/CapSense_CSHL.c **** *  CapSense_sensorEnableMask[] - used to store the sensor scanning 
 633:.\Generated_Source\PSoC4/CapSense_CSHL.c **** *  state.
 634:.\Generated_Source\PSoC4/CapSense_CSHL.c **** *  CapSense_sensorEnableMask[0] contains the masked bits for sensors 
 635:.\Generated_Source\PSoC4/CapSense_CSHL.c **** *   0 through 7 (sensor 0 is bit 0, sensor 1 is bit 1).
 636:.\Generated_Source\PSoC4/CapSense_CSHL.c **** *  CapSense_sensorEnableMask[1] contains the masked bits for 
 637:.\Generated_Source\PSoC4/CapSense_CSHL.c **** *  sensors 8 through 15 (if needed), and so on.
 638:.\Generated_Source\PSoC4/CapSense_CSHL.c **** *  0 - sensor doesn't scan by CapSense_ScanEnabledWidgets().
 639:.\Generated_Source\PSoC4/CapSense_CSHL.c **** *  1 - sensor scans by CapSense_ScanEnabledWidgets().
 640:.\Generated_Source\PSoC4/CapSense_CSHL.c **** * 
 641:.\Generated_Source\PSoC4/CapSense_CSHL.c **** * Side Effects:
 642:.\Generated_Source\PSoC4/CapSense_CSHL.c **** *  None
 643:.\Generated_Source\PSoC4/CapSense_CSHL.c **** * 
 644:.\Generated_Source\PSoC4/CapSense_CSHL.c **** *******************************************************************************/
 645:.\Generated_Source\PSoC4/CapSense_CSHL.c **** void CapSense_UpdateWidgetBaseline(uint32 widget)
 646:.\Generated_Source\PSoC4/CapSense_CSHL.c **** {
 483              		.loc 1 646 0
 484              		.cfi_startproc
 485              	.LVL54:
 486 0000 10B5     		push	{r4, lr}
 487              		.cfi_def_cfa_offset 8
ARM GAS  C:\Users\merlin\AppData\Local\Temp\cchlGLBb.s 			page 21


 488              		.cfi_offset 4, -8
 489              		.cfi_offset 14, -4
 490              	.LVL55:
 647:.\Generated_Source\PSoC4/CapSense_CSHL.c ****     uint32 sensorsPerWidget;
 648:.\Generated_Source\PSoC4/CapSense_CSHL.c ****     uint32 firstSensor;
 649:.\Generated_Source\PSoC4/CapSense_CSHL.c ****     uint32 lastSensor;
 650:.\Generated_Source\PSoC4/CapSense_CSHL.c ****     uint32 i;
 651:.\Generated_Source\PSoC4/CapSense_CSHL.c ****     uint32 isSensorEnabled;
 652:.\Generated_Source\PSoC4/CapSense_CSHL.c ****     
 653:.\Generated_Source\PSoC4/CapSense_CSHL.c **** 	/* Get number of sensors in widget */
 654:.\Generated_Source\PSoC4/CapSense_CSHL.c **** 	sensorsPerWidget = CapSense_numberOfSensors[widget];
 655:.\Generated_Source\PSoC4/CapSense_CSHL.c **** 
 656:.\Generated_Source\PSoC4/CapSense_CSHL.c **** 	/* Get first sensor in widget */
 657:.\Generated_Source\PSoC4/CapSense_CSHL.c **** 	firstSensor = CapSense_rawDataIndex[widget];
 658:.\Generated_Source\PSoC4/CapSense_CSHL.c **** 	
 659:.\Generated_Source\PSoC4/CapSense_CSHL.c **** 	/* Get last sensor in widget */
 660:.\Generated_Source\PSoC4/CapSense_CSHL.c **** 	lastSensor = (CapSense_rawDataIndex[widget] + sensorsPerWidget);
 661:.\Generated_Source\PSoC4/CapSense_CSHL.c **** 	
 662:.\Generated_Source\PSoC4/CapSense_CSHL.c ****     for(i = firstSensor; i < lastSensor; i++)
 491              		.loc 1 662 0
 492 0002 0024     		mov	r4, #0
 493 0004 09E0     		b	.L35
 494              	.LVL56:
 495              	.L37:
 663:.\Generated_Source\PSoC4/CapSense_CSHL.c ****     {
 664:.\Generated_Source\PSoC4/CapSense_CSHL.c ****         isSensorEnabled = CapSense_GetBitValue(CapSense_sensorEnableMask, i);
 496              		.loc 1 664 0
 497 0006 0648     		ldr	r0, .L38
 498 0008 211C     		mov	r1, r4
 499 000a FFF7FEFF 		bl	CapSense_GetBitValue
 500              	.LVL57:
 665:.\Generated_Source\PSoC4/CapSense_CSHL.c ****         
 666:.\Generated_Source\PSoC4/CapSense_CSHL.c ****         if(0u != isSensorEnabled)
 501              		.loc 1 666 0
 502 000e 0028     		cmp	r0, #0
 503 0010 02D0     		beq	.L36
 667:.\Generated_Source\PSoC4/CapSense_CSHL.c ****         {
 668:.\Generated_Source\PSoC4/CapSense_CSHL.c ****             CapSense_UpdateSensorBaseline(i);
 504              		.loc 1 668 0
 505 0012 201C     		mov	r0, r4
 506              	.LVL58:
 507 0014 FFF7FEFF 		bl	CapSense_UpdateSensorBaseline
 508              	.LVL59:
 509              	.L36:
 662:.\Generated_Source\PSoC4/CapSense_CSHL.c ****     {
 510              		.loc 1 662 0 discriminator 2
 511 0018 0134     		add	r4, r4, #1
 512              	.LVL60:
 513              	.L35:
 662:.\Generated_Source\PSoC4/CapSense_CSHL.c ****     {
 514              		.loc 1 662 0 is_stmt 0 discriminator 1
 515 001a 002C     		cmp	r4, #0
 516 001c F3D0     		beq	.L37
 669:.\Generated_Source\PSoC4/CapSense_CSHL.c ****         }
 670:.\Generated_Source\PSoC4/CapSense_CSHL.c ****     }
 671:.\Generated_Source\PSoC4/CapSense_CSHL.c **** }
 517              		.loc 1 671 0 is_stmt 1
ARM GAS  C:\Users\merlin\AppData\Local\Temp\cchlGLBb.s 			page 22


 518              		@ sp needed
 519              	.LVL61:
 520 001e 10BD     		pop	{r4, pc}
 521              	.L39:
 522              		.align	2
 523              	.L38:
 524 0020 00000000 		.word	CapSense_sensorEnableMask
 525              		.cfi_endproc
 526              	.LFE41:
 527              		.size	CapSense_UpdateWidgetBaseline, .-CapSense_UpdateWidgetBaseline
 528              		.section	.text.CapSense_GetBaselineData,"ax",%progbits
 529              		.align	2
 530              		.global	CapSense_GetBaselineData
 531              		.code	16
 532              		.thumb_func
 533              		.type	CapSense_GetBaselineData, %function
 534              	CapSense_GetBaselineData:
 535              	.LFB42:
 672:.\Generated_Source\PSoC4/CapSense_CSHL.c **** 
 673:.\Generated_Source\PSoC4/CapSense_CSHL.c **** 
 674:.\Generated_Source\PSoC4/CapSense_CSHL.c **** /*******************************************************************************
 675:.\Generated_Source\PSoC4/CapSense_CSHL.c **** * Function Name: CapSense_GetBaselineData
 676:.\Generated_Source\PSoC4/CapSense_CSHL.c **** ********************************************************************************
 677:.\Generated_Source\PSoC4/CapSense_CSHL.c **** *
 678:.\Generated_Source\PSoC4/CapSense_CSHL.c **** * Summary:
 679:.\Generated_Source\PSoC4/CapSense_CSHL.c **** *  This function reads the sensor baseline from the component.
 680:.\Generated_Source\PSoC4/CapSense_CSHL.c **** *
 681:.\Generated_Source\PSoC4/CapSense_CSHL.c **** * Parameters:
 682:.\Generated_Source\PSoC4/CapSense_CSHL.c **** *  sensor:  Sensor number.
 683:.\Generated_Source\PSoC4/CapSense_CSHL.c **** *
 684:.\Generated_Source\PSoC4/CapSense_CSHL.c **** * Return:
 685:.\Generated_Source\PSoC4/CapSense_CSHL.c **** *  This API returns the baseline value of the sensor indicated by an argument.
 686:.\Generated_Source\PSoC4/CapSense_CSHL.c **** *
 687:.\Generated_Source\PSoC4/CapSense_CSHL.c **** * Global Variables:
 688:.\Generated_Source\PSoC4/CapSense_CSHL.c **** *  CapSense_sensorBaseline[] - the array with an initial values by scanning
 689:.\Generated_Source\PSoC4/CapSense_CSHL.c **** * 
 690:.\Generated_Source\PSoC4/CapSense_CSHL.c **** * Side Effects:
 691:.\Generated_Source\PSoC4/CapSense_CSHL.c **** *  None
 692:.\Generated_Source\PSoC4/CapSense_CSHL.c **** *
 693:.\Generated_Source\PSoC4/CapSense_CSHL.c **** *******************************************************************************/
 694:.\Generated_Source\PSoC4/CapSense_CSHL.c **** uint16 CapSense_GetBaselineData(uint32 sensor)
 695:.\Generated_Source\PSoC4/CapSense_CSHL.c **** {
 536              		.loc 1 695 0
 537              		.cfi_startproc
 538              	.LVL62:
 696:.\Generated_Source\PSoC4/CapSense_CSHL.c **** 	return (CapSense_sensorBaseline[sensor]);
 539              		.loc 1 696 0
 540 0000 4000     		lsl	r0, r0, #1
 541              	.LVL63:
 542 0002 014B     		ldr	r3, .L41
 543 0004 185A     		ldrh	r0, [r3, r0]
 697:.\Generated_Source\PSoC4/CapSense_CSHL.c **** }
 544              		.loc 1 697 0
 545              		@ sp needed
 546 0006 7047     		bx	lr
 547              	.L42:
 548              		.align	2
ARM GAS  C:\Users\merlin\AppData\Local\Temp\cchlGLBb.s 			page 23


 549              	.L41:
 550 0008 00000000 		.word	.LANCHOR0
 551              		.cfi_endproc
 552              	.LFE42:
 553              		.size	CapSense_GetBaselineData, .-CapSense_GetBaselineData
 554              		.section	.text.CapSense_SetBaselineData,"ax",%progbits
 555              		.align	2
 556              		.global	CapSense_SetBaselineData
 557              		.code	16
 558              		.thumb_func
 559              		.type	CapSense_SetBaselineData, %function
 560              	CapSense_SetBaselineData:
 561              	.LFB43:
 698:.\Generated_Source\PSoC4/CapSense_CSHL.c **** 
 699:.\Generated_Source\PSoC4/CapSense_CSHL.c **** 
 700:.\Generated_Source\PSoC4/CapSense_CSHL.c **** /*******************************************************************************
 701:.\Generated_Source\PSoC4/CapSense_CSHL.c **** * Function Name: CapSense_SetBaselineData
 702:.\Generated_Source\PSoC4/CapSense_CSHL.c **** ********************************************************************************
 703:.\Generated_Source\PSoC4/CapSense_CSHL.c **** *
 704:.\Generated_Source\PSoC4/CapSense_CSHL.c **** * Summary:
 705:.\Generated_Source\PSoC4/CapSense_CSHL.c **** *  This API writes the data value passed as an argument to the sensor baseline array.
 706:.\Generated_Source\PSoC4/CapSense_CSHL.c **** *
 707:.\Generated_Source\PSoC4/CapSense_CSHL.c **** * Parameters:
 708:.\Generated_Source\PSoC4/CapSense_CSHL.c **** *  sensor:  Sensor number.
 709:.\Generated_Source\PSoC4/CapSense_CSHL.c **** *  data:    Sensor baseline.
 710:.\Generated_Source\PSoC4/CapSense_CSHL.c **** *
 711:.\Generated_Source\PSoC4/CapSense_CSHL.c **** * Return:
 712:.\Generated_Source\PSoC4/CapSense_CSHL.c **** *  None.
 713:.\Generated_Source\PSoC4/CapSense_CSHL.c **** *
 714:.\Generated_Source\PSoC4/CapSense_CSHL.c **** * Global Variables:
 715:.\Generated_Source\PSoC4/CapSense_CSHL.c **** *  CapSense_sensorBaseline[] - the array with initial values by scanning
 716:.\Generated_Source\PSoC4/CapSense_CSHL.c **** * 
 717:.\Generated_Source\PSoC4/CapSense_CSHL.c **** * Side Effects:
 718:.\Generated_Source\PSoC4/CapSense_CSHL.c **** *  None
 719:.\Generated_Source\PSoC4/CapSense_CSHL.c **** *
 720:.\Generated_Source\PSoC4/CapSense_CSHL.c **** *******************************************************************************/
 721:.\Generated_Source\PSoC4/CapSense_CSHL.c **** void CapSense_SetBaselineData(uint32 sensor, uint16 data)
 722:.\Generated_Source\PSoC4/CapSense_CSHL.c **** {
 562              		.loc 1 722 0
 563              		.cfi_startproc
 564              	.LVL64:
 723:.\Generated_Source\PSoC4/CapSense_CSHL.c **** 	CapSense_sensorBaseline[sensor] = data;
 565              		.loc 1 723 0
 566 0000 4000     		lsl	r0, r0, #1
 567              	.LVL65:
 568 0002 014B     		ldr	r3, .L44
 569 0004 C152     		strh	r1, [r0, r3]
 724:.\Generated_Source\PSoC4/CapSense_CSHL.c **** }
 570              		.loc 1 724 0
 571              		@ sp needed
 572 0006 7047     		bx	lr
 573              	.L45:
 574              		.align	2
 575              	.L44:
 576 0008 00000000 		.word	.LANCHOR0
 577              		.cfi_endproc
 578              	.LFE43:
ARM GAS  C:\Users\merlin\AppData\Local\Temp\cchlGLBb.s 			page 24


 579              		.size	CapSense_SetBaselineData, .-CapSense_SetBaselineData
 580              		.section	.text.CapSense_GetDiffCountData,"ax",%progbits
 581              		.align	2
 582              		.global	CapSense_GetDiffCountData
 583              		.code	16
 584              		.thumb_func
 585              		.type	CapSense_GetDiffCountData, %function
 586              	CapSense_GetDiffCountData:
 587              	.LFB44:
 725:.\Generated_Source\PSoC4/CapSense_CSHL.c **** 
 726:.\Generated_Source\PSoC4/CapSense_CSHL.c **** 
 727:.\Generated_Source\PSoC4/CapSense_CSHL.c **** /*******************************************************************************
 728:.\Generated_Source\PSoC4/CapSense_CSHL.c **** * Function Name: CapSense_GetDiffCountData
 729:.\Generated_Source\PSoC4/CapSense_CSHL.c **** ********************************************************************************
 730:.\Generated_Source\PSoC4/CapSense_CSHL.c **** *
 731:.\Generated_Source\PSoC4/CapSense_CSHL.c **** * Summary:
 732:.\Generated_Source\PSoC4/CapSense_CSHL.c **** *  This function returns the Sensor Signal from the component.
 733:.\Generated_Source\PSoC4/CapSense_CSHL.c **** *
 734:.\Generated_Source\PSoC4/CapSense_CSHL.c **** * Parameters:
 735:.\Generated_Source\PSoC4/CapSense_CSHL.c **** *  sensor:  Sensor number.
 736:.\Generated_Source\PSoC4/CapSense_CSHL.c **** *
 737:.\Generated_Source\PSoC4/CapSense_CSHL.c **** * Return:
 738:.\Generated_Source\PSoC4/CapSense_CSHL.c **** *  This API returns the difference count value of the sensor indicated by the 
 739:.\Generated_Source\PSoC4/CapSense_CSHL.c **** *  argument. 
 740:.\Generated_Source\PSoC4/CapSense_CSHL.c **** *
 741:.\Generated_Source\PSoC4/CapSense_CSHL.c **** * Global Variables:
 742:.\Generated_Source\PSoC4/CapSense_CSHL.c **** *  CapSense_sensorSignal[] - the array with difference counts for sensors
 743:.\Generated_Source\PSoC4/CapSense_CSHL.c **** * 
 744:.\Generated_Source\PSoC4/CapSense_CSHL.c **** * Side Effects:
 745:.\Generated_Source\PSoC4/CapSense_CSHL.c **** *  None
 746:.\Generated_Source\PSoC4/CapSense_CSHL.c **** *
 747:.\Generated_Source\PSoC4/CapSense_CSHL.c **** *******************************************************************************/
 748:.\Generated_Source\PSoC4/CapSense_CSHL.c **** uint16 CapSense_GetDiffCountData(uint32 sensor)
 749:.\Generated_Source\PSoC4/CapSense_CSHL.c **** {
 588              		.loc 1 749 0
 589              		.cfi_startproc
 590              	.LVL66:
 750:.\Generated_Source\PSoC4/CapSense_CSHL.c **** 	return (CapSense_sensorSignal[sensor]);
 591              		.loc 1 750 0
 592 0000 4000     		lsl	r0, r0, #1
 593              	.LVL67:
 594 0002 024B     		ldr	r3, .L47
 595 0004 1818     		add	r0, r3, r0
 596 0006 0089     		ldrh	r0, [r0, #8]
 751:.\Generated_Source\PSoC4/CapSense_CSHL.c **** }
 597              		.loc 1 751 0
 598              		@ sp needed
 599 0008 7047     		bx	lr
 600              	.L48:
 601 000a C046     		.align	2
 602              	.L47:
 603 000c 00000000 		.word	.LANCHOR0
 604              		.cfi_endproc
 605              	.LFE44:
 606              		.size	CapSense_GetDiffCountData, .-CapSense_GetDiffCountData
 607              		.section	.text.CapSense_SetDiffCountData,"ax",%progbits
 608              		.align	2
ARM GAS  C:\Users\merlin\AppData\Local\Temp\cchlGLBb.s 			page 25


 609              		.global	CapSense_SetDiffCountData
 610              		.code	16
 611              		.thumb_func
 612              		.type	CapSense_SetDiffCountData, %function
 613              	CapSense_SetDiffCountData:
 614              	.LFB45:
 752:.\Generated_Source\PSoC4/CapSense_CSHL.c **** 
 753:.\Generated_Source\PSoC4/CapSense_CSHL.c **** 
 754:.\Generated_Source\PSoC4/CapSense_CSHL.c **** /*******************************************************************************
 755:.\Generated_Source\PSoC4/CapSense_CSHL.c **** * Function Name: CapSense_SetDiffCountData
 756:.\Generated_Source\PSoC4/CapSense_CSHL.c **** ********************************************************************************
 757:.\Generated_Source\PSoC4/CapSense_CSHL.c **** *
 758:.\Generated_Source\PSoC4/CapSense_CSHL.c **** * Summary:
 759:.\Generated_Source\PSoC4/CapSense_CSHL.c **** *  This API writes the data value passed as an argument to the sensor signal array.
 760:.\Generated_Source\PSoC4/CapSense_CSHL.c **** *
 761:.\Generated_Source\PSoC4/CapSense_CSHL.c **** * Parameters:
 762:.\Generated_Source\PSoC4/CapSense_CSHL.c **** *  sensor:  Sensor number.
 763:.\Generated_Source\PSoC4/CapSense_CSHL.c **** *  value:   Sensor signal.
 764:.\Generated_Source\PSoC4/CapSense_CSHL.c **** *
 765:.\Generated_Source\PSoC4/CapSense_CSHL.c **** * Return:
 766:.\Generated_Source\PSoC4/CapSense_CSHL.c **** *  None. 
 767:.\Generated_Source\PSoC4/CapSense_CSHL.c **** *
 768:.\Generated_Source\PSoC4/CapSense_CSHL.c **** * Global Variables:
 769:.\Generated_Source\PSoC4/CapSense_CSHL.c **** *  CapSense_sensorSignal[] - the array with difference counts for sensors
 770:.\Generated_Source\PSoC4/CapSense_CSHL.c **** * 
 771:.\Generated_Source\PSoC4/CapSense_CSHL.c **** * Side Effects:
 772:.\Generated_Source\PSoC4/CapSense_CSHL.c **** *  None
 773:.\Generated_Source\PSoC4/CapSense_CSHL.c **** *
 774:.\Generated_Source\PSoC4/CapSense_CSHL.c **** *******************************************************************************/
 775:.\Generated_Source\PSoC4/CapSense_CSHL.c **** void CapSense_SetDiffCountData(uint32 sensor, uint16 value)
 776:.\Generated_Source\PSoC4/CapSense_CSHL.c **** {
 615              		.loc 1 776 0
 616              		.cfi_startproc
 617              	.LVL68:
 777:.\Generated_Source\PSoC4/CapSense_CSHL.c ****     CapSense_sensorSignal[sensor] = value;
 618              		.loc 1 777 0
 619 0000 4000     		lsl	r0, r0, #1
 620              	.LVL69:
 621 0002 024B     		ldr	r3, .L50
 622 0004 1818     		add	r0, r3, r0
 623 0006 0181     		strh	r1, [r0, #8]
 778:.\Generated_Source\PSoC4/CapSense_CSHL.c **** }
 624              		.loc 1 778 0
 625              		@ sp needed
 626 0008 7047     		bx	lr
 627              	.L51:
 628 000a C046     		.align	2
 629              	.L50:
 630 000c 00000000 		.word	.LANCHOR0
 631              		.cfi_endproc
 632              	.LFE45:
 633              		.size	CapSense_SetDiffCountData, .-CapSense_SetDiffCountData
 634              		.section	.text.CapSense_GetFingerThreshold,"ax",%progbits
 635              		.align	2
 636              		.global	CapSense_GetFingerThreshold
 637              		.code	16
 638              		.thumb_func
ARM GAS  C:\Users\merlin\AppData\Local\Temp\cchlGLBb.s 			page 26


 639              		.type	CapSense_GetFingerThreshold, %function
 640              	CapSense_GetFingerThreshold:
 641              	.LFB46:
 779:.\Generated_Source\PSoC4/CapSense_CSHL.c **** 
 780:.\Generated_Source\PSoC4/CapSense_CSHL.c **** 
 781:.\Generated_Source\PSoC4/CapSense_CSHL.c **** /*******************************************************************************
 782:.\Generated_Source\PSoC4/CapSense_CSHL.c **** * Function Name: CapSense_GetFingerThreshold
 783:.\Generated_Source\PSoC4/CapSense_CSHL.c **** ********************************************************************************
 784:.\Generated_Source\PSoC4/CapSense_CSHL.c **** *
 785:.\Generated_Source\PSoC4/CapSense_CSHL.c **** * Summary:
 786:.\Generated_Source\PSoC4/CapSense_CSHL.c **** *  This function reads the finger threshold from the component.
 787:.\Generated_Source\PSoC4/CapSense_CSHL.c **** *
 788:.\Generated_Source\PSoC4/CapSense_CSHL.c **** * Parameters:
 789:.\Generated_Source\PSoC4/CapSense_CSHL.c **** *  widget:  widget number.
 790:.\Generated_Source\PSoC4/CapSense_CSHL.c **** *
 791:.\Generated_Source\PSoC4/CapSense_CSHL.c **** * Return:
 792:.\Generated_Source\PSoC4/CapSense_CSHL.c **** *  This API returns the finger threshold of the widget indicated by the argument. 
 793:.\Generated_Source\PSoC4/CapSense_CSHL.c **** *
 794:.\Generated_Source\PSoC4/CapSense_CSHL.c **** * Global Variables:
 795:.\Generated_Source\PSoC4/CapSense_CSHL.c **** *  CapSense_fingerThreshold[] - This array contains the level of signal 
 796:.\Generated_Source\PSoC4/CapSense_CSHL.c **** *  for each widget that is determined if a finger is present on the widget.
 797:.\Generated_Source\PSoC4/CapSense_CSHL.c **** *
 798:.\Generated_Source\PSoC4/CapSense_CSHL.c **** * Side Effects:
 799:.\Generated_Source\PSoC4/CapSense_CSHL.c **** *  None
 800:.\Generated_Source\PSoC4/CapSense_CSHL.c **** *
 801:.\Generated_Source\PSoC4/CapSense_CSHL.c **** *******************************************************************************/
 802:.\Generated_Source\PSoC4/CapSense_CSHL.c **** uint16 CapSense_GetFingerThreshold(uint32 widget)
 803:.\Generated_Source\PSoC4/CapSense_CSHL.c **** {
 642              		.loc 1 803 0
 643              		.cfi_startproc
 644              	.LVL70:
 804:.\Generated_Source\PSoC4/CapSense_CSHL.c **** 	return(CapSense_fingerThreshold[widget]);
 645              		.loc 1 804 0
 646 0000 4000     		lsl	r0, r0, #1
 647              	.LVL71:
 648 0002 024B     		ldr	r3, .L53
 649 0004 1818     		add	r0, r3, r0
 650 0006 008A     		ldrh	r0, [r0, #16]
 805:.\Generated_Source\PSoC4/CapSense_CSHL.c **** }
 651              		.loc 1 805 0
 652              		@ sp needed
 653 0008 7047     		bx	lr
 654              	.L54:
 655 000a C046     		.align	2
 656              	.L53:
 657 000c 00000000 		.word	.LANCHOR1
 658              		.cfi_endproc
 659              	.LFE46:
 660              		.size	CapSense_GetFingerThreshold, .-CapSense_GetFingerThreshold
 661              		.section	.text.CapSense_GetNoiseThreshold,"ax",%progbits
 662              		.align	2
 663              		.global	CapSense_GetNoiseThreshold
 664              		.code	16
 665              		.thumb_func
 666              		.type	CapSense_GetNoiseThreshold, %function
 667              	CapSense_GetNoiseThreshold:
 668              	.LFB47:
ARM GAS  C:\Users\merlin\AppData\Local\Temp\cchlGLBb.s 			page 27


 806:.\Generated_Source\PSoC4/CapSense_CSHL.c **** 
 807:.\Generated_Source\PSoC4/CapSense_CSHL.c **** 
 808:.\Generated_Source\PSoC4/CapSense_CSHL.c **** /*******************************************************************************
 809:.\Generated_Source\PSoC4/CapSense_CSHL.c **** * Function Name: CapSense_GetNoiseThreshold
 810:.\Generated_Source\PSoC4/CapSense_CSHL.c **** ********************************************************************************
 811:.\Generated_Source\PSoC4/CapSense_CSHL.c **** *
 812:.\Generated_Source\PSoC4/CapSense_CSHL.c **** * Summary:
 813:.\Generated_Source\PSoC4/CapSense_CSHL.c **** *  This function reads the noise threshold from the component.
 814:.\Generated_Source\PSoC4/CapSense_CSHL.c **** *
 815:.\Generated_Source\PSoC4/CapSense_CSHL.c **** * Parameters:
 816:.\Generated_Source\PSoC4/CapSense_CSHL.c **** *  widget:  widget number.
 817:.\Generated_Source\PSoC4/CapSense_CSHL.c **** *
 818:.\Generated_Source\PSoC4/CapSense_CSHL.c **** * Return:
 819:.\Generated_Source\PSoC4/CapSense_CSHL.c **** *  This API returns the noise threshold of the widget indicated by the argument. 
 820:.\Generated_Source\PSoC4/CapSense_CSHL.c **** *
 821:.\Generated_Source\PSoC4/CapSense_CSHL.c **** * Global Variables:
 822:.\Generated_Source\PSoC4/CapSense_CSHL.c **** *  CapSense_noiseThreshold[] - This array contains the level of signal 
 823:.\Generated_Source\PSoC4/CapSense_CSHL.c **** *  for each widget that determines the level of noise in the capacitive scan.
 824:.\Generated_Source\PSoC4/CapSense_CSHL.c **** * 
 825:.\Generated_Source\PSoC4/CapSense_CSHL.c **** * Side Effects:
 826:.\Generated_Source\PSoC4/CapSense_CSHL.c **** *  None
 827:.\Generated_Source\PSoC4/CapSense_CSHL.c **** *
 828:.\Generated_Source\PSoC4/CapSense_CSHL.c **** *******************************************************************************/
 829:.\Generated_Source\PSoC4/CapSense_CSHL.c **** uint16 CapSense_GetNoiseThreshold(uint32 widget)
 830:.\Generated_Source\PSoC4/CapSense_CSHL.c **** {
 669              		.loc 1 830 0
 670              		.cfi_startproc
 671              	.LVL72:
 831:.\Generated_Source\PSoC4/CapSense_CSHL.c **** 	return (CapSense_noiseThreshold[widget]);
 672              		.loc 1 831 0
 673 0000 4000     		lsl	r0, r0, #1
 674              	.LVL73:
 675 0002 024B     		ldr	r3, .L56
 676 0004 1818     		add	r0, r3, r0
 677 0006 8088     		ldrh	r0, [r0, #4]
 832:.\Generated_Source\PSoC4/CapSense_CSHL.c **** }
 678              		.loc 1 832 0
 679              		@ sp needed
 680 0008 7047     		bx	lr
 681              	.L57:
 682 000a C046     		.align	2
 683              	.L56:
 684 000c 00000000 		.word	.LANCHOR1
 685              		.cfi_endproc
 686              	.LFE47:
 687              		.size	CapSense_GetNoiseThreshold, .-CapSense_GetNoiseThreshold
 688              		.section	.text.CapSense_GetFingerHysteresis,"ax",%progbits
 689              		.align	2
 690              		.global	CapSense_GetFingerHysteresis
 691              		.code	16
 692              		.thumb_func
 693              		.type	CapSense_GetFingerHysteresis, %function
 694              	CapSense_GetFingerHysteresis:
 695              	.LFB48:
 833:.\Generated_Source\PSoC4/CapSense_CSHL.c **** 
 834:.\Generated_Source\PSoC4/CapSense_CSHL.c **** 
 835:.\Generated_Source\PSoC4/CapSense_CSHL.c **** /*******************************************************************************
ARM GAS  C:\Users\merlin\AppData\Local\Temp\cchlGLBb.s 			page 28


 836:.\Generated_Source\PSoC4/CapSense_CSHL.c **** * Function Name: CapSense_GetFingerHysteresis
 837:.\Generated_Source\PSoC4/CapSense_CSHL.c **** ********************************************************************************
 838:.\Generated_Source\PSoC4/CapSense_CSHL.c **** *
 839:.\Generated_Source\PSoC4/CapSense_CSHL.c **** * Summary:
 840:.\Generated_Source\PSoC4/CapSense_CSHL.c **** *  This function reads the Hysteresis value from the component.
 841:.\Generated_Source\PSoC4/CapSense_CSHL.c **** *
 842:.\Generated_Source\PSoC4/CapSense_CSHL.c **** * Parameters:
 843:.\Generated_Source\PSoC4/CapSense_CSHL.c **** *  widget:  widget number.
 844:.\Generated_Source\PSoC4/CapSense_CSHL.c **** *
 845:.\Generated_Source\PSoC4/CapSense_CSHL.c **** * Return:
 846:.\Generated_Source\PSoC4/CapSense_CSHL.c **** *  This API returns the Hysteresis of the widget indicated by the argument. 
 847:.\Generated_Source\PSoC4/CapSense_CSHL.c **** *
 848:.\Generated_Source\PSoC4/CapSense_CSHL.c **** * Global Variables:
 849:.\Generated_Source\PSoC4/CapSense_CSHL.c **** *  CapSense_hysteresis[] - This array contains the hysteresis value 
 850:.\Generated_Source\PSoC4/CapSense_CSHL.c **** *   for each widget.
 851:.\Generated_Source\PSoC4/CapSense_CSHL.c **** *  CapSense_widgetNumberSld - structure with dynamic sliders' parameters.
 852:.\Generated_Source\PSoC4/CapSense_CSHL.c **** *
 853:.\Generated_Source\PSoC4/CapSense_CSHL.c **** * Side Effects:
 854:.\Generated_Source\PSoC4/CapSense_CSHL.c **** *  None
 855:.\Generated_Source\PSoC4/CapSense_CSHL.c **** *
 856:.\Generated_Source\PSoC4/CapSense_CSHL.c **** *******************************************************************************/
 857:.\Generated_Source\PSoC4/CapSense_CSHL.c **** uint16 CapSense_GetFingerHysteresis(uint32 widget)
 858:.\Generated_Source\PSoC4/CapSense_CSHL.c **** {
 696              		.loc 1 858 0
 697              		.cfi_startproc
 698              	.LVL74:
 859:.\Generated_Source\PSoC4/CapSense_CSHL.c **** 	return(CapSense_hysteresis[widget]);
 699              		.loc 1 859 0
 700 0000 4000     		lsl	r0, r0, #1
 701              	.LVL75:
 702 0002 024B     		ldr	r3, .L59
 703 0004 1818     		add	r0, r3, r0
 704 0006 808A     		ldrh	r0, [r0, #20]
 860:.\Generated_Source\PSoC4/CapSense_CSHL.c **** }
 705              		.loc 1 860 0
 706              		@ sp needed
 707 0008 7047     		bx	lr
 708              	.L60:
 709 000a C046     		.align	2
 710              	.L59:
 711 000c 00000000 		.word	.LANCHOR1
 712              		.cfi_endproc
 713              	.LFE48:
 714              		.size	CapSense_GetFingerHysteresis, .-CapSense_GetFingerHysteresis
 715              		.section	.text.CapSense_GetNegativeNoiseThreshold,"ax",%progbits
 716              		.align	2
 717              		.global	CapSense_GetNegativeNoiseThreshold
 718              		.code	16
 719              		.thumb_func
 720              		.type	CapSense_GetNegativeNoiseThreshold, %function
 721              	CapSense_GetNegativeNoiseThreshold:
 722              	.LFB49:
 861:.\Generated_Source\PSoC4/CapSense_CSHL.c **** 
 862:.\Generated_Source\PSoC4/CapSense_CSHL.c **** 
 863:.\Generated_Source\PSoC4/CapSense_CSHL.c **** /*******************************************************************************
 864:.\Generated_Source\PSoC4/CapSense_CSHL.c **** * Function Name: CapSense_GetNegativeNoiseThreshold
 865:.\Generated_Source\PSoC4/CapSense_CSHL.c **** ********************************************************************************
ARM GAS  C:\Users\merlin\AppData\Local\Temp\cchlGLBb.s 			page 29


 866:.\Generated_Source\PSoC4/CapSense_CSHL.c **** *
 867:.\Generated_Source\PSoC4/CapSense_CSHL.c **** * Summary:
 868:.\Generated_Source\PSoC4/CapSense_CSHL.c **** *  This function reads the negative noise threshold from the component.
 869:.\Generated_Source\PSoC4/CapSense_CSHL.c **** *
 870:.\Generated_Source\PSoC4/CapSense_CSHL.c **** * Parameters: 
 871:.\Generated_Source\PSoC4/CapSense_CSHL.c **** *  None.
 872:.\Generated_Source\PSoC4/CapSense_CSHL.c **** *
 873:.\Generated_Source\PSoC4/CapSense_CSHL.c **** * Return Value: 
 874:.\Generated_Source\PSoC4/CapSense_CSHL.c **** *  This API returns the negative noise threshold
 875:.\Generated_Source\PSoC4/CapSense_CSHL.c **** *
 876:.\Generated_Source\PSoC4/CapSense_CSHL.c **** * Global Variables:
 877:.\Generated_Source\PSoC4/CapSense_CSHL.c **** *  CapSense_negativeNoiseThreshold - This variable specifies the negative 
 878:.\Generated_Source\PSoC4/CapSense_CSHL.c **** *   difference between the raw count and baseline levels for Baseline resetting
 879:.\Generated_Source\PSoC4/CapSense_CSHL.c **** *   to the raw count level.
 880:.\Generated_Source\PSoC4/CapSense_CSHL.c **** * 
 881:.\Generated_Source\PSoC4/CapSense_CSHL.c **** * Side Effects:
 882:.\Generated_Source\PSoC4/CapSense_CSHL.c **** *  None
 883:.\Generated_Source\PSoC4/CapSense_CSHL.c **** *
 884:.\Generated_Source\PSoC4/CapSense_CSHL.c **** *******************************************************************************/
 885:.\Generated_Source\PSoC4/CapSense_CSHL.c **** uint16 CapSense_GetNegativeNoiseThreshold(uint32 widget)
 886:.\Generated_Source\PSoC4/CapSense_CSHL.c **** {
 723              		.loc 1 886 0
 724              		.cfi_startproc
 725              	.LVL76:
 887:.\Generated_Source\PSoC4/CapSense_CSHL.c **** #if (CapSense_TUNING_METHOD != CapSense__TUNING_NONE)
 888:.\Generated_Source\PSoC4/CapSense_CSHL.c **** 	return(CapSense_negativeNoiseThreshold[widget]);
 726              		.loc 1 888 0
 727 0000 4000     		lsl	r0, r0, #1
 728              	.LVL77:
 729 0002 024B     		ldr	r3, .L62
 730 0004 1818     		add	r0, r3, r0
 731 0006 0089     		ldrh	r0, [r0, #8]
 889:.\Generated_Source\PSoC4/CapSense_CSHL.c **** #else
 890:.\Generated_Source\PSoC4/CapSense_CSHL.c **** 	return(CapSense_NEGATIVE_NOISE_THRESHOLD);
 891:.\Generated_Source\PSoC4/CapSense_CSHL.c **** #endif /* (CapSense_TUNING_METHOD != CapSense__TUNING_NONE) */ 
 892:.\Generated_Source\PSoC4/CapSense_CSHL.c **** }
 732              		.loc 1 892 0
 733              		@ sp needed
 734 0008 7047     		bx	lr
 735              	.L63:
 736 000a C046     		.align	2
 737              	.L62:
 738 000c 00000000 		.word	.LANCHOR1
 739              		.cfi_endproc
 740              	.LFE49:
 741              		.size	CapSense_GetNegativeNoiseThreshold, .-CapSense_GetNegativeNoiseThreshold
 742              		.section	.text.CapSense_SetFingerThreshold,"ax",%progbits
 743              		.align	2
 744              		.global	CapSense_SetFingerThreshold
 745              		.code	16
 746              		.thumb_func
 747              		.type	CapSense_SetFingerThreshold, %function
 748              	CapSense_SetFingerThreshold:
 749              	.LFB50:
 893:.\Generated_Source\PSoC4/CapSense_CSHL.c **** 
 894:.\Generated_Source\PSoC4/CapSense_CSHL.c **** 
 895:.\Generated_Source\PSoC4/CapSense_CSHL.c **** #if(CapSense_TUNING_METHOD != CapSense__TUNING_NONE)
ARM GAS  C:\Users\merlin\AppData\Local\Temp\cchlGLBb.s 			page 30


 896:.\Generated_Source\PSoC4/CapSense_CSHL.c **** 	/*******************************************************************************
 897:.\Generated_Source\PSoC4/CapSense_CSHL.c **** 	* Function Name: CapSense_SetFingerThreshold
 898:.\Generated_Source\PSoC4/CapSense_CSHL.c **** 	********************************************************************************
 899:.\Generated_Source\PSoC4/CapSense_CSHL.c **** 	*
 900:.\Generated_Source\PSoC4/CapSense_CSHL.c **** 	* Summary:
 901:.\Generated_Source\PSoC4/CapSense_CSHL.c **** 	*  This API sets the finger threshold value for a widget. 
 902:.\Generated_Source\PSoC4/CapSense_CSHL.c **** 	*
 903:.\Generated_Source\PSoC4/CapSense_CSHL.c **** 	* Parameters: 
 904:.\Generated_Source\PSoC4/CapSense_CSHL.c **** 	*  sensorNumber:  widget index. 
 905:.\Generated_Source\PSoC4/CapSense_CSHL.c **** 	*  value:  Finger threshold value for the widget.
 906:.\Generated_Source\PSoC4/CapSense_CSHL.c **** 	*
 907:.\Generated_Source\PSoC4/CapSense_CSHL.c **** 	* Return Value: 
 908:.\Generated_Source\PSoC4/CapSense_CSHL.c **** 	*  None
 909:.\Generated_Source\PSoC4/CapSense_CSHL.c **** 	*
 910:.\Generated_Source\PSoC4/CapSense_CSHL.c **** 	* Global Variables:
 911:.\Generated_Source\PSoC4/CapSense_CSHL.c **** 	*  CapSense_fingerThreshold[] - This array contains the level of signal 
 912:.\Generated_Source\PSoC4/CapSense_CSHL.c **** 	*   for each widget that determines if a finger is present on the widget.
 913:.\Generated_Source\PSoC4/CapSense_CSHL.c **** 	* 
 914:.\Generated_Source\PSoC4/CapSense_CSHL.c **** 	* Side Effects:
 915:.\Generated_Source\PSoC4/CapSense_CSHL.c **** 	*  None
 916:.\Generated_Source\PSoC4/CapSense_CSHL.c **** 	*
 917:.\Generated_Source\PSoC4/CapSense_CSHL.c **** 	*******************************************************************************/
 918:.\Generated_Source\PSoC4/CapSense_CSHL.c **** 	void CapSense_SetFingerThreshold(uint32 widget, uint16 value)
 919:.\Generated_Source\PSoC4/CapSense_CSHL.c **** 	{	
 750              		.loc 1 919 0
 751              		.cfi_startproc
 752              	.LVL78:
 920:.\Generated_Source\PSoC4/CapSense_CSHL.c **** 		CapSense_fingerThreshold[widget] = value;
 753              		.loc 1 920 0
 754 0000 4000     		lsl	r0, r0, #1
 755              	.LVL79:
 756 0002 024B     		ldr	r3, .L65
 757 0004 1818     		add	r0, r3, r0
 758 0006 0182     		strh	r1, [r0, #16]
 921:.\Generated_Source\PSoC4/CapSense_CSHL.c **** 	}
 759              		.loc 1 921 0
 760              		@ sp needed
 761 0008 7047     		bx	lr
 762              	.L66:
 763 000a C046     		.align	2
 764              	.L65:
 765 000c 00000000 		.word	.LANCHOR1
 766              		.cfi_endproc
 767              	.LFE50:
 768              		.size	CapSense_SetFingerThreshold, .-CapSense_SetFingerThreshold
 769              		.section	.text.CapSense_SetNoiseThreshold,"ax",%progbits
 770              		.align	2
 771              		.global	CapSense_SetNoiseThreshold
 772              		.code	16
 773              		.thumb_func
 774              		.type	CapSense_SetNoiseThreshold, %function
 775              	CapSense_SetNoiseThreshold:
 776              	.LFB51:
 922:.\Generated_Source\PSoC4/CapSense_CSHL.c **** 
 923:.\Generated_Source\PSoC4/CapSense_CSHL.c **** 
 924:.\Generated_Source\PSoC4/CapSense_CSHL.c **** 	/*******************************************************************************
 925:.\Generated_Source\PSoC4/CapSense_CSHL.c **** 	* Function Name: CapSense_SetNoiseThreshold
ARM GAS  C:\Users\merlin\AppData\Local\Temp\cchlGLBb.s 			page 31


 926:.\Generated_Source\PSoC4/CapSense_CSHL.c **** 	********************************************************************************
 927:.\Generated_Source\PSoC4/CapSense_CSHL.c **** 	*
 928:.\Generated_Source\PSoC4/CapSense_CSHL.c **** 	* Summary:
 929:.\Generated_Source\PSoC4/CapSense_CSHL.c **** 	*  This API sets the Noise Threshold value for each widget.
 930:.\Generated_Source\PSoC4/CapSense_CSHL.c **** 	*
 931:.\Generated_Source\PSoC4/CapSense_CSHL.c **** 	* Parameters:
 932:.\Generated_Source\PSoC4/CapSense_CSHL.c **** 	*  widget:  Sensor index number.
 933:.\Generated_Source\PSoC4/CapSense_CSHL.c **** 	*  value:   Noise Threshold value for widget.
 934:.\Generated_Source\PSoC4/CapSense_CSHL.c **** 	*
 935:.\Generated_Source\PSoC4/CapSense_CSHL.c **** 	* Return Value: 
 936:.\Generated_Source\PSoC4/CapSense_CSHL.c **** 	*  None
 937:.\Generated_Source\PSoC4/CapSense_CSHL.c **** 	*
 938:.\Generated_Source\PSoC4/CapSense_CSHL.c **** 	* Global Variables:
 939:.\Generated_Source\PSoC4/CapSense_CSHL.c **** 	*  CapSense_noiseThreshold[] - This array contains the level of signal 
 940:.\Generated_Source\PSoC4/CapSense_CSHL.c **** 	*   for each widget that determines the level of noise in the capacitive scan.
 941:.\Generated_Source\PSoC4/CapSense_CSHL.c **** 	* 
 942:.\Generated_Source\PSoC4/CapSense_CSHL.c **** 	* Side Effects:
 943:.\Generated_Source\PSoC4/CapSense_CSHL.c **** 	*  None
 944:.\Generated_Source\PSoC4/CapSense_CSHL.c **** 	*
 945:.\Generated_Source\PSoC4/CapSense_CSHL.c **** 	*******************************************************************************/
 946:.\Generated_Source\PSoC4/CapSense_CSHL.c **** 	void CapSense_SetNoiseThreshold(uint32 widget, uint16 value)
 947:.\Generated_Source\PSoC4/CapSense_CSHL.c **** 	{
 777              		.loc 1 947 0
 778              		.cfi_startproc
 779              	.LVL80:
 948:.\Generated_Source\PSoC4/CapSense_CSHL.c **** 		CapSense_noiseThreshold[widget] = value;
 780              		.loc 1 948 0
 781 0000 4000     		lsl	r0, r0, #1
 782              	.LVL81:
 783 0002 024B     		ldr	r3, .L68
 784 0004 1818     		add	r0, r3, r0
 785 0006 8180     		strh	r1, [r0, #4]
 949:.\Generated_Source\PSoC4/CapSense_CSHL.c **** 	}
 786              		.loc 1 949 0
 787              		@ sp needed
 788 0008 7047     		bx	lr
 789              	.L69:
 790 000a C046     		.align	2
 791              	.L68:
 792 000c 00000000 		.word	.LANCHOR1
 793              		.cfi_endproc
 794              	.LFE51:
 795              		.size	CapSense_SetNoiseThreshold, .-CapSense_SetNoiseThreshold
 796              		.section	.text.CapSense_SetFingerHysteresis,"ax",%progbits
 797              		.align	2
 798              		.global	CapSense_SetFingerHysteresis
 799              		.code	16
 800              		.thumb_func
 801              		.type	CapSense_SetFingerHysteresis, %function
 802              	CapSense_SetFingerHysteresis:
 803              	.LFB52:
 950:.\Generated_Source\PSoC4/CapSense_CSHL.c **** 
 951:.\Generated_Source\PSoC4/CapSense_CSHL.c **** 
 952:.\Generated_Source\PSoC4/CapSense_CSHL.c **** 	/*******************************************************************************
 953:.\Generated_Source\PSoC4/CapSense_CSHL.c **** 	* Function Name: CapSense_SetFingerHysteresis
 954:.\Generated_Source\PSoC4/CapSense_CSHL.c **** 	********************************************************************************
 955:.\Generated_Source\PSoC4/CapSense_CSHL.c **** 	*
ARM GAS  C:\Users\merlin\AppData\Local\Temp\cchlGLBb.s 			page 32


 956:.\Generated_Source\PSoC4/CapSense_CSHL.c **** 	* Summary:
 957:.\Generated_Source\PSoC4/CapSense_CSHL.c **** 	*  This API sets the Hysteresis value of a widget
 958:.\Generated_Source\PSoC4/CapSense_CSHL.c **** 	*
 959:.\Generated_Source\PSoC4/CapSense_CSHL.c **** 	* Parameters: 
 960:.\Generated_Source\PSoC4/CapSense_CSHL.c **** 	*  value:  Hysteresis value for widgets.
 961:.\Generated_Source\PSoC4/CapSense_CSHL.c **** 	*  widget:  widget number
 962:.\Generated_Source\PSoC4/CapSense_CSHL.c **** 	*
 963:.\Generated_Source\PSoC4/CapSense_CSHL.c **** 	* Return Value: 
 964:.\Generated_Source\PSoC4/CapSense_CSHL.c **** 	*  None
 965:.\Generated_Source\PSoC4/CapSense_CSHL.c **** 	*
 966:.\Generated_Source\PSoC4/CapSense_CSHL.c **** 	* Global Variables:
 967:.\Generated_Source\PSoC4/CapSense_CSHL.c **** 	*  CapSense_hysteresis[] - This array contains the hysteresis value for each widget.
 968:.\Generated_Source\PSoC4/CapSense_CSHL.c **** 	*  CapSense_widgetNumberSld - structure with dynamic sliders' parameters.
 969:.\Generated_Source\PSoC4/CapSense_CSHL.c **** 	*
 970:.\Generated_Source\PSoC4/CapSense_CSHL.c **** 	* Side Effects:
 971:.\Generated_Source\PSoC4/CapSense_CSHL.c **** 	*  None
 972:.\Generated_Source\PSoC4/CapSense_CSHL.c **** 	*
 973:.\Generated_Source\PSoC4/CapSense_CSHL.c **** 	*******************************************************************************/
 974:.\Generated_Source\PSoC4/CapSense_CSHL.c **** 	void CapSense_SetFingerHysteresis(uint32 widget, uint16 value)
 975:.\Generated_Source\PSoC4/CapSense_CSHL.c **** 	{
 804              		.loc 1 975 0
 805              		.cfi_startproc
 806              	.LVL82:
 976:.\Generated_Source\PSoC4/CapSense_CSHL.c **** 		CapSense_hysteresis[widget] = value;
 807              		.loc 1 976 0
 808 0000 4000     		lsl	r0, r0, #1
 809              	.LVL83:
 810 0002 024B     		ldr	r3, .L71
 811 0004 1818     		add	r0, r3, r0
 812 0006 8182     		strh	r1, [r0, #20]
 977:.\Generated_Source\PSoC4/CapSense_CSHL.c **** 	}
 813              		.loc 1 977 0
 814              		@ sp needed
 815 0008 7047     		bx	lr
 816              	.L72:
 817 000a C046     		.align	2
 818              	.L71:
 819 000c 00000000 		.word	.LANCHOR1
 820              		.cfi_endproc
 821              	.LFE52:
 822              		.size	CapSense_SetFingerHysteresis, .-CapSense_SetFingerHysteresis
 823              		.section	.text.CapSense_SetNegativeNoiseThreshold,"ax",%progbits
 824              		.align	2
 825              		.global	CapSense_SetNegativeNoiseThreshold
 826              		.code	16
 827              		.thumb_func
 828              		.type	CapSense_SetNegativeNoiseThreshold, %function
 829              	CapSense_SetNegativeNoiseThreshold:
 830              	.LFB53:
 978:.\Generated_Source\PSoC4/CapSense_CSHL.c **** 
 979:.\Generated_Source\PSoC4/CapSense_CSHL.c **** 
 980:.\Generated_Source\PSoC4/CapSense_CSHL.c **** 	/*******************************************************************************
 981:.\Generated_Source\PSoC4/CapSense_CSHL.c **** 	* Function Name: CapSense_SetNegativeNoiseThreshold
 982:.\Generated_Source\PSoC4/CapSense_CSHL.c **** 	********************************************************************************
 983:.\Generated_Source\PSoC4/CapSense_CSHL.c **** 	*
 984:.\Generated_Source\PSoC4/CapSense_CSHL.c **** 	* Summary:
 985:.\Generated_Source\PSoC4/CapSense_CSHL.c **** 	*  This API sets the Negative Noise Threshold value of a widget
ARM GAS  C:\Users\merlin\AppData\Local\Temp\cchlGLBb.s 			page 33


 986:.\Generated_Source\PSoC4/CapSense_CSHL.c **** 	*
 987:.\Generated_Source\PSoC4/CapSense_CSHL.c **** 	* Parameters: 
 988:.\Generated_Source\PSoC4/CapSense_CSHL.c **** 	*  value:  Negative Noise Threshold value for widgets.
 989:.\Generated_Source\PSoC4/CapSense_CSHL.c **** 	*  widget: widget number
 990:.\Generated_Source\PSoC4/CapSense_CSHL.c **** 	*
 991:.\Generated_Source\PSoC4/CapSense_CSHL.c **** 	* Return Value: 
 992:.\Generated_Source\PSoC4/CapSense_CSHL.c **** 	*  None
 993:.\Generated_Source\PSoC4/CapSense_CSHL.c **** 	*
 994:.\Generated_Source\PSoC4/CapSense_CSHL.c **** 	* Global Variables:
 995:.\Generated_Source\PSoC4/CapSense_CSHL.c **** 	*  CapSense_negativeNoiseThreshold  - This parameter specifies the negative 
 996:.\Generated_Source\PSoC4/CapSense_CSHL.c **** 	*   difference between the raw count and baseline levels for Baseline resetting to 
 997:.\Generated_Source\PSoC4/CapSense_CSHL.c **** 	*   the raw count level.
 998:.\Generated_Source\PSoC4/CapSense_CSHL.c **** 	* 
 999:.\Generated_Source\PSoC4/CapSense_CSHL.c **** 	* Side Effects:
1000:.\Generated_Source\PSoC4/CapSense_CSHL.c **** 	*  None
1001:.\Generated_Source\PSoC4/CapSense_CSHL.c **** 	*
1002:.\Generated_Source\PSoC4/CapSense_CSHL.c **** 	*******************************************************************************/
1003:.\Generated_Source\PSoC4/CapSense_CSHL.c **** 	void CapSense_SetNegativeNoiseThreshold(uint32 widget, uint16 value)
1004:.\Generated_Source\PSoC4/CapSense_CSHL.c **** 	{
 831              		.loc 1 1004 0
 832              		.cfi_startproc
 833              	.LVL84:
1005:.\Generated_Source\PSoC4/CapSense_CSHL.c **** 		CapSense_negativeNoiseThreshold[widget] = value;
 834              		.loc 1 1005 0
 835 0000 4000     		lsl	r0, r0, #1
 836              	.LVL85:
 837 0002 024B     		ldr	r3, .L74
 838 0004 1818     		add	r0, r3, r0
 839 0006 0181     		strh	r1, [r0, #8]
1006:.\Generated_Source\PSoC4/CapSense_CSHL.c **** 	}
 840              		.loc 1 1006 0
 841              		@ sp needed
 842 0008 7047     		bx	lr
 843              	.L75:
 844 000a C046     		.align	2
 845              	.L74:
 846 000c 00000000 		.word	.LANCHOR1
 847              		.cfi_endproc
 848              	.LFE53:
 849              		.size	CapSense_SetNegativeNoiseThreshold, .-CapSense_SetNegativeNoiseThreshold
 850              		.section	.text.CapSense_SetDebounce,"ax",%progbits
 851              		.align	2
 852              		.global	CapSense_SetDebounce
 853              		.code	16
 854              		.thumb_func
 855              		.type	CapSense_SetDebounce, %function
 856              	CapSense_SetDebounce:
 857              	.LFB54:
1007:.\Generated_Source\PSoC4/CapSense_CSHL.c **** 
1008:.\Generated_Source\PSoC4/CapSense_CSHL.c **** 
1009:.\Generated_Source\PSoC4/CapSense_CSHL.c **** 	/*******************************************************************************
1010:.\Generated_Source\PSoC4/CapSense_CSHL.c **** 	* Function Name: CapSense_SetDebounce
1011:.\Generated_Source\PSoC4/CapSense_CSHL.c **** 	********************************************************************************
1012:.\Generated_Source\PSoC4/CapSense_CSHL.c **** 	*
1013:.\Generated_Source\PSoC4/CapSense_CSHL.c **** 	* Summary:
1014:.\Generated_Source\PSoC4/CapSense_CSHL.c **** 	*  This API sets the debounce value for a widget.
1015:.\Generated_Source\PSoC4/CapSense_CSHL.c **** 	*
ARM GAS  C:\Users\merlin\AppData\Local\Temp\cchlGLBb.s 			page 34


1016:.\Generated_Source\PSoC4/CapSense_CSHL.c **** 	* Parameters: 
1017:.\Generated_Source\PSoC4/CapSense_CSHL.c **** 	*  value:  Debounce value for widget.
1018:.\Generated_Source\PSoC4/CapSense_CSHL.c **** 	*  widget: widget index.
1019:.\Generated_Source\PSoC4/CapSense_CSHL.c **** 	*
1020:.\Generated_Source\PSoC4/CapSense_CSHL.c **** 	* Return Value: 
1021:.\Generated_Source\PSoC4/CapSense_CSHL.c **** 	*  None
1022:.\Generated_Source\PSoC4/CapSense_CSHL.c **** 	*
1023:.\Generated_Source\PSoC4/CapSense_CSHL.c **** 	* Global Variables:
1024:.\Generated_Source\PSoC4/CapSense_CSHL.c **** 	*  CapSense_debounce[] - This array contains the debounce value for each widget.
1025:.\Generated_Source\PSoC4/CapSense_CSHL.c **** 	*  CapSense_widgetNumberSld - structure with dynamic sliders' parameters.
1026:.\Generated_Source\PSoC4/CapSense_CSHL.c **** 	*
1027:.\Generated_Source\PSoC4/CapSense_CSHL.c **** 	* Side Effects:
1028:.\Generated_Source\PSoC4/CapSense_CSHL.c **** 	*  None
1029:.\Generated_Source\PSoC4/CapSense_CSHL.c **** 	*
1030:.\Generated_Source\PSoC4/CapSense_CSHL.c **** 	*******************************************************************************/
1031:.\Generated_Source\PSoC4/CapSense_CSHL.c **** 	void CapSense_SetDebounce(uint32 widget, uint8 value)
1032:.\Generated_Source\PSoC4/CapSense_CSHL.c **** 	{
 858              		.loc 1 1032 0
 859              		.cfi_startproc
 860              	.LVL86:
1033:.\Generated_Source\PSoC4/CapSense_CSHL.c **** 		CapSense_debounce[widget] = value;
 861              		.loc 1 1033 0
 862 0000 014B     		ldr	r3, .L77
 863 0002 1954     		strb	r1, [r3, r0]
1034:.\Generated_Source\PSoC4/CapSense_CSHL.c **** 	}
 864              		.loc 1 1034 0
 865              		@ sp needed
 866 0004 7047     		bx	lr
 867              	.L78:
 868 0006 C046     		.align	2
 869              	.L77:
 870 0008 00000000 		.word	.LANCHOR1
 871              		.cfi_endproc
 872              	.LFE54:
 873              		.size	CapSense_SetDebounce, .-CapSense_SetDebounce
 874              		.section	.text.CapSense_SetLowBaselineReset,"ax",%progbits
 875              		.align	2
 876              		.global	CapSense_SetLowBaselineReset
 877              		.code	16
 878              		.thumb_func
 879              		.type	CapSense_SetLowBaselineReset, %function
 880              	CapSense_SetLowBaselineReset:
 881              	.LFB55:
1035:.\Generated_Source\PSoC4/CapSense_CSHL.c **** 
1036:.\Generated_Source\PSoC4/CapSense_CSHL.c **** 
1037:.\Generated_Source\PSoC4/CapSense_CSHL.c **** 	/*******************************************************************************
1038:.\Generated_Source\PSoC4/CapSense_CSHL.c **** 	* Function Name: CapSense_SetLowBaselineReset
1039:.\Generated_Source\PSoC4/CapSense_CSHL.c **** 	********************************************************************************
1040:.\Generated_Source\PSoC4/CapSense_CSHL.c **** 	*
1041:.\Generated_Source\PSoC4/CapSense_CSHL.c **** 	* Summary:
1042:.\Generated_Source\PSoC4/CapSense_CSHL.c **** 	*  This API sets the low baseline reset threshold value for the sensor.
1043:.\Generated_Source\PSoC4/CapSense_CSHL.c **** 	*
1044:.\Generated_Source\PSoC4/CapSense_CSHL.c **** 	* Parameters: 
1045:.\Generated_Source\PSoC4/CapSense_CSHL.c **** 	*  value: low baseline reset threshold value.
1046:.\Generated_Source\PSoC4/CapSense_CSHL.c **** 	*  sensor: Sensor index.
1047:.\Generated_Source\PSoC4/CapSense_CSHL.c **** 	*
1048:.\Generated_Source\PSoC4/CapSense_CSHL.c **** 	* Return Value: 
ARM GAS  C:\Users\merlin\AppData\Local\Temp\cchlGLBb.s 			page 35


1049:.\Generated_Source\PSoC4/CapSense_CSHL.c **** 	*  None
1050:.\Generated_Source\PSoC4/CapSense_CSHL.c **** 	*
1051:.\Generated_Source\PSoC4/CapSense_CSHL.c **** 	* Global Variables:
1052:.\Generated_Source\PSoC4/CapSense_CSHL.c **** 	*  CapSense_lowBaselineReset[] - This array contains the Baseline update 
1053:.\Generated_Source\PSoC4/CapSense_CSHL.c **** 	*  threshold value for each sensor.
1054:.\Generated_Source\PSoC4/CapSense_CSHL.c **** 	* 
1055:.\Generated_Source\PSoC4/CapSense_CSHL.c **** 	* Side Effects:
1056:.\Generated_Source\PSoC4/CapSense_CSHL.c **** 	*  None
1057:.\Generated_Source\PSoC4/CapSense_CSHL.c **** 	*
1058:.\Generated_Source\PSoC4/CapSense_CSHL.c **** 	*******************************************************************************/
1059:.\Generated_Source\PSoC4/CapSense_CSHL.c **** 	void CapSense_SetLowBaselineReset(uint32 sensor, uint8 value)
1060:.\Generated_Source\PSoC4/CapSense_CSHL.c **** 	{
 882              		.loc 1 1060 0
 883              		.cfi_startproc
 884              	.LVL87:
1061:.\Generated_Source\PSoC4/CapSense_CSHL.c **** 		CapSense_lowBaselineReset[sensor] = value;
 885              		.loc 1 1061 0
 886 0000 014B     		ldr	r3, .L80
 887 0002 1818     		add	r0, r3, r0
 888              	.LVL88:
 889 0004 0173     		strb	r1, [r0, #12]
1062:.\Generated_Source\PSoC4/CapSense_CSHL.c **** 	}
 890              		.loc 1 1062 0
 891              		@ sp needed
 892 0006 7047     		bx	lr
 893              	.L81:
 894              		.align	2
 895              	.L80:
 896 0008 00000000 		.word	.LANCHOR1
 897              		.cfi_endproc
 898              	.LFE55:
 899              		.size	CapSense_SetLowBaselineReset, .-CapSense_SetLowBaselineReset
 900              		.section	.text.CapSense_CheckIsSensorActive,"ax",%progbits
 901              		.align	2
 902              		.global	CapSense_CheckIsSensorActive
 903              		.code	16
 904              		.thumb_func
 905              		.type	CapSense_CheckIsSensorActive, %function
 906              	CapSense_CheckIsSensorActive:
 907              	.LFB56:
1063:.\Generated_Source\PSoC4/CapSense_CSHL.c **** #endif /* (CapSense_TUNING_METHOD != CapSense__TUNING_NONE) */
1064:.\Generated_Source\PSoC4/CapSense_CSHL.c **** 
1065:.\Generated_Source\PSoC4/CapSense_CSHL.c **** 
1066:.\Generated_Source\PSoC4/CapSense_CSHL.c **** /*******************************************************************************
1067:.\Generated_Source\PSoC4/CapSense_CSHL.c **** * Function Name: CapSense_CheckIsSensorActive
1068:.\Generated_Source\PSoC4/CapSense_CSHL.c **** ********************************************************************************
1069:.\Generated_Source\PSoC4/CapSense_CSHL.c **** *
1070:.\Generated_Source\PSoC4/CapSense_CSHL.c **** * Summary:
1071:.\Generated_Source\PSoC4/CapSense_CSHL.c **** *  Compares the CapSense_sensorSignal[sensor] array element to the finger
1072:.\Generated_Source\PSoC4/CapSense_CSHL.c **** *  threshold of the widget it belongs to. The hysteresis and debounce are taken into 
1073:.\Generated_Source\PSoC4/CapSense_CSHL.c **** *  account. The hysteresis is added or subtracted from the finger threshold 
1074:.\Generated_Source\PSoC4/CapSense_CSHL.c **** *  based on whether the sensor is currently active. 
1075:.\Generated_Source\PSoC4/CapSense_CSHL.c **** *  If the sensor is active, the threshold is lowered by the hysteresis amount.
1076:.\Generated_Source\PSoC4/CapSense_CSHL.c **** *  If the sensor is inactive, the threshold is raised by the hysteresis amount.
1077:.\Generated_Source\PSoC4/CapSense_CSHL.c **** *  The debounce counter is added to the sensor active transition.
1078:.\Generated_Source\PSoC4/CapSense_CSHL.c **** *  This function updates the CapSense_sensorOnMask[] array element.
1079:.\Generated_Source\PSoC4/CapSense_CSHL.c **** *
ARM GAS  C:\Users\merlin\AppData\Local\Temp\cchlGLBb.s 			page 36


1080:.\Generated_Source\PSoC4/CapSense_CSHL.c **** * Parameters:
1081:.\Generated_Source\PSoC4/CapSense_CSHL.c **** *  sensor:  Sensor number.
1082:.\Generated_Source\PSoC4/CapSense_CSHL.c **** *
1083:.\Generated_Source\PSoC4/CapSense_CSHL.c **** * Return:
1084:.\Generated_Source\PSoC4/CapSense_CSHL.c **** *  Returns sensor state 1 if active, 0 if not active.
1085:.\Generated_Source\PSoC4/CapSense_CSHL.c **** *
1086:.\Generated_Source\PSoC4/CapSense_CSHL.c **** * Global Variables:
1087:.\Generated_Source\PSoC4/CapSense_CSHL.c **** *  CapSense_sensorSignal[] - used to store the difference between 
1088:.\Generated_Source\PSoC4/CapSense_CSHL.c **** *  the current value of raw data and a previous value of the baseline.
1089:.\Generated_Source\PSoC4/CapSense_CSHL.c **** *  CapSense_debounceCounter[]   - used to store the current debounce 
1090:.\Generated_Source\PSoC4/CapSense_CSHL.c **** *  counter of the sensor. the widget which have this parameter are buttons, matrix 
1091:.\Generated_Source\PSoC4/CapSense_CSHL.c **** *  buttons, proximity, and guard. All other widgets don't have the  debounce parameter
1092:.\Generated_Source\PSoC4/CapSense_CSHL.c **** *  and use the last element of this array with value 0 (it means no debounce).
1093:.\Generated_Source\PSoC4/CapSense_CSHL.c **** *  CapSense_sensorOnMask[] - used to store the sensors on/off state.
1094:.\Generated_Source\PSoC4/CapSense_CSHL.c **** *  CapSense_sensorOnMask[0] contains the masked bits for sensors 
1095:.\Generated_Source\PSoC4/CapSense_CSHL.c **** *   0 through 7 (sensor 0 is bit 0, sensor 1 is bit 1).
1096:.\Generated_Source\PSoC4/CapSense_CSHL.c **** *  CapSense_sensorEnableMask[1] contains the masked bits for 
1097:.\Generated_Source\PSoC4/CapSense_CSHL.c **** *  sensors 8 through 15 (if needed), and so on.
1098:.\Generated_Source\PSoC4/CapSense_CSHL.c **** *  0 - sensor is inactive.
1099:.\Generated_Source\PSoC4/CapSense_CSHL.c **** *  1 - sensor is active.
1100:.\Generated_Source\PSoC4/CapSense_CSHL.c **** * 
1101:.\Generated_Source\PSoC4/CapSense_CSHL.c **** * Side Effects:
1102:.\Generated_Source\PSoC4/CapSense_CSHL.c **** *  None
1103:.\Generated_Source\PSoC4/CapSense_CSHL.c **** *
1104:.\Generated_Source\PSoC4/CapSense_CSHL.c **** *******************************************************************************/
1105:.\Generated_Source\PSoC4/CapSense_CSHL.c **** uint32 CapSense_CheckIsSensorActive(uint32 sensor)
1106:.\Generated_Source\PSoC4/CapSense_CSHL.c **** {	
 908              		.loc 1 1106 0
 909              		.cfi_startproc
 910              	.LVL89:
 911 0000 F0B5     		push	{r4, r5, r6, r7, lr}
 912              		.cfi_def_cfa_offset 20
 913              		.cfi_offset 4, -20
 914              		.cfi_offset 5, -16
 915              		.cfi_offset 6, -12
 916              		.cfi_offset 7, -8
 917              		.cfi_offset 14, -4
 918 0002 4746     		mov	r7, r8
 919 0004 80B4     		push	{r7}
 920              		.cfi_def_cfa_offset 24
 921              		.cfi_offset 8, -24
 922 0006 041C     		mov	r4, r0
1107:.\Generated_Source\PSoC4/CapSense_CSHL.c **** 	uint8 widget;
1108:.\Generated_Source\PSoC4/CapSense_CSHL.c **** 	uint8 debounce;
1109:.\Generated_Source\PSoC4/CapSense_CSHL.c **** 	uint8 debounceIndex;
1110:.\Generated_Source\PSoC4/CapSense_CSHL.c **** 
1111:.\Generated_Source\PSoC4/CapSense_CSHL.c **** 	uint16 fingerThreshold;
1112:.\Generated_Source\PSoC4/CapSense_CSHL.c **** 	uint16 hysteresis;
1113:.\Generated_Source\PSoC4/CapSense_CSHL.c **** 	
1114:.\Generated_Source\PSoC4/CapSense_CSHL.c **** 	
1115:.\Generated_Source\PSoC4/CapSense_CSHL.c ****     /* Prepare to find debounce counter index */
1116:.\Generated_Source\PSoC4/CapSense_CSHL.c ****     widget = CapSense_widgetNumber[sensor];
 923              		.loc 1 1116 0
 924 0008 224B     		ldr	r3, .L87
 925 000a 1D5C     		ldrb	r5, [r3, r0]
1117:.\Generated_Source\PSoC4/CapSense_CSHL.c **** 	
1118:.\Generated_Source\PSoC4/CapSense_CSHL.c ****     fingerThreshold = CapSense_fingerThreshold[widget];
ARM GAS  C:\Users\merlin\AppData\Local\Temp\cchlGLBb.s 			page 37


 926              		.loc 1 1118 0
 927 000c 224A     		ldr	r2, .L87+4
 928 000e 6B00     		lsl	r3, r5, #1
 929 0010 D318     		add	r3, r2, r3
 930 0012 198A     		ldrh	r1, [r3, #16]
 931 0014 8846     		mov	r8, r1
 932              	.LVL90:
1119:.\Generated_Source\PSoC4/CapSense_CSHL.c **** 	hysteresis = CapSense_hysteresis[widget];
 933              		.loc 1 1119 0
 934 0016 9E8A     		ldrh	r6, [r3, #20]
 935              	.LVL91:
1120:.\Generated_Source\PSoC4/CapSense_CSHL.c **** 	debounce = CapSense_debounce[widget];	
 936              		.loc 1 1120 0
 937 0018 575D     		ldrb	r7, [r2, r5]
 938              	.LVL92:
1121:.\Generated_Source\PSoC4/CapSense_CSHL.c **** 	
1122:.\Generated_Source\PSoC4/CapSense_CSHL.c **** 	    debounceIndex = widget;
1123:.\Generated_Source\PSoC4/CapSense_CSHL.c **** 
1124:.\Generated_Source\PSoC4/CapSense_CSHL.c **** 	
1125:.\Generated_Source\PSoC4/CapSense_CSHL.c ****     /* Was on */
1126:.\Generated_Source\PSoC4/CapSense_CSHL.c ****     if (0u != CapSense_GetBitValue(CapSense_sensorOnMask, sensor))
 939              		.loc 1 1126 0
 940 001a 2048     		ldr	r0, .L87+8
 941              	.LVL93:
 942 001c 1030     		add	r0, r0, #16
 943 001e 211C     		mov	r1, r4
 944 0020 FFF7FEFF 		bl	CapSense_GetBitValue
 945              	.LVL94:
 946 0024 0028     		cmp	r0, #0
 947 0026 11D0     		beq	.L83
1127:.\Generated_Source\PSoC4/CapSense_CSHL.c ****     {
1128:.\Generated_Source\PSoC4/CapSense_CSHL.c ****         /* Hysteresis minus */
1129:.\Generated_Source\PSoC4/CapSense_CSHL.c ****         if (CapSense_sensorSignal[sensor] < (fingerThreshold - hysteresis))
 948              		.loc 1 1129 0
 949 0028 6300     		lsl	r3, r4, #1
 950 002a 1C4A     		ldr	r2, .L87+8
 951 002c D318     		add	r3, r2, r3
 952 002e 1B89     		ldrh	r3, [r3, #8]
 953 0030 4246     		mov	r2, r8
 954 0032 961B     		sub	r6, r2, r6
 955              	.LVL95:
 956 0034 B342     		cmp	r3, r6
 957 0036 21DA     		bge	.L84
1130:.\Generated_Source\PSoC4/CapSense_CSHL.c ****         {
1131:.\Generated_Source\PSoC4/CapSense_CSHL.c **** 	   		CapSense_SetBitValue(CapSense_sensorOnMask, sensor, 0u);
 958              		.loc 1 1131 0
 959 0038 184E     		ldr	r6, .L87+8
 960 003a 301C     		mov	r0, r6
 961 003c 1030     		add	r0, r0, #16
 962 003e 211C     		mov	r1, r4
 963 0040 0022     		mov	r2, #0
 964 0042 FFF7FEFF 		bl	CapSense_SetBitValue
 965              	.LVL96:
1132:.\Generated_Source\PSoC4/CapSense_CSHL.c **** 			/* Sensor inactive - reset Debounce counter */
1133:.\Generated_Source\PSoC4/CapSense_CSHL.c ****             CapSense_debounceCounter[debounceIndex] = debounce;
 966              		.loc 1 1133 0
 967 0046 7519     		add	r5, r6, r5
ARM GAS  C:\Users\merlin\AppData\Local\Temp\cchlGLBb.s 			page 38


 968 0048 2F73     		strb	r7, [r5, #12]
 969 004a 17E0     		b	.L84
 970              	.LVL97:
 971              	.L83:
1134:.\Generated_Source\PSoC4/CapSense_CSHL.c ****         }
1135:.\Generated_Source\PSoC4/CapSense_CSHL.c ****     }
1136:.\Generated_Source\PSoC4/CapSense_CSHL.c ****     else    /* Was off */
1137:.\Generated_Source\PSoC4/CapSense_CSHL.c ****     {
1138:.\Generated_Source\PSoC4/CapSense_CSHL.c ****         /* Hysteresis plus */
1139:.\Generated_Source\PSoC4/CapSense_CSHL.c ****         if (CapSense_sensorSignal[sensor] >= (fingerThreshold + hysteresis))
 972              		.loc 1 1139 0
 973 004c 6300     		lsl	r3, r4, #1
 974 004e 134A     		ldr	r2, .L87+8
 975 0050 D318     		add	r3, r2, r3
 976 0052 1B89     		ldrh	r3, [r3, #8]
 977 0054 4644     		add	r6, r6, r8
 978              	.LVL98:
 979 0056 B342     		cmp	r3, r6
 980 0058 0DDB     		blt	.L85
1140:.\Generated_Source\PSoC4/CapSense_CSHL.c ****         {
1141:.\Generated_Source\PSoC4/CapSense_CSHL.c **** 			CapSense_debounceCounter[debounceIndex]--;
 981              		.loc 1 1141 0
 982 005a 5519     		add	r5, r2, r5
 983 005c 2B7B     		ldrb	r3, [r5, #12]
 984 005e 013B     		sub	r3, r3, #1
 985 0060 DBB2     		uxtb	r3, r3
 986 0062 2B73     		strb	r3, [r5, #12]
1142:.\Generated_Source\PSoC4/CapSense_CSHL.c ****             /* Sensor active, decrement debounce counter */
1143:.\Generated_Source\PSoC4/CapSense_CSHL.c ****             if(CapSense_debounceCounter[debounceIndex] == 0u)
 987              		.loc 1 1143 0
 988 0064 002B     		cmp	r3, #0
 989 0066 09D1     		bne	.L84
1144:.\Generated_Source\PSoC4/CapSense_CSHL.c ****             {
1145:.\Generated_Source\PSoC4/CapSense_CSHL.c ****                 CapSense_SetBitValue(CapSense_sensorOnMask, sensor, 1u); 
 990              		.loc 1 1145 0
 991 0068 101C     		mov	r0, r2
 992 006a 1030     		add	r0, r0, #16
 993 006c 211C     		mov	r1, r4
 994 006e 0122     		mov	r2, #1
 995 0070 FFF7FEFF 		bl	CapSense_SetBitValue
 996              	.LVL99:
 997 0074 02E0     		b	.L84
 998              	.L85:
1146:.\Generated_Source\PSoC4/CapSense_CSHL.c ****             }
1147:.\Generated_Source\PSoC4/CapSense_CSHL.c ****         }
1148:.\Generated_Source\PSoC4/CapSense_CSHL.c ****         else
1149:.\Generated_Source\PSoC4/CapSense_CSHL.c ****         {
1150:.\Generated_Source\PSoC4/CapSense_CSHL.c ****             /* Sensor inactive - reset Debounce counter */
1151:.\Generated_Source\PSoC4/CapSense_CSHL.c ****             CapSense_debounceCounter[debounceIndex] = debounce;
 999              		.loc 1 1151 0
 1000 0076 094B     		ldr	r3, .L87+8
 1001 0078 5D19     		add	r5, r3, r5
 1002 007a 2F73     		strb	r7, [r5, #12]
 1003              	.L84:
1152:.\Generated_Source\PSoC4/CapSense_CSHL.c ****         }
1153:.\Generated_Source\PSoC4/CapSense_CSHL.c ****     }
1154:.\Generated_Source\PSoC4/CapSense_CSHL.c ****     
ARM GAS  C:\Users\merlin\AppData\Local\Temp\cchlGLBb.s 			page 39


1155:.\Generated_Source\PSoC4/CapSense_CSHL.c ****     return ((uint32)((0u != CapSense_GetBitValue(CapSense_sensorOnMask, sensor)) ? 1u : 0u));
 1004              		.loc 1 1155 0
 1005 007c 0748     		ldr	r0, .L87+8
 1006 007e 1030     		add	r0, r0, #16
 1007 0080 211C     		mov	r1, r4
 1008 0082 FFF7FEFF 		bl	CapSense_GetBitValue
 1009              	.LVL100:
 1010 0086 0028     		cmp	r0, #0
 1011 0088 00D0     		beq	.L86
 1012 008a 0120     		mov	r0, #1
 1013              	.L86:
1156:.\Generated_Source\PSoC4/CapSense_CSHL.c **** }
 1014              		.loc 1 1156 0 discriminator 4
 1015              		@ sp needed
 1016              	.LVL101:
 1017              	.LVL102:
 1018              	.LVL103:
 1019 008c 04BC     		pop	{r2}
 1020 008e 9046     		mov	r8, r2
 1021 0090 F0BD     		pop	{r4, r5, r6, r7, pc}
 1022              	.L88:
 1023 0092 C046     		.align	2
 1024              	.L87:
 1025 0094 00000000 		.word	CapSense_widgetNumber
 1026 0098 00000000 		.word	.LANCHOR1
 1027 009c 00000000 		.word	.LANCHOR0
 1028              		.cfi_endproc
 1029              	.LFE56:
 1030              		.size	CapSense_CheckIsSensorActive, .-CapSense_CheckIsSensorActive
 1031              		.section	.text.CapSense_CheckIsWidgetActive,"ax",%progbits
 1032              		.align	2
 1033              		.global	CapSense_CheckIsWidgetActive
 1034              		.code	16
 1035              		.thumb_func
 1036              		.type	CapSense_CheckIsWidgetActive, %function
 1037              	CapSense_CheckIsWidgetActive:
 1038              	.LFB57:
1157:.\Generated_Source\PSoC4/CapSense_CSHL.c **** 
1158:.\Generated_Source\PSoC4/CapSense_CSHL.c **** 
1159:.\Generated_Source\PSoC4/CapSense_CSHL.c **** /*******************************************************************************
1160:.\Generated_Source\PSoC4/CapSense_CSHL.c **** * Function Name: CapSense_CheckIsWidgetActive
1161:.\Generated_Source\PSoC4/CapSense_CSHL.c **** ********************************************************************************
1162:.\Generated_Source\PSoC4/CapSense_CSHL.c **** *
1163:.\Generated_Source\PSoC4/CapSense_CSHL.c **** * Summary:
1164:.\Generated_Source\PSoC4/CapSense_CSHL.c **** *  Compares the CapSense_sensorSignal[] array element to the finger threshold of 
1165:.\Generated_Source\PSoC4/CapSense_CSHL.c **** * the widget it belongs to. The hysteresis and debounce are taken into account. 
1166:.\Generated_Source\PSoC4/CapSense_CSHL.c **** * The hysteresis is added or subtracted from the finger threshold based on whether
1167:.\Generated_Source\PSoC4/CapSense_CSHL.c **** *  the sensor is currently active. If the sensor is active, the threshold is 
1168:.\Generated_Source\PSoC4/CapSense_CSHL.c **** *  lowered by the hysteresis amount. If the sensor is inactive, the threshold 
1169:.\Generated_Source\PSoC4/CapSense_CSHL.c **** *  is raised by the hysteresis amount. 
1170:.\Generated_Source\PSoC4/CapSense_CSHL.c **** * The debounce counter added to the sensor active transition. 
1171:.\Generated_Source\PSoC4/CapSense_CSHL.c **** * This function updates CapSense_sensorOnMask[] array element
1172:.\Generated_Source\PSoC4/CapSense_CSHL.c **** *
1173:.\Generated_Source\PSoC4/CapSense_CSHL.c **** * Parameters:
1174:.\Generated_Source\PSoC4/CapSense_CSHL.c **** *  widget:  widget number.
1175:.\Generated_Source\PSoC4/CapSense_CSHL.c **** *
1176:.\Generated_Source\PSoC4/CapSense_CSHL.c **** * Return:
ARM GAS  C:\Users\merlin\AppData\Local\Temp\cchlGLBb.s 			page 40


1177:.\Generated_Source\PSoC4/CapSense_CSHL.c **** *  Returns widget sensor state 1 if one or more sensors within widget is/are 
1178:.\Generated_Source\PSoC4/CapSense_CSHL.c **** *  active, 0 if all sensors within widget are inactive.
1179:.\Generated_Source\PSoC4/CapSense_CSHL.c **** *
1180:.\Generated_Source\PSoC4/CapSense_CSHL.c **** * Global Variables:
1181:.\Generated_Source\PSoC4/CapSense_CSHL.c **** *  rawDataIndex[]: Contains the  1st sensor position in the widget
1182:.\Generated_Source\PSoC4/CapSense_CSHL.c **** * 
1183:.\Generated_Source\PSoC4/CapSense_CSHL.c **** * Side Effects:
1184:.\Generated_Source\PSoC4/CapSense_CSHL.c **** *  None
1185:.\Generated_Source\PSoC4/CapSense_CSHL.c **** *
1186:.\Generated_Source\PSoC4/CapSense_CSHL.c **** *******************************************************************************/
1187:.\Generated_Source\PSoC4/CapSense_CSHL.c **** uint32 CapSense_CheckIsWidgetActive(uint32 widget)
1188:.\Generated_Source\PSoC4/CapSense_CSHL.c **** {
 1039              		.loc 1 1188 0
 1040              		.cfi_startproc
 1041              	.LVL104:
 1042 0000 08B5     		push	{r3, lr}
 1043              		.cfi_def_cfa_offset 8
 1044              		.cfi_offset 3, -8
 1045              		.cfi_offset 14, -4
 1046              	.LVL105:
1189:.\Generated_Source\PSoC4/CapSense_CSHL.c ****     uint32 rawIndex = (uint32)CapSense_rawDataIndex[widget];
1190:.\Generated_Source\PSoC4/CapSense_CSHL.c ****     uint32 numOfSensors = (uint32)CapSense_numberOfSensors[widget] + rawIndex;
1191:.\Generated_Source\PSoC4/CapSense_CSHL.c ****     uint32 state = 0u;
1192:.\Generated_Source\PSoC4/CapSense_CSHL.c **** 
1193:.\Generated_Source\PSoC4/CapSense_CSHL.c ****     /* Check all sensors of widget */
1194:.\Generated_Source\PSoC4/CapSense_CSHL.c ****     do
1195:.\Generated_Source\PSoC4/CapSense_CSHL.c ****     {
1196:.\Generated_Source\PSoC4/CapSense_CSHL.c ****         if(CapSense_CheckIsSensorActive((uint32)rawIndex) != 0u)
 1047              		.loc 1 1196 0
 1048 0002 0020     		mov	r0, #0
 1049              	.LVL106:
 1050 0004 FFF7FEFF 		bl	CapSense_CheckIsSensorActive
 1051              	.LVL107:
 1052 0008 0028     		cmp	r0, #0
 1053 000a 00D0     		beq	.L90
1197:.\Generated_Source\PSoC4/CapSense_CSHL.c ****         {
1198:.\Generated_Source\PSoC4/CapSense_CSHL.c ****             state = CapSense_SENSOR_IS_ACTIVE;
 1054              		.loc 1 1198 0
 1055 000c 0120     		mov	r0, #1
 1056              	.L90:
 1057              	.LVL108:
1199:.\Generated_Source\PSoC4/CapSense_CSHL.c ****         }
1200:.\Generated_Source\PSoC4/CapSense_CSHL.c ****         rawIndex++;
1201:.\Generated_Source\PSoC4/CapSense_CSHL.c ****     }
1202:.\Generated_Source\PSoC4/CapSense_CSHL.c ****     while(rawIndex < numOfSensors);
1203:.\Generated_Source\PSoC4/CapSense_CSHL.c ****     
1204:.\Generated_Source\PSoC4/CapSense_CSHL.c **** 
1205:.\Generated_Source\PSoC4/CapSense_CSHL.c ****     
1206:.\Generated_Source\PSoC4/CapSense_CSHL.c ****     return state;
1207:.\Generated_Source\PSoC4/CapSense_CSHL.c **** }
 1058              		.loc 1 1207 0
 1059              		@ sp needed
 1060 000e 08BD     		pop	{r3, pc}
 1061              		.cfi_endproc
 1062              	.LFE57:
 1063              		.size	CapSense_CheckIsWidgetActive, .-CapSense_CheckIsWidgetActive
 1064              		.section	.text.CapSense_CheckIsAnyWidgetActive,"ax",%progbits
ARM GAS  C:\Users\merlin\AppData\Local\Temp\cchlGLBb.s 			page 41


 1065              		.align	2
 1066              		.global	CapSense_CheckIsAnyWidgetActive
 1067              		.code	16
 1068              		.thumb_func
 1069              		.type	CapSense_CheckIsAnyWidgetActive, %function
 1070              	CapSense_CheckIsAnyWidgetActive:
 1071              	.LFB58:
1208:.\Generated_Source\PSoC4/CapSense_CSHL.c **** 
1209:.\Generated_Source\PSoC4/CapSense_CSHL.c **** 
1210:.\Generated_Source\PSoC4/CapSense_CSHL.c **** /*******************************************************************************
1211:.\Generated_Source\PSoC4/CapSense_CSHL.c **** * Function Name: CapSense_CheckIsAnyWidgetActive
1212:.\Generated_Source\PSoC4/CapSense_CSHL.c **** ********************************************************************************
1213:.\Generated_Source\PSoC4/CapSense_CSHL.c **** *
1214:.\Generated_Source\PSoC4/CapSense_CSHL.c **** * Summary:
1215:.\Generated_Source\PSoC4/CapSense_CSHL.c **** *  Compares all the sensors of the CapSense_Signal[] array to their finger 
1216:.\Generated_Source\PSoC4/CapSense_CSHL.c **** *  threshold. Calls CapSense_CheckIsWidgetActive() for each widget so 
1217:.\Generated_Source\PSoC4/CapSense_CSHL.c **** *  the CapSense_sensorOnMask[] array is up to date after calling this 
1218:.\Generated_Source\PSoC4/CapSense_CSHL.c **** *  function.
1219:.\Generated_Source\PSoC4/CapSense_CSHL.c **** *
1220:.\Generated_Source\PSoC4/CapSense_CSHL.c **** * Parameters:
1221:.\Generated_Source\PSoC4/CapSense_CSHL.c **** *  widget:  widget number.
1222:.\Generated_Source\PSoC4/CapSense_CSHL.c **** *
1223:.\Generated_Source\PSoC4/CapSense_CSHL.c **** * Return:
1224:.\Generated_Source\PSoC4/CapSense_CSHL.c **** *  Returns 1 if any widget is active, 0 none of widgets are active.
1225:.\Generated_Source\PSoC4/CapSense_CSHL.c **** *
1226:.\Generated_Source\PSoC4/CapSense_CSHL.c **** * Global Variables:
1227:.\Generated_Source\PSoC4/CapSense_CSHL.c **** *  None
1228:.\Generated_Source\PSoC4/CapSense_CSHL.c **** * 
1229:.\Generated_Source\PSoC4/CapSense_CSHL.c **** * Side Effects:
1230:.\Generated_Source\PSoC4/CapSense_CSHL.c **** *  None
1231:.\Generated_Source\PSoC4/CapSense_CSHL.c **** *
1232:.\Generated_Source\PSoC4/CapSense_CSHL.c **** *******************************************************************************/
1233:.\Generated_Source\PSoC4/CapSense_CSHL.c **** uint32 CapSense_CheckIsAnyWidgetActive(void)
1234:.\Generated_Source\PSoC4/CapSense_CSHL.c **** {
 1072              		.loc 1 1234 0
 1073              		.cfi_startproc
 1074 0000 38B5     		push	{r3, r4, r5, lr}
 1075              		.cfi_def_cfa_offset 16
 1076              		.cfi_offset 3, -16
 1077              		.cfi_offset 4, -12
 1078              		.cfi_offset 5, -8
 1079              		.cfi_offset 14, -4
 1080              	.LVL109:
1235:.\Generated_Source\PSoC4/CapSense_CSHL.c **** 
1236:.\Generated_Source\PSoC4/CapSense_CSHL.c **** 	    uint32 i;
1237:.\Generated_Source\PSoC4/CapSense_CSHL.c ****     uint32 state = 0u;
 1081              		.loc 1 1237 0
 1082 0002 0025     		mov	r5, #0
1238:.\Generated_Source\PSoC4/CapSense_CSHL.c ****     
1239:.\Generated_Source\PSoC4/CapSense_CSHL.c ****     for(i = 0u; i < CapSense_TOTAL_WIDGET_COUNT; i++)
 1083              		.loc 1 1239 0
 1084 0004 0024     		mov	r4, #0
 1085 0006 06E0     		b	.L93
 1086              	.LVL110:
 1087              	.L95:
1240:.\Generated_Source\PSoC4/CapSense_CSHL.c ****     {
1241:.\Generated_Source\PSoC4/CapSense_CSHL.c ****         if (CapSense_CheckIsWidgetActive(i) != 0u)
ARM GAS  C:\Users\merlin\AppData\Local\Temp\cchlGLBb.s 			page 42


 1088              		.loc 1 1241 0
 1089 0008 201C     		mov	r0, r4
 1090 000a FFF7FEFF 		bl	CapSense_CheckIsWidgetActive
 1091              	.LVL111:
 1092 000e 0028     		cmp	r0, #0
 1093 0010 00D0     		beq	.L94
1242:.\Generated_Source\PSoC4/CapSense_CSHL.c ****         {
1243:.\Generated_Source\PSoC4/CapSense_CSHL.c ****             state = CapSense_WIDGET_IS_ACTIVE;
 1094              		.loc 1 1243 0
 1095 0012 0125     		mov	r5, #1
 1096              	.LVL112:
 1097              	.L94:
1239:.\Generated_Source\PSoC4/CapSense_CSHL.c ****     {
 1098              		.loc 1 1239 0 discriminator 2
 1099 0014 0134     		add	r4, r4, #1
 1100              	.LVL113:
 1101              	.L93:
1239:.\Generated_Source\PSoC4/CapSense_CSHL.c ****     {
 1102              		.loc 1 1239 0 is_stmt 0 discriminator 1
 1103 0016 002C     		cmp	r4, #0
 1104 0018 F6D0     		beq	.L95
1244:.\Generated_Source\PSoC4/CapSense_CSHL.c ****         }
1245:.\Generated_Source\PSoC4/CapSense_CSHL.c ****     }
1246:.\Generated_Source\PSoC4/CapSense_CSHL.c ****     
1247:.\Generated_Source\PSoC4/CapSense_CSHL.c **** 
1248:.\Generated_Source\PSoC4/CapSense_CSHL.c **** 
1249:.\Generated_Source\PSoC4/CapSense_CSHL.c ****     return state;
1250:.\Generated_Source\PSoC4/CapSense_CSHL.c **** }
 1105              		.loc 1 1250 0 is_stmt 1
 1106 001a 281C     		mov	r0, r5
 1107              		@ sp needed
 1108              	.LVL114:
 1109              	.LVL115:
 1110 001c 38BD     		pop	{r3, r4, r5, pc}
 1111              		.cfi_endproc
 1112              	.LFE58:
 1113              		.size	CapSense_CheckIsAnyWidgetActive, .-CapSense_CheckIsAnyWidgetActive
 1114 001e C046     		.section	.text.CapSense_EnableWidget,"ax",%progbits
 1115              		.align	2
 1116              		.global	CapSense_EnableWidget
 1117              		.code	16
 1118              		.thumb_func
 1119              		.type	CapSense_EnableWidget, %function
 1120              	CapSense_EnableWidget:
 1121              	.LFB59:
1251:.\Generated_Source\PSoC4/CapSense_CSHL.c **** 
1252:.\Generated_Source\PSoC4/CapSense_CSHL.c **** 
1253:.\Generated_Source\PSoC4/CapSense_CSHL.c **** /*******************************************************************************
1254:.\Generated_Source\PSoC4/CapSense_CSHL.c **** * Function Name: CapSense_EnableWidget
1255:.\Generated_Source\PSoC4/CapSense_CSHL.c **** ********************************************************************************
1256:.\Generated_Source\PSoC4/CapSense_CSHL.c **** *
1257:.\Generated_Source\PSoC4/CapSense_CSHL.c **** * Summary:
1258:.\Generated_Source\PSoC4/CapSense_CSHL.c **** *  Enables all the widget elements (sensors) to the scanning process.
1259:.\Generated_Source\PSoC4/CapSense_CSHL.c **** *
1260:.\Generated_Source\PSoC4/CapSense_CSHL.c **** * Parameters:
1261:.\Generated_Source\PSoC4/CapSense_CSHL.c **** *  widget:  widget number.
1262:.\Generated_Source\PSoC4/CapSense_CSHL.c **** *
ARM GAS  C:\Users\merlin\AppData\Local\Temp\cchlGLBb.s 			page 43


1263:.\Generated_Source\PSoC4/CapSense_CSHL.c **** * Return:
1264:.\Generated_Source\PSoC4/CapSense_CSHL.c **** *  None
1265:.\Generated_Source\PSoC4/CapSense_CSHL.c **** *
1266:.\Generated_Source\PSoC4/CapSense_CSHL.c **** * Global Variables:
1267:.\Generated_Source\PSoC4/CapSense_CSHL.c **** *  CapSense_sensorEnableMask[] - used to store the sensor scanning 
1268:.\Generated_Source\PSoC4/CapSense_CSHL.c **** *  state.
1269:.\Generated_Source\PSoC4/CapSense_CSHL.c **** *  CapSense_sensorEnableMask[0] contains the masked bits for sensors 
1270:.\Generated_Source\PSoC4/CapSense_CSHL.c **** *  0 through 7 (sensor 0 is bit 0, sensor 1 is bit 1).
1271:.\Generated_Source\PSoC4/CapSense_CSHL.c **** *  CapSense_sensorEnableMask[1] contains the masked bits for 
1272:.\Generated_Source\PSoC4/CapSense_CSHL.c **** *  sensors 8 through 15 (if needed), and so on.
1273:.\Generated_Source\PSoC4/CapSense_CSHL.c **** *  0 - sensor doesn't scan by CapSense_ScanEnabledWidgets().
1274:.\Generated_Source\PSoC4/CapSense_CSHL.c **** *  1 - sensor scans by CapSense_ScanEnabledWidgets().
1275:.\Generated_Source\PSoC4/CapSense_CSHL.c **** * 
1276:.\Generated_Source\PSoC4/CapSense_CSHL.c **** * Side Effects:
1277:.\Generated_Source\PSoC4/CapSense_CSHL.c **** *  None
1278:.\Generated_Source\PSoC4/CapSense_CSHL.c **** *
1279:.\Generated_Source\PSoC4/CapSense_CSHL.c **** *******************************************************************************/
1280:.\Generated_Source\PSoC4/CapSense_CSHL.c **** void CapSense_EnableWidget(uint32 widget)
1281:.\Generated_Source\PSoC4/CapSense_CSHL.c **** {
 1122              		.loc 1 1281 0
 1123              		.cfi_startproc
 1124              	.LVL116:
 1125 0000 08B5     		push	{r3, lr}
 1126              		.cfi_def_cfa_offset 8
 1127              		.cfi_offset 3, -8
 1128              		.cfi_offset 14, -4
 1129              	.LVL117:
1282:.\Generated_Source\PSoC4/CapSense_CSHL.c **** 
1283:.\Generated_Source\PSoC4/CapSense_CSHL.c ****     uint8 rawIndex = CapSense_rawDataIndex[widget];
1284:.\Generated_Source\PSoC4/CapSense_CSHL.c ****     uint8 numOfSensors = CapSense_numberOfSensors[widget] + rawIndex;
1285:.\Generated_Source\PSoC4/CapSense_CSHL.c ****     
1286:.\Generated_Source\PSoC4/CapSense_CSHL.c ****     /* Enable all sensors of widget */
1287:.\Generated_Source\PSoC4/CapSense_CSHL.c ****     do
1288:.\Generated_Source\PSoC4/CapSense_CSHL.c ****     {
1289:.\Generated_Source\PSoC4/CapSense_CSHL.c ****         CapSense_SetBitValue(CapSense_sensorEnableMask, (uint32)rawIndex, 1u);
 1130              		.loc 1 1289 0
 1131 0002 0348     		ldr	r0, .L98
 1132              	.LVL118:
 1133 0004 0021     		mov	r1, #0
 1134 0006 0122     		mov	r2, #1
 1135 0008 FFF7FEFF 		bl	CapSense_SetBitValue
 1136              	.LVL119:
1290:.\Generated_Source\PSoC4/CapSense_CSHL.c ****         rawIndex++;
1291:.\Generated_Source\PSoC4/CapSense_CSHL.c ****     }
1292:.\Generated_Source\PSoC4/CapSense_CSHL.c ****     while(rawIndex < numOfSensors);
1293:.\Generated_Source\PSoC4/CapSense_CSHL.c **** }
 1137              		.loc 1 1293 0
 1138              		@ sp needed
 1139 000c 08BD     		pop	{r3, pc}
 1140              	.L99:
 1141 000e C046     		.align	2
 1142              	.L98:
 1143 0010 00000000 		.word	CapSense_sensorEnableMask
 1144              		.cfi_endproc
 1145              	.LFE59:
 1146              		.size	CapSense_EnableWidget, .-CapSense_EnableWidget
 1147              		.section	.text.CapSense_DisableWidget,"ax",%progbits
ARM GAS  C:\Users\merlin\AppData\Local\Temp\cchlGLBb.s 			page 44


 1148              		.align	2
 1149              		.global	CapSense_DisableWidget
 1150              		.code	16
 1151              		.thumb_func
 1152              		.type	CapSense_DisableWidget, %function
 1153              	CapSense_DisableWidget:
 1154              	.LFB60:
1294:.\Generated_Source\PSoC4/CapSense_CSHL.c **** 
1295:.\Generated_Source\PSoC4/CapSense_CSHL.c **** 
1296:.\Generated_Source\PSoC4/CapSense_CSHL.c **** /*******************************************************************************
1297:.\Generated_Source\PSoC4/CapSense_CSHL.c **** * Function Name: CapSense_DisableWidget
1298:.\Generated_Source\PSoC4/CapSense_CSHL.c **** ********************************************************************************
1299:.\Generated_Source\PSoC4/CapSense_CSHL.c **** *
1300:.\Generated_Source\PSoC4/CapSense_CSHL.c **** * Summary:
1301:.\Generated_Source\PSoC4/CapSense_CSHL.c **** *  Disables all the widget elements (sensors) from the scanning process.
1302:.\Generated_Source\PSoC4/CapSense_CSHL.c **** *
1303:.\Generated_Source\PSoC4/CapSense_CSHL.c **** * Parameters:
1304:.\Generated_Source\PSoC4/CapSense_CSHL.c **** *  widget:  widget number.
1305:.\Generated_Source\PSoC4/CapSense_CSHL.c **** *
1306:.\Generated_Source\PSoC4/CapSense_CSHL.c **** * Return:
1307:.\Generated_Source\PSoC4/CapSense_CSHL.c **** *  None
1308:.\Generated_Source\PSoC4/CapSense_CSHL.c **** *
1309:.\Generated_Source\PSoC4/CapSense_CSHL.c **** * Global Variables:
1310:.\Generated_Source\PSoC4/CapSense_CSHL.c **** *  CapSense_sensorEnableMask[] - used to store the sensor scanning 
1311:.\Generated_Source\PSoC4/CapSense_CSHL.c **** *  state.
1312:.\Generated_Source\PSoC4/CapSense_CSHL.c **** *  CapSense_sensorEnableMask[0] contains the masked bits for sensors 
1313:.\Generated_Source\PSoC4/CapSense_CSHL.c **** *  0 through 7 (sensor 0 is bit 0, sensor 1 is bit 1).
1314:.\Generated_Source\PSoC4/CapSense_CSHL.c **** *  CapSense_sensorEnableMask[1] contains the masked bits for 
1315:.\Generated_Source\PSoC4/CapSense_CSHL.c **** *  sensors 8 through 15 (if needed), and so on.
1316:.\Generated_Source\PSoC4/CapSense_CSHL.c **** *  0 - sensor isn't scanned by CapSense_ScanEnabledWidgets().
1317:.\Generated_Source\PSoC4/CapSense_CSHL.c **** *  1 - sensor is scanned by CapSense_ScanEnabledWidgets().
1318:.\Generated_Source\PSoC4/CapSense_CSHL.c **** * 
1319:.\Generated_Source\PSoC4/CapSense_CSHL.c **** * Side Effects:
1320:.\Generated_Source\PSoC4/CapSense_CSHL.c **** *  None
1321:.\Generated_Source\PSoC4/CapSense_CSHL.c **** *
1322:.\Generated_Source\PSoC4/CapSense_CSHL.c **** *******************************************************************************/
1323:.\Generated_Source\PSoC4/CapSense_CSHL.c **** void CapSense_DisableWidget(uint32 widget)
1324:.\Generated_Source\PSoC4/CapSense_CSHL.c **** {
 1155              		.loc 1 1324 0
 1156              		.cfi_startproc
 1157              	.LVL120:
 1158 0000 08B5     		push	{r3, lr}
 1159              		.cfi_def_cfa_offset 8
 1160              		.cfi_offset 3, -8
 1161              		.cfi_offset 14, -4
 1162              	.LVL121:
1325:.\Generated_Source\PSoC4/CapSense_CSHL.c ****     uint8 rawIndex = CapSense_rawDataIndex[widget];
1326:.\Generated_Source\PSoC4/CapSense_CSHL.c ****     uint8 numOfSensors = CapSense_numberOfSensors[widget] + rawIndex;
1327:.\Generated_Source\PSoC4/CapSense_CSHL.c ****    
1328:.\Generated_Source\PSoC4/CapSense_CSHL.c ****     /* Disable all sensors of widget */
1329:.\Generated_Source\PSoC4/CapSense_CSHL.c ****     do
1330:.\Generated_Source\PSoC4/CapSense_CSHL.c ****     {
1331:.\Generated_Source\PSoC4/CapSense_CSHL.c **** 
1332:.\Generated_Source\PSoC4/CapSense_CSHL.c ****         CapSense_SetBitValue(CapSense_sensorEnableMask, (uint32)rawIndex, 0u);
 1163              		.loc 1 1332 0
 1164 0002 0348     		ldr	r0, .L101
 1165              	.LVL122:
ARM GAS  C:\Users\merlin\AppData\Local\Temp\cchlGLBb.s 			page 45


 1166 0004 0021     		mov	r1, #0
 1167 0006 0022     		mov	r2, #0
 1168 0008 FFF7FEFF 		bl	CapSense_SetBitValue
 1169              	.LVL123:
1333:.\Generated_Source\PSoC4/CapSense_CSHL.c ****         rawIndex++;
1334:.\Generated_Source\PSoC4/CapSense_CSHL.c ****     }
1335:.\Generated_Source\PSoC4/CapSense_CSHL.c ****     while(rawIndex < numOfSensors);
1336:.\Generated_Source\PSoC4/CapSense_CSHL.c **** }
 1170              		.loc 1 1336 0
 1171              		@ sp needed
 1172 000c 08BD     		pop	{r3, pc}
 1173              	.L102:
 1174 000e C046     		.align	2
 1175              	.L101:
 1176 0010 00000000 		.word	CapSense_sensorEnableMask
 1177              		.cfi_endproc
 1178              	.LFE60:
 1179              		.size	CapSense_DisableWidget, .-CapSense_DisableWidget
 1180              		.section	.text.CapSense_GetWidgetNumber,"ax",%progbits
 1181              		.align	2
 1182              		.global	CapSense_GetWidgetNumber
 1183              		.code	16
 1184              		.thumb_func
 1185              		.type	CapSense_GetWidgetNumber, %function
 1186              	CapSense_GetWidgetNumber:
 1187              	.LFB61:
1337:.\Generated_Source\PSoC4/CapSense_CSHL.c **** 
1338:.\Generated_Source\PSoC4/CapSense_CSHL.c **** 
1339:.\Generated_Source\PSoC4/CapSense_CSHL.c **** #if(CapSense_TOTAL_CENTROIDS_BASIC_COUNT)
1340:.\Generated_Source\PSoC4/CapSense_CSHL.c ****     /*******************************************************************************
1341:.\Generated_Source\PSoC4/CapSense_CSHL.c ****     * Function Name: CapSense_FindMaximum
1342:.\Generated_Source\PSoC4/CapSense_CSHL.c ****     ********************************************************************************
1343:.\Generated_Source\PSoC4/CapSense_CSHL.c ****     *
1344:.\Generated_Source\PSoC4/CapSense_CSHL.c ****     * Summary:
1345:.\Generated_Source\PSoC4/CapSense_CSHL.c ****     *  Finds the index of the maximum element within a defined centroid. Checks 
1346:.\Generated_Source\PSoC4/CapSense_CSHL.c ****     *  CapSense_sensorSignal[] within a defined centroid and 
1347:.\Generated_Source\PSoC4/CapSense_CSHL.c ****     *  returns the index of the maximum element. The values below the finger threshold are 
1348:.\Generated_Source\PSoC4/CapSense_CSHL.c ****     *  ignored.
1349:.\Generated_Source\PSoC4/CapSense_CSHL.c ****     *  The centroid is defined by offset of the first element and a number of elements - count.
1350:.\Generated_Source\PSoC4/CapSense_CSHL.c ****     *  The diplexed centroid requires at least two consecutive elements above
1351:.\Generated_Source\PSoC4/CapSense_CSHL.c ****     *  FingerThreshold to find the index of the maximum element.
1352:.\Generated_Source\PSoC4/CapSense_CSHL.c ****     * 
1353:.\Generated_Source\PSoC4/CapSense_CSHL.c ****     * Parameters:
1354:.\Generated_Source\PSoC4/CapSense_CSHL.c ****     *  offset:  Start index of centroid in CapSense_sensorSignal[] array.
1355:.\Generated_Source\PSoC4/CapSense_CSHL.c ****     *  count:   number of elements within centroid.
1356:.\Generated_Source\PSoC4/CapSense_CSHL.c ****     *  fingerThreshold:  Finger threshold.
1357:.\Generated_Source\PSoC4/CapSense_CSHL.c ****     *  diplex:   pointer to diplex table.
1358:.\Generated_Source\PSoC4/CapSense_CSHL.c ****     * 
1359:.\Generated_Source\PSoC4/CapSense_CSHL.c ****     * Return:
1360:.\Generated_Source\PSoC4/CapSense_CSHL.c ****     *  Returns the index of the maximum element within a defined centroid.
1361:.\Generated_Source\PSoC4/CapSense_CSHL.c ****     *  If the index of the maximum element isn't found it returns 0xFF.
1362:.\Generated_Source\PSoC4/CapSense_CSHL.c **** 	*
1363:.\Generated_Source\PSoC4/CapSense_CSHL.c **** 	* Global Variables:
1364:.\Generated_Source\PSoC4/CapSense_CSHL.c **** 	*  CapSense_startOfSlider[] - contains the index of the first slider element
1365:.\Generated_Source\PSoC4/CapSense_CSHL.c **** 	* 
1366:.\Generated_Source\PSoC4/CapSense_CSHL.c **** 	* Side Effects: 
1367:.\Generated_Source\PSoC4/CapSense_CSHL.c **** 	*  None
ARM GAS  C:\Users\merlin\AppData\Local\Temp\cchlGLBb.s 			page 46


1368:.\Generated_Source\PSoC4/CapSense_CSHL.c **** 	* 
1369:.\Generated_Source\PSoC4/CapSense_CSHL.c ****     *******************************************************************************/
1370:.\Generated_Source\PSoC4/CapSense_CSHL.c **** 	#if (CapSense_IS_DIPLEX_SLIDER)
1371:.\Generated_Source\PSoC4/CapSense_CSHL.c **** 		uint8 CapSense_FindMaximum(uint8 offset, uint8 count, uint16 fingerThreshold, const uint8 *diplex
1372:.\Generated_Source\PSoC4/CapSense_CSHL.c **** 	#else 
1373:.\Generated_Source\PSoC4/CapSense_CSHL.c **** 		uint8 CapSense_FindMaximum(uint8 offset, uint8 count, uint16 fingerThreshold)
1374:.\Generated_Source\PSoC4/CapSense_CSHL.c **** 	#endif /* (CapSense_IS_DIPLEX_SLIDER) */
1375:.\Generated_Source\PSoC4/CapSense_CSHL.c ****     {
1376:.\Generated_Source\PSoC4/CapSense_CSHL.c ****         uint8 i;
1377:.\Generated_Source\PSoC4/CapSense_CSHL.c ****         #if (CapSense_IS_DIPLEX_SLIDER)        
1378:.\Generated_Source\PSoC4/CapSense_CSHL.c ****             uint8 curPos = 0u;
1379:.\Generated_Source\PSoC4/CapSense_CSHL.c ****             /* No centroid at Start */
1380:.\Generated_Source\PSoC4/CapSense_CSHL.c ****             uint8 curCntrdSize = 0u;
1381:.\Generated_Source\PSoC4/CapSense_CSHL.c ****             uint8 curCtrdStartPos = CapSense_MAXIMUM_CENTROID;
1382:.\Generated_Source\PSoC4/CapSense_CSHL.c ****             /* Biggest centroid is zero */
1383:.\Generated_Source\PSoC4/CapSense_CSHL.c ****             uint8 biggestCtrdSize = 0u;
1384:.\Generated_Source\PSoC4/CapSense_CSHL.c ****             uint8 biggestCtrdStartPos = 0u;
1385:.\Generated_Source\PSoC4/CapSense_CSHL.c ****         #endif /* (CapSense_IS_DIPLEX_SLIDER) */
1386:.\Generated_Source\PSoC4/CapSense_CSHL.c ****         uint8 maximum = CapSense_MAXIMUM_CENTROID;
1387:.\Generated_Source\PSoC4/CapSense_CSHL.c **** 		
1388:.\Generated_Source\PSoC4/CapSense_CSHL.c ****         uint16 temp = 0u;
1389:.\Generated_Source\PSoC4/CapSense_CSHL.c ****         uint16 *startOfSlider = &CapSense_sensorSignal[offset];
1390:.\Generated_Source\PSoC4/CapSense_CSHL.c **** 
1391:.\Generated_Source\PSoC4/CapSense_CSHL.c ****         #if (CapSense_IS_DIPLEX_SLIDER)        
1392:.\Generated_Source\PSoC4/CapSense_CSHL.c ****             if(diplex != 0u)
1393:.\Generated_Source\PSoC4/CapSense_CSHL.c ****             {
1394:.\Generated_Source\PSoC4/CapSense_CSHL.c ****                 /* Initialize */
1395:.\Generated_Source\PSoC4/CapSense_CSHL.c ****                 i = 0u;
1396:.\Generated_Source\PSoC4/CapSense_CSHL.c ****                 
1397:.\Generated_Source\PSoC4/CapSense_CSHL.c ****                 /* Make slider x2 as Diplexed */
1398:.\Generated_Source\PSoC4/CapSense_CSHL.c ****                 count <<= 1u;
1399:.\Generated_Source\PSoC4/CapSense_CSHL.c ****                 while(1u)
1400:.\Generated_Source\PSoC4/CapSense_CSHL.c ****                 { 
1401:.\Generated_Source\PSoC4/CapSense_CSHL.c ****                     if (startOfSlider[curPos] > 0u)    /* Looking for centroids */
1402:.\Generated_Source\PSoC4/CapSense_CSHL.c ****                     {
1403:.\Generated_Source\PSoC4/CapSense_CSHL.c ****                         if (curCtrdStartPos == CapSense_MAXIMUM_CENTROID)
1404:.\Generated_Source\PSoC4/CapSense_CSHL.c ****                         {
1405:.\Generated_Source\PSoC4/CapSense_CSHL.c ****                             /* Start of centroid */
1406:.\Generated_Source\PSoC4/CapSense_CSHL.c ****                             curCtrdStartPos = i;
1407:.\Generated_Source\PSoC4/CapSense_CSHL.c ****                             curCntrdSize++;
1408:.\Generated_Source\PSoC4/CapSense_CSHL.c ****                         }
1409:.\Generated_Source\PSoC4/CapSense_CSHL.c ****                         else
1410:.\Generated_Source\PSoC4/CapSense_CSHL.c ****                         {
1411:.\Generated_Source\PSoC4/CapSense_CSHL.c ****                             curCntrdSize++;
1412:.\Generated_Source\PSoC4/CapSense_CSHL.c ****                         }
1413:.\Generated_Source\PSoC4/CapSense_CSHL.c ****                     }
1414:.\Generated_Source\PSoC4/CapSense_CSHL.c ****                     else   /* Select biggest and indicate zero start */
1415:.\Generated_Source\PSoC4/CapSense_CSHL.c ****                     {          
1416:.\Generated_Source\PSoC4/CapSense_CSHL.c ****                         if(curCntrdSize > 0u)
1417:.\Generated_Source\PSoC4/CapSense_CSHL.c ****                         {
1418:.\Generated_Source\PSoC4/CapSense_CSHL.c ****                             /* We are at the end of current */
1419:.\Generated_Source\PSoC4/CapSense_CSHL.c ****                             if(curCntrdSize > biggestCtrdSize)
1420:.\Generated_Source\PSoC4/CapSense_CSHL.c ****                             {
1421:.\Generated_Source\PSoC4/CapSense_CSHL.c ****                                 biggestCtrdSize = curCntrdSize;
1422:.\Generated_Source\PSoC4/CapSense_CSHL.c ****                                 biggestCtrdStartPos = curCtrdStartPos;
1423:.\Generated_Source\PSoC4/CapSense_CSHL.c ****                             }
1424:.\Generated_Source\PSoC4/CapSense_CSHL.c ****                             
ARM GAS  C:\Users\merlin\AppData\Local\Temp\cchlGLBb.s 			page 47


1425:.\Generated_Source\PSoC4/CapSense_CSHL.c ****                             curCntrdSize = 0u;
1426:.\Generated_Source\PSoC4/CapSense_CSHL.c ****                             curCtrdStartPos = CapSense_MAXIMUM_CENTROID;
1427:.\Generated_Source\PSoC4/CapSense_CSHL.c ****                         }
1428:.\Generated_Source\PSoC4/CapSense_CSHL.c ****                     }
1429:.\Generated_Source\PSoC4/CapSense_CSHL.c ****                     
1430:.\Generated_Source\PSoC4/CapSense_CSHL.c ****                     i++; 
1431:.\Generated_Source\PSoC4/CapSense_CSHL.c ****                     curPos = diplex[i];
1432:.\Generated_Source\PSoC4/CapSense_CSHL.c ****                     if(i == count)
1433:.\Generated_Source\PSoC4/CapSense_CSHL.c ****                     {
1434:.\Generated_Source\PSoC4/CapSense_CSHL.c ****                         break;
1435:.\Generated_Source\PSoC4/CapSense_CSHL.c ****                     }            
1436:.\Generated_Source\PSoC4/CapSense_CSHL.c ****                 }
1437:.\Generated_Source\PSoC4/CapSense_CSHL.c ****                     
1438:.\Generated_Source\PSoC4/CapSense_CSHL.c ****                     /* Find biggest centroid if two are same size, last one wins
1439:.\Generated_Source\PSoC4/CapSense_CSHL.c ****                        We are at the end of current */
1440:.\Generated_Source\PSoC4/CapSense_CSHL.c ****                 if (curCntrdSize >= biggestCtrdSize) 
1441:.\Generated_Source\PSoC4/CapSense_CSHL.c ****                 {
1442:.\Generated_Source\PSoC4/CapSense_CSHL.c ****                     biggestCtrdSize = curCntrdSize;
1443:.\Generated_Source\PSoC4/CapSense_CSHL.c ****                     biggestCtrdStartPos = curCtrdStartPos;
1444:.\Generated_Source\PSoC4/CapSense_CSHL.c ****                 }
1445:.\Generated_Source\PSoC4/CapSense_CSHL.c ****             }
1446:.\Generated_Source\PSoC4/CapSense_CSHL.c ****             else
1447:.\Generated_Source\PSoC4/CapSense_CSHL.c ****             {
1448:.\Generated_Source\PSoC4/CapSense_CSHL.c ****                 /* Without diplexing */ 
1449:.\Generated_Source\PSoC4/CapSense_CSHL.c ****                 biggestCtrdSize = count;
1450:.\Generated_Source\PSoC4/CapSense_CSHL.c ****             }
1451:.\Generated_Source\PSoC4/CapSense_CSHL.c ****                         
1452:.\Generated_Source\PSoC4/CapSense_CSHL.c **** 
1453:.\Generated_Source\PSoC4/CapSense_CSHL.c ****             /* Check centroid size */
1454:.\Generated_Source\PSoC4/CapSense_CSHL.c ****             #if (CapSense_IS_NON_DIPLEX_SLIDER)
1455:.\Generated_Source\PSoC4/CapSense_CSHL.c ****                 if((biggestCtrdSize >= 2u) || ((biggestCtrdSize == 1u) && (diplex == 0u)))
1456:.\Generated_Source\PSoC4/CapSense_CSHL.c ****             #else                    
1457:.\Generated_Source\PSoC4/CapSense_CSHL.c ****                 if(biggestCtrdSize >= 2u)
1458:.\Generated_Source\PSoC4/CapSense_CSHL.c ****             #endif /* (CapSense_IS_NON_DIPLEX_SLIDER) */
1459:.\Generated_Source\PSoC4/CapSense_CSHL.c ****                 {
1460:.\Generated_Source\PSoC4/CapSense_CSHL.c ****                     for (i = biggestCtrdStartPos; i < (biggestCtrdStartPos + biggestCtrdSize); i++)
1461:.\Generated_Source\PSoC4/CapSense_CSHL.c ****                     {
1462:.\Generated_Source\PSoC4/CapSense_CSHL.c ****                         #if (CapSense_IS_DIPLEX_SLIDER && CapSense_IS_NON_DIPLEX_SLIDER)
1463:.\Generated_Source\PSoC4/CapSense_CSHL.c ****                             if (diplex == 0u)
1464:.\Generated_Source\PSoC4/CapSense_CSHL.c ****                             {
1465:.\Generated_Source\PSoC4/CapSense_CSHL.c ****                                 curPos = i;
1466:.\Generated_Source\PSoC4/CapSense_CSHL.c ****                             }
1467:.\Generated_Source\PSoC4/CapSense_CSHL.c ****                             else
1468:.\Generated_Source\PSoC4/CapSense_CSHL.c ****                             {
1469:.\Generated_Source\PSoC4/CapSense_CSHL.c ****                                 curPos = diplex[i];
1470:.\Generated_Source\PSoC4/CapSense_CSHL.c ****                             }                    
1471:.\Generated_Source\PSoC4/CapSense_CSHL.c ****                         #elif (CapSense_IS_DIPLEX_SLIDER)                    
1472:.\Generated_Source\PSoC4/CapSense_CSHL.c ****                             curPos = diplex[i];                    
1473:.\Generated_Source\PSoC4/CapSense_CSHL.c ****                         #endif /* (CapSense_IS_DIPLEX_SLIDER && CapSense_IS_NON_DIPLEX_SLIDER) */
1474:.\Generated_Source\PSoC4/CapSense_CSHL.c ****                         /* Looking for greater element within centroid */
1475:.\Generated_Source\PSoC4/CapSense_CSHL.c ****                         if(startOfSlider[curPos] > fingerThreshold)
1476:.\Generated_Source\PSoC4/CapSense_CSHL.c ****                         {
1477:.\Generated_Source\PSoC4/CapSense_CSHL.c ****                             if(startOfSlider[curPos] > temp)
1478:.\Generated_Source\PSoC4/CapSense_CSHL.c ****                             {
1479:.\Generated_Source\PSoC4/CapSense_CSHL.c ****                                 maximum = i;
1480:.\Generated_Source\PSoC4/CapSense_CSHL.c ****                                 temp = startOfSlider[curPos];
1481:.\Generated_Source\PSoC4/CapSense_CSHL.c ****                             }
ARM GAS  C:\Users\merlin\AppData\Local\Temp\cchlGLBb.s 			page 48


1482:.\Generated_Source\PSoC4/CapSense_CSHL.c ****                         }
1483:.\Generated_Source\PSoC4/CapSense_CSHL.c ****                     }
1484:.\Generated_Source\PSoC4/CapSense_CSHL.c ****                 } 
1485:.\Generated_Source\PSoC4/CapSense_CSHL.c ****         #else
1486:.\Generated_Source\PSoC4/CapSense_CSHL.c ****             for (i = 0u; i < count; i++)
1487:.\Generated_Source\PSoC4/CapSense_CSHL.c ****             {                      
1488:.\Generated_Source\PSoC4/CapSense_CSHL.c ****                 /* Looking for greater element within centroid */
1489:.\Generated_Source\PSoC4/CapSense_CSHL.c ****                 if(startOfSlider[i] > fingerThreshold)
1490:.\Generated_Source\PSoC4/CapSense_CSHL.c ****                 {
1491:.\Generated_Source\PSoC4/CapSense_CSHL.c ****                     if(startOfSlider[i] > temp)
1492:.\Generated_Source\PSoC4/CapSense_CSHL.c ****                     {
1493:.\Generated_Source\PSoC4/CapSense_CSHL.c ****                         maximum = i;
1494:.\Generated_Source\PSoC4/CapSense_CSHL.c ****                         temp = startOfSlider[i];
1495:.\Generated_Source\PSoC4/CapSense_CSHL.c ****                     }
1496:.\Generated_Source\PSoC4/CapSense_CSHL.c ****                 }
1497:.\Generated_Source\PSoC4/CapSense_CSHL.c ****             }    
1498:.\Generated_Source\PSoC4/CapSense_CSHL.c ****         #endif /* (CapSense_IS_DIPLEX_SLIDER) */
1499:.\Generated_Source\PSoC4/CapSense_CSHL.c ****         return (maximum);
1500:.\Generated_Source\PSoC4/CapSense_CSHL.c ****     }
1501:.\Generated_Source\PSoC4/CapSense_CSHL.c ****     
1502:.\Generated_Source\PSoC4/CapSense_CSHL.c ****     
1503:.\Generated_Source\PSoC4/CapSense_CSHL.c ****     /*******************************************************************************
1504:.\Generated_Source\PSoC4/CapSense_CSHL.c ****     * Function Name: CapSense_CalcCentroid
1505:.\Generated_Source\PSoC4/CapSense_CSHL.c ****     ********************************************************************************
1506:.\Generated_Source\PSoC4/CapSense_CSHL.c ****     *
1507:.\Generated_Source\PSoC4/CapSense_CSHL.c ****     * Summary:
1508:.\Generated_Source\PSoC4/CapSense_CSHL.c ****     *  Returns a position value calculated according to the index of the maximum element and API
1509:.\Generated_Source\PSoC4/CapSense_CSHL.c ****     *  resolution.
1510:.\Generated_Source\PSoC4/CapSense_CSHL.c ****     *
1511:.\Generated_Source\PSoC4/CapSense_CSHL.c ****     * Parameters:
1512:.\Generated_Source\PSoC4/CapSense_CSHL.c ****     *  type:  widget type.
1513:.\Generated_Source\PSoC4/CapSense_CSHL.c ****     *  diplex:  pointer to diplex table.
1514:.\Generated_Source\PSoC4/CapSense_CSHL.c ****     *  maximum:  Index of maximum element within centroid.
1515:.\Generated_Source\PSoC4/CapSense_CSHL.c ****     *  offset:   Start index of centroid in CapSense_sensorSignal[] array.
1516:.\Generated_Source\PSoC4/CapSense_CSHL.c ****     *  count:    Number of elements within centroid.
1517:.\Generated_Source\PSoC4/CapSense_CSHL.c ****     *  resolution:  multiplicator calculated according to centroid type and
1518:.\Generated_Source\PSoC4/CapSense_CSHL.c ****     *  API resolution.
1519:.\Generated_Source\PSoC4/CapSense_CSHL.c ****     *  noiseThreshold:  Noise threshold.
1520:.\Generated_Source\PSoC4/CapSense_CSHL.c ****     * 
1521:.\Generated_Source\PSoC4/CapSense_CSHL.c ****     * Return:
1522:.\Generated_Source\PSoC4/CapSense_CSHL.c ****     *  Returns a position value of the slider.
1523:.\Generated_Source\PSoC4/CapSense_CSHL.c **** 	*
1524:.\Generated_Source\PSoC4/CapSense_CSHL.c **** 	* Side Effects: 
1525:.\Generated_Source\PSoC4/CapSense_CSHL.c **** 	*  None
1526:.\Generated_Source\PSoC4/CapSense_CSHL.c **** 	* 
1527:.\Generated_Source\PSoC4/CapSense_CSHL.c ****     *******************************************************************************/
1528:.\Generated_Source\PSoC4/CapSense_CSHL.c **** #if (CapSense_TOTAL_TRACKPAD_GESTURES_COUNT > 0u)
1529:.\Generated_Source\PSoC4/CapSense_CSHL.c ****     uint8 CapSense_CalcCentroid(uint8 maximum, uint8 offset, 
1530:.\Generated_Source\PSoC4/CapSense_CSHL.c ****                                         uint8 count, uint32 resolution, uint16 noiseThreshold)
1531:.\Generated_Source\PSoC4/CapSense_CSHL.c **** #else								
1532:.\Generated_Source\PSoC4/CapSense_CSHL.c ****     uint8 CapSense_CalcCentroid(uint8 maximum, uint8 offset, 
1533:.\Generated_Source\PSoC4/CapSense_CSHL.c ****                                         uint8 count, uint16 resolution, uint16 noiseThreshold)					
1534:.\Generated_Source\PSoC4/CapSense_CSHL.c **** #endif /* (CapSense_TOTAL_TRACKPAD_GESTURES_COUNT > 0u) */
1535:.\Generated_Source\PSoC4/CapSense_CSHL.c ****     {
1536:.\Generated_Source\PSoC4/CapSense_CSHL.c ****         #if ((CapSense_TOTAL_LINEAR_SLIDERS_COUNT > 0u) || (CapSense_TOTAL_TOUCH_PADS_BASIC_COUNT >
1537:.\Generated_Source\PSoC4/CapSense_CSHL.c ****             uint8 posPrev;
1538:.\Generated_Source\PSoC4/CapSense_CSHL.c ****             uint8 posNext;
ARM GAS  C:\Users\merlin\AppData\Local\Temp\cchlGLBb.s 			page 49


1539:.\Generated_Source\PSoC4/CapSense_CSHL.c ****         #endif /* ((CapSense_TOTAL_LINEAR_SLIDERS_COUNT>0u) || (CapSense_TOTAL_TOUCH_PADS_BASIC_COU
1540:.\Generated_Source\PSoC4/CapSense_CSHL.c ****         
1541:.\Generated_Source\PSoC4/CapSense_CSHL.c ****         /* Helps during centroid calculation */
1542:.\Generated_Source\PSoC4/CapSense_CSHL.c ****         #if (CapSense_TOTAL_CENTROIDS_BASIC_COUNT)
1543:.\Generated_Source\PSoC4/CapSense_CSHL.c **** 		    static uint16 CapSense_centroid[3u];
1544:.\Generated_Source\PSoC4/CapSense_CSHL.c ****         #endif  /* (CapSense_TOTAL_CENTROIDS_BASIC_COUNT) */
1545:.\Generated_Source\PSoC4/CapSense_CSHL.c ****                
1546:.\Generated_Source\PSoC4/CapSense_CSHL.c ****         #if (CapSense_IS_DIPLEX_SLIDER)                
1547:.\Generated_Source\PSoC4/CapSense_CSHL.c ****             uint8 pos;
1548:.\Generated_Source\PSoC4/CapSense_CSHL.c ****         #endif /* (CapSense_IS_DIPLEX_SLIDER) */
1549:.\Generated_Source\PSoC4/CapSense_CSHL.c **** 
1550:.\Generated_Source\PSoC4/CapSense_CSHL.c ****         uint8 position;
1551:.\Generated_Source\PSoC4/CapSense_CSHL.c ****         uint32 numerator;
1552:.\Generated_Source\PSoC4/CapSense_CSHL.c ****         int32 denominator;
1553:.\Generated_Source\PSoC4/CapSense_CSHL.c **** 		
1554:.\Generated_Source\PSoC4/CapSense_CSHL.c **** 		uint16  *startOfSlider = &CapSense_sensorSignal[offset];
1555:.\Generated_Source\PSoC4/CapSense_CSHL.c **** 		
1556:.\Generated_Source\PSoC4/CapSense_CSHL.c ****         #if ((CapSense_TOTAL_LINEAR_SLIDERS_COUNT > 0u) || (CapSense_TOTAL_TOUCH_PADS_BASIC_COUNT >
1557:.\Generated_Source\PSoC4/CapSense_CSHL.c ****             posPrev = 0u;
1558:.\Generated_Source\PSoC4/CapSense_CSHL.c ****         #endif /* ((CapSense_TOTAL_LINEAR_SLIDERS_COUNT>0u) || (CapSense_TOTAL_TOUCH_PADS_BASIC_COU
1559:.\Generated_Source\PSoC4/CapSense_CSHL.c ****      
1560:.\Generated_Source\PSoC4/CapSense_CSHL.c ****         #if (CapSense_ADD_SLIDER_TYPE)
1561:.\Generated_Source\PSoC4/CapSense_CSHL.c ****             if(type == CapSense_TYPE_RADIAL_SLIDER)
1562:.\Generated_Source\PSoC4/CapSense_CSHL.c ****             {
1563:.\Generated_Source\PSoC4/CapSense_CSHL.c ****         #endif /* (CapSense_ADD_SLIDER_TYPE) */
1564:.\Generated_Source\PSoC4/CapSense_CSHL.c **** 
1565:.\Generated_Source\PSoC4/CapSense_CSHL.c ****             #if (CapSense_TOTAL_RADIAL_SLIDERS_COUNT > 0u)                
1566:.\Generated_Source\PSoC4/CapSense_CSHL.c ****                 /* Copy Signal to the centroid array */
1567:.\Generated_Source\PSoC4/CapSense_CSHL.c ****                 CapSense_centroid[CapSense_POS] = startOfSlider[maximum];
1568:.\Generated_Source\PSoC4/CapSense_CSHL.c ****                  
1569:.\Generated_Source\PSoC4/CapSense_CSHL.c ****                 /* Check borders for ROTARY Slider */
1570:.\Generated_Source\PSoC4/CapSense_CSHL.c ****                 if (maximum == 0u)                   /* Start of centroid */
1571:.\Generated_Source\PSoC4/CapSense_CSHL.c ****                 { 
1572:.\Generated_Source\PSoC4/CapSense_CSHL.c ****                     CapSense_centroid[CapSense_POS_PREV] = startOfSlider[count - 1u];
1573:.\Generated_Source\PSoC4/CapSense_CSHL.c ****                     CapSense_centroid[CapSense_POS_NEXT] = startOfSlider[1u];
1574:.\Generated_Source\PSoC4/CapSense_CSHL.c ****                 }
1575:.\Generated_Source\PSoC4/CapSense_CSHL.c ****                 else if (maximum == (count - 1u))    /* End of centroid */
1576:.\Generated_Source\PSoC4/CapSense_CSHL.c ****                 {
1577:.\Generated_Source\PSoC4/CapSense_CSHL.c ****                     CapSense_centroid[CapSense_POS_PREV] = startOfSlider[maximum - 1u];
1578:.\Generated_Source\PSoC4/CapSense_CSHL.c ****                     CapSense_centroid[CapSense_POS_NEXT] = startOfSlider[0u];
1579:.\Generated_Source\PSoC4/CapSense_CSHL.c ****                 }
1580:.\Generated_Source\PSoC4/CapSense_CSHL.c ****                 else                                /* Not first Not last */
1581:.\Generated_Source\PSoC4/CapSense_CSHL.c ****                 {
1582:.\Generated_Source\PSoC4/CapSense_CSHL.c ****                     CapSense_centroid[CapSense_POS_PREV] = startOfSlider[maximum - 1u];
1583:.\Generated_Source\PSoC4/CapSense_CSHL.c ****                     CapSense_centroid[CapSense_POS_NEXT] = startOfSlider[maximum + 1u];
1584:.\Generated_Source\PSoC4/CapSense_CSHL.c ****                 }
1585:.\Generated_Source\PSoC4/CapSense_CSHL.c ****             #endif /* (CapSense_TOTAL_RADIAL_SLIDERS_COUNT > 0u) */
1586:.\Generated_Source\PSoC4/CapSense_CSHL.c **** 
1587:.\Generated_Source\PSoC4/CapSense_CSHL.c ****         #if (CapSense_ADD_SLIDER_TYPE)
1588:.\Generated_Source\PSoC4/CapSense_CSHL.c ****             }
1589:.\Generated_Source\PSoC4/CapSense_CSHL.c ****             else
1590:.\Generated_Source\PSoC4/CapSense_CSHL.c ****             {
1591:.\Generated_Source\PSoC4/CapSense_CSHL.c ****         #endif /* (CapSense_ADD_SLIDER_TYPE) */
1592:.\Generated_Source\PSoC4/CapSense_CSHL.c **** 
1593:.\Generated_Source\PSoC4/CapSense_CSHL.c ****             #if ((CapSense_TOTAL_LINEAR_SLIDERS_COUNT > 0u) || (CapSense_TOTAL_TOUCH_PADS_BASIC_COU
1594:.\Generated_Source\PSoC4/CapSense_CSHL.c ****                 #if (CapSense_IS_DIPLEX_SLIDER && CapSense_IS_NON_DIPLEX_SLIDER)                   
1595:.\Generated_Source\PSoC4/CapSense_CSHL.c ****                     /* Calculate next and previous near to maximum */
ARM GAS  C:\Users\merlin\AppData\Local\Temp\cchlGLBb.s 			page 50


1596:.\Generated_Source\PSoC4/CapSense_CSHL.c ****                     if(diplex == 0u)
1597:.\Generated_Source\PSoC4/CapSense_CSHL.c ****                     {
1598:.\Generated_Source\PSoC4/CapSense_CSHL.c ****                         pos     = maximum;
1599:.\Generated_Source\PSoC4/CapSense_CSHL.c ****                         posPrev = maximum - 1u;
1600:.\Generated_Source\PSoC4/CapSense_CSHL.c ****                         posNext = maximum + 1u; 
1601:.\Generated_Source\PSoC4/CapSense_CSHL.c ****                     }
1602:.\Generated_Source\PSoC4/CapSense_CSHL.c ****                     else
1603:.\Generated_Source\PSoC4/CapSense_CSHL.c ****                     {
1604:.\Generated_Source\PSoC4/CapSense_CSHL.c ****                         pos     = diplex[maximum];
1605:.\Generated_Source\PSoC4/CapSense_CSHL.c ****                         posPrev = diplex[maximum - 1u];
1606:.\Generated_Source\PSoC4/CapSense_CSHL.c ****                         posNext = diplex[maximum + 1u];
1607:.\Generated_Source\PSoC4/CapSense_CSHL.c ****                         count <<= 1u;
1608:.\Generated_Source\PSoC4/CapSense_CSHL.c ****                     }                    
1609:.\Generated_Source\PSoC4/CapSense_CSHL.c ****                 #elif (CapSense_IS_DIPLEX_SLIDER)
1610:.\Generated_Source\PSoC4/CapSense_CSHL.c ****                     /* Calculate next and previous near to maximum */
1611:.\Generated_Source\PSoC4/CapSense_CSHL.c ****                     pos     = diplex[maximum];
1612:.\Generated_Source\PSoC4/CapSense_CSHL.c ****                     posPrev = diplex[maximum - 1u];
1613:.\Generated_Source\PSoC4/CapSense_CSHL.c ****                     posNext = diplex[maximum + 1u];
1614:.\Generated_Source\PSoC4/CapSense_CSHL.c ****                     count <<= 1u;                    
1615:.\Generated_Source\PSoC4/CapSense_CSHL.c ****                 #else                    
1616:.\Generated_Source\PSoC4/CapSense_CSHL.c ****                     /* Calculate next and previous near to maximum */
1617:.\Generated_Source\PSoC4/CapSense_CSHL.c ****                     if (maximum >= 1u)
1618:.\Generated_Source\PSoC4/CapSense_CSHL.c ****                     {
1619:.\Generated_Source\PSoC4/CapSense_CSHL.c ****                         posPrev = maximum - 1u;
1620:.\Generated_Source\PSoC4/CapSense_CSHL.c ****                     }
1621:.\Generated_Source\PSoC4/CapSense_CSHL.c ****                     posNext = maximum + 1u;
1622:.\Generated_Source\PSoC4/CapSense_CSHL.c ****                 #endif /* (CapSense_IS_DIPLEX_SLIDER && CapSense_IS_NON_DIPLEX_SLIDER) */
1623:.\Generated_Source\PSoC4/CapSense_CSHL.c ****                         
1624:.\Generated_Source\PSoC4/CapSense_CSHL.c ****                 /* Copy Signal to the centroid array */
1625:.\Generated_Source\PSoC4/CapSense_CSHL.c ****                 #if (CapSense_IS_DIPLEX_SLIDER)
1626:.\Generated_Source\PSoC4/CapSense_CSHL.c ****                     CapSense_centroid[CapSense_POS] = startOfSlider[pos];
1627:.\Generated_Source\PSoC4/CapSense_CSHL.c ****                 #else
1628:.\Generated_Source\PSoC4/CapSense_CSHL.c ****                     CapSense_centroid[CapSense_POS] = startOfSlider[maximum];
1629:.\Generated_Source\PSoC4/CapSense_CSHL.c ****                 #endif /* (CapSense_IS_DIPLEX_SLIDER) */
1630:.\Generated_Source\PSoC4/CapSense_CSHL.c ****                     
1631:.\Generated_Source\PSoC4/CapSense_CSHL.c ****                 /* Check borders for LINEAR Slider */
1632:.\Generated_Source\PSoC4/CapSense_CSHL.c ****                 if (maximum == 0u)                   /* Start of centroid */
1633:.\Generated_Source\PSoC4/CapSense_CSHL.c ****                 { 
1634:.\Generated_Source\PSoC4/CapSense_CSHL.c ****                     CapSense_centroid[CapSense_POS_PREV] = 0u;
1635:.\Generated_Source\PSoC4/CapSense_CSHL.c ****                     CapSense_centroid[CapSense_POS_NEXT] = startOfSlider[posNext];
1636:.\Generated_Source\PSoC4/CapSense_CSHL.c ****                 }
1637:.\Generated_Source\PSoC4/CapSense_CSHL.c ****                 else if (maximum == ((count) - 1u)) /* End of centroid */
1638:.\Generated_Source\PSoC4/CapSense_CSHL.c ****                 {
1639:.\Generated_Source\PSoC4/CapSense_CSHL.c ****                     CapSense_centroid[CapSense_POS_PREV] = startOfSlider[posPrev];
1640:.\Generated_Source\PSoC4/CapSense_CSHL.c ****                     CapSense_centroid[CapSense_POS_NEXT] = 0u;
1641:.\Generated_Source\PSoC4/CapSense_CSHL.c ****                 }
1642:.\Generated_Source\PSoC4/CapSense_CSHL.c ****                 else                                /* Not first Not last */
1643:.\Generated_Source\PSoC4/CapSense_CSHL.c ****                 {
1644:.\Generated_Source\PSoC4/CapSense_CSHL.c ****                     CapSense_centroid[CapSense_POS_PREV] = startOfSlider[posPrev];
1645:.\Generated_Source\PSoC4/CapSense_CSHL.c ****                     CapSense_centroid[CapSense_POS_NEXT] = startOfSlider[posNext];
1646:.\Generated_Source\PSoC4/CapSense_CSHL.c ****                 }
1647:.\Generated_Source\PSoC4/CapSense_CSHL.c ****             #endif /* ((CapSense_TOTAL_LINEAR_SLIDERS_COUNT>0u)||(CapSense_TOTAL_TOUCH_PADS_BASIC_C
1648:.\Generated_Source\PSoC4/CapSense_CSHL.c **** 
1649:.\Generated_Source\PSoC4/CapSense_CSHL.c ****         #if (CapSense_ADD_SLIDER_TYPE)
1650:.\Generated_Source\PSoC4/CapSense_CSHL.c ****             }
1651:.\Generated_Source\PSoC4/CapSense_CSHL.c ****         #endif /* (CapSense_ADD_SLIDER_TYPE) */
1652:.\Generated_Source\PSoC4/CapSense_CSHL.c ****     
ARM GAS  C:\Users\merlin\AppData\Local\Temp\cchlGLBb.s 			page 51


1653:.\Generated_Source\PSoC4/CapSense_CSHL.c ****         /* Subtract noiseThreshold */
1654:.\Generated_Source\PSoC4/CapSense_CSHL.c ****         if(CapSense_centroid[CapSense_POS_PREV] > noiseThreshold)
1655:.\Generated_Source\PSoC4/CapSense_CSHL.c ****         {
1656:.\Generated_Source\PSoC4/CapSense_CSHL.c ****             CapSense_centroid[CapSense_POS_PREV] -= noiseThreshold;
1657:.\Generated_Source\PSoC4/CapSense_CSHL.c ****         }
1658:.\Generated_Source\PSoC4/CapSense_CSHL.c ****         else
1659:.\Generated_Source\PSoC4/CapSense_CSHL.c ****         {
1660:.\Generated_Source\PSoC4/CapSense_CSHL.c ****             CapSense_centroid[CapSense_POS_PREV] = 0u;
1661:.\Generated_Source\PSoC4/CapSense_CSHL.c ****         }
1662:.\Generated_Source\PSoC4/CapSense_CSHL.c ****         
1663:.\Generated_Source\PSoC4/CapSense_CSHL.c ****         /* Maximum always greater than fingerThreshold, so greater than noiseThreshold */
1664:.\Generated_Source\PSoC4/CapSense_CSHL.c ****         CapSense_centroid[CapSense_POS] -= noiseThreshold;
1665:.\Generated_Source\PSoC4/CapSense_CSHL.c ****         
1666:.\Generated_Source\PSoC4/CapSense_CSHL.c ****         /* Subtract noiseThreshold */
1667:.\Generated_Source\PSoC4/CapSense_CSHL.c ****         if(CapSense_centroid[CapSense_POS_NEXT] > noiseThreshold)
1668:.\Generated_Source\PSoC4/CapSense_CSHL.c ****         {
1669:.\Generated_Source\PSoC4/CapSense_CSHL.c ****             CapSense_centroid[CapSense_POS_NEXT] -= noiseThreshold;
1670:.\Generated_Source\PSoC4/CapSense_CSHL.c ****         }
1671:.\Generated_Source\PSoC4/CapSense_CSHL.c ****         else
1672:.\Generated_Source\PSoC4/CapSense_CSHL.c ****         {
1673:.\Generated_Source\PSoC4/CapSense_CSHL.c ****             CapSense_centroid[CapSense_POS_NEXT] = 0u;
1674:.\Generated_Source\PSoC4/CapSense_CSHL.c ****         }
1675:.\Generated_Source\PSoC4/CapSense_CSHL.c ****         
1676:.\Generated_Source\PSoC4/CapSense_CSHL.c ****         
1677:.\Generated_Source\PSoC4/CapSense_CSHL.c ****         /* Si+1 - Si-1 */
1678:.\Generated_Source\PSoC4/CapSense_CSHL.c ****         numerator = (uint32) CapSense_centroid[CapSense_POS_NEXT] -
1679:.\Generated_Source\PSoC4/CapSense_CSHL.c ****                     (uint32) CapSense_centroid[CapSense_POS_PREV];
1680:.\Generated_Source\PSoC4/CapSense_CSHL.c **** 
1681:.\Generated_Source\PSoC4/CapSense_CSHL.c ****         /* Si+1 + Si + Si-1 */
1682:.\Generated_Source\PSoC4/CapSense_CSHL.c ****         denominator = (int32) CapSense_centroid[CapSense_POS_PREV] + 
1683:.\Generated_Source\PSoC4/CapSense_CSHL.c ****                       (int32) CapSense_centroid[CapSense_POS] + 
1684:.\Generated_Source\PSoC4/CapSense_CSHL.c ****                       (int32) CapSense_centroid[CapSense_POS_NEXT];
1685:.\Generated_Source\PSoC4/CapSense_CSHL.c ****         
1686:.\Generated_Source\PSoC4/CapSense_CSHL.c ****         /* (numerator/denominator) + maximum */
1687:.\Generated_Source\PSoC4/CapSense_CSHL.c ****         denominator = (((int32)(uint32)((uint32)numerator << 8u)/denominator) + (int32)(uint32)((ui
1688:.\Generated_Source\PSoC4/CapSense_CSHL.c **** 
1689:.\Generated_Source\PSoC4/CapSense_CSHL.c ****         #if(CapSense_TOTAL_RADIAL_SLIDERS_COUNT > 0u)
1690:.\Generated_Source\PSoC4/CapSense_CSHL.c ****             /* Only required for RADIAL Slider */
1691:.\Generated_Source\PSoC4/CapSense_CSHL.c ****             if(denominator < 0)
1692:.\Generated_Source\PSoC4/CapSense_CSHL.c ****             {
1693:.\Generated_Source\PSoC4/CapSense_CSHL.c ****                 denominator += (int32)((uint16)((uint16) count << 8u));
1694:.\Generated_Source\PSoC4/CapSense_CSHL.c ****             }
1695:.\Generated_Source\PSoC4/CapSense_CSHL.c ****         #endif /* (CapSense_TOTAL_RADIAL_SLIDERS_COUNT > 0u) */
1696:.\Generated_Source\PSoC4/CapSense_CSHL.c ****         
1697:.\Generated_Source\PSoC4/CapSense_CSHL.c ****         denominator *= (int16)resolution;
1698:.\Generated_Source\PSoC4/CapSense_CSHL.c ****         
1699:.\Generated_Source\PSoC4/CapSense_CSHL.c ****         /* Round result and put it to uint8 */
1700:.\Generated_Source\PSoC4/CapSense_CSHL.c ****         position = ((uint8) HI16((uint32)denominator + CapSense_CENTROID_ROUND_VALUE));
1701:.\Generated_Source\PSoC4/CapSense_CSHL.c **** 
1702:.\Generated_Source\PSoC4/CapSense_CSHL.c ****         return (position);
1703:.\Generated_Source\PSoC4/CapSense_CSHL.c ****     }    
1704:.\Generated_Source\PSoC4/CapSense_CSHL.c **** #endif /* (CapSense_TOTAL_CENTROIDS_BASIC_COUNT) */
1705:.\Generated_Source\PSoC4/CapSense_CSHL.c **** 
1706:.\Generated_Source\PSoC4/CapSense_CSHL.c **** 
1707:.\Generated_Source\PSoC4/CapSense_CSHL.c **** #if((CapSense_TOTAL_RADIAL_SLIDERS_COUNT > 0u) || (CapSense_TOTAL_LINEAR_SLIDERS_COUNT > 0u))
1708:.\Generated_Source\PSoC4/CapSense_CSHL.c ****     /*******************************************************************************
1709:.\Generated_Source\PSoC4/CapSense_CSHL.c ****     * Function Name: CapSense_GetCentroidPos
ARM GAS  C:\Users\merlin\AppData\Local\Temp\cchlGLBb.s 			page 52


1710:.\Generated_Source\PSoC4/CapSense_CSHL.c ****     ********************************************************************************
1711:.\Generated_Source\PSoC4/CapSense_CSHL.c ****     *
1712:.\Generated_Source\PSoC4/CapSense_CSHL.c ****     * Summary:
1713:.\Generated_Source\PSoC4/CapSense_CSHL.c ****     *  Checks the CapSense_Signal[ ] array for a centroid within
1714:.\Generated_Source\PSoC4/CapSense_CSHL.c ****     *  a slider specified range. The centroid position is calculated according to the resolution
1715:.\Generated_Source\PSoC4/CapSense_CSHL.c ****     *  specified in the CapSense customizer. The position filters are applied to the
1716:.\Generated_Source\PSoC4/CapSense_CSHL.c ****     *  result if enabled.
1717:.\Generated_Source\PSoC4/CapSense_CSHL.c ****     *
1718:.\Generated_Source\PSoC4/CapSense_CSHL.c ****     * Parameters:
1719:.\Generated_Source\PSoC4/CapSense_CSHL.c ****     *  widget:  Widget number.
1720:.\Generated_Source\PSoC4/CapSense_CSHL.c ****     *  For every linear slider widget there are defines in this format:
1721:.\Generated_Source\PSoC4/CapSense_CSHL.c ****     *  #define CapSense_"widget_name"__LS           5
1722:.\Generated_Source\PSoC4/CapSense_CSHL.c ****     * 
1723:.\Generated_Source\PSoC4/CapSense_CSHL.c ****     * Return:
1724:.\Generated_Source\PSoC4/CapSense_CSHL.c ****     *  Returns a position value of the linear slider.
1725:.\Generated_Source\PSoC4/CapSense_CSHL.c **** 	*
1726:.\Generated_Source\PSoC4/CapSense_CSHL.c **** 	* Global Variables:
1727:.\Generated_Source\PSoC4/CapSense_CSHL.c **** 	*  None
1728:.\Generated_Source\PSoC4/CapSense_CSHL.c **** 	*
1729:.\Generated_Source\PSoC4/CapSense_CSHL.c ****     * Side Effects:
1730:.\Generated_Source\PSoC4/CapSense_CSHL.c ****     *  If any sensor within the slider widget is active, the function returns values
1731:.\Generated_Source\PSoC4/CapSense_CSHL.c ****     *  from zero to the API resolution value set in the CapSense customizer. If no
1732:.\Generated_Source\PSoC4/CapSense_CSHL.c ****     *  sensors are active, the function returns 0xFFFF. If an error occurs during
1733:.\Generated_Source\PSoC4/CapSense_CSHL.c ****     *  execution of the centroid/diplexing algorithm, the function returns 0xFFFF.
1734:.\Generated_Source\PSoC4/CapSense_CSHL.c ****     *  There are no checks of the widget type argument provided to this function.
1735:.\Generated_Source\PSoC4/CapSense_CSHL.c ****     *  The unproper widget type provided will cause unexpected position calculations.
1736:.\Generated_Source\PSoC4/CapSense_CSHL.c ****     *
1737:.\Generated_Source\PSoC4/CapSense_CSHL.c ****     * Note:
1738:.\Generated_Source\PSoC4/CapSense_CSHL.c ****     *  If noise counts on the slider segments are greater than the noise
1739:.\Generated_Source\PSoC4/CapSense_CSHL.c ****     *  threshold, this subroutine may generate a false centroid result. The noise
1740:.\Generated_Source\PSoC4/CapSense_CSHL.c ****     *  threshold should be set carefully (high enough above the noise level) so
1741:.\Generated_Source\PSoC4/CapSense_CSHL.c ****     *  that noise will not generate a false centroid.
1742:.\Generated_Source\PSoC4/CapSense_CSHL.c ****     *******************************************************************************/
1743:.\Generated_Source\PSoC4/CapSense_CSHL.c ****     uint16 CapSense_GetCentroidPos(uint32 widget)
1744:.\Generated_Source\PSoC4/CapSense_CSHL.c ****     {
1745:.\Generated_Source\PSoC4/CapSense_CSHL.c ****         #if (CapSense_IS_DIPLEX_SLIDER)
1746:.\Generated_Source\PSoC4/CapSense_CSHL.c ****             const uint8 *diplex;
1747:.\Generated_Source\PSoC4/CapSense_CSHL.c ****         #endif /* (CapSense_IS_DIPLEX_SLIDER) */
1748:.\Generated_Source\PSoC4/CapSense_CSHL.c ****                 
1749:.\Generated_Source\PSoC4/CapSense_CSHL.c ****         #if (0u != CapSense_LINEAR_SLIDERS_POS_FILTERS_MASK)
1750:.\Generated_Source\PSoC4/CapSense_CSHL.c ****             uint8 posIndex;
1751:.\Generated_Source\PSoC4/CapSense_CSHL.c ****             uint8 firstTimeIndex = CapSense_posFiltersData[widget];
1752:.\Generated_Source\PSoC4/CapSense_CSHL.c ****             uint8 posFiltersMask = CapSense_posFiltersMask[widget];  
1753:.\Generated_Source\PSoC4/CapSense_CSHL.c ****         #endif /* (0u != CapSense_LINEAR_SLIDERS_POS_FILTERS_MASK) */
1754:.\Generated_Source\PSoC4/CapSense_CSHL.c **** 
1755:.\Generated_Source\PSoC4/CapSense_CSHL.c ****         #if ((0u != (CapSense_MEDIAN_FILTER & CapSense_LINEAR_SLIDERS_POS_FILTERS_MASK)) || \
1756:.\Generated_Source\PSoC4/CapSense_CSHL.c ****              (0u != (CapSense_AVERAGING_FILTER & CapSense_LINEAR_SLIDERS_POS_FILTERS_MASK)))
1757:.\Generated_Source\PSoC4/CapSense_CSHL.c ****             uint8 tempPos;
1758:.\Generated_Source\PSoC4/CapSense_CSHL.c ****         #endif /* ((0u != (CapSense_MEDIAN_FILTER & CapSense_LINEAR_SLIDERS_POS_FILTERS_MASK)) || \
1759:.\Generated_Source\PSoC4/CapSense_CSHL.c ****                *   (0u != (CapSense_AVERAGING_FILTER & CapSense_LINEAR_SLIDERS_POS_FILTERS_MASK)))
1760:.\Generated_Source\PSoC4/CapSense_CSHL.c ****                */
1761:.\Generated_Source\PSoC4/CapSense_CSHL.c **** 
1762:.\Generated_Source\PSoC4/CapSense_CSHL.c ****         uint8 maximum;
1763:.\Generated_Source\PSoC4/CapSense_CSHL.c ****         uint16 position;
1764:.\Generated_Source\PSoC4/CapSense_CSHL.c ****         uint8 offset = CapSense_rawDataIndex[widget];
1765:.\Generated_Source\PSoC4/CapSense_CSHL.c ****         uint8 count = CapSense_numberOfSensors[widget];
1766:.\Generated_Source\PSoC4/CapSense_CSHL.c ****                         
ARM GAS  C:\Users\merlin\AppData\Local\Temp\cchlGLBb.s 			page 53


1767:.\Generated_Source\PSoC4/CapSense_CSHL.c ****         #if (CapSense_IS_DIPLEX_SLIDER)
1768:.\Generated_Source\PSoC4/CapSense_CSHL.c ****             if(widget < CapSense_TOTAL_DIPLEXED_SLIDERS_COUNT)
1769:.\Generated_Source\PSoC4/CapSense_CSHL.c ****             {
1770:.\Generated_Source\PSoC4/CapSense_CSHL.c ****                 maximum = CapSense_diplexTable[widget];
1771:.\Generated_Source\PSoC4/CapSense_CSHL.c ****                 diplex = &CapSense_diplexTable[maximum];
1772:.\Generated_Source\PSoC4/CapSense_CSHL.c ****             }
1773:.\Generated_Source\PSoC4/CapSense_CSHL.c ****             else
1774:.\Generated_Source\PSoC4/CapSense_CSHL.c ****             {
1775:.\Generated_Source\PSoC4/CapSense_CSHL.c ****                 diplex = 0u;
1776:.\Generated_Source\PSoC4/CapSense_CSHL.c ****             }
1777:.\Generated_Source\PSoC4/CapSense_CSHL.c ****         #endif /* (CapSense_IS_DIPLEX_SLIDER) */
1778:.\Generated_Source\PSoC4/CapSense_CSHL.c **** 
1779:.\Generated_Source\PSoC4/CapSense_CSHL.c **** 		/* Find Maximum within centroid */      
1780:.\Generated_Source\PSoC4/CapSense_CSHL.c **** 		#if (CapSense_IS_DIPLEX_SLIDER)        
1781:.\Generated_Source\PSoC4/CapSense_CSHL.c **** 			maximum = CapSense_FindMaximum(offset, count, (uint16)CapSense_fingerThreshold[widget], diplex);
1782:.\Generated_Source\PSoC4/CapSense_CSHL.c **** 		#else
1783:.\Generated_Source\PSoC4/CapSense_CSHL.c **** 			maximum = CapSense_FindMaximum(offset, count, (uint16)CapSense_fingerThreshold[widget]);
1784:.\Generated_Source\PSoC4/CapSense_CSHL.c **** 		#endif /* (CapSense_IS_DIPLEX_SLIDER) */
1785:.\Generated_Source\PSoC4/CapSense_CSHL.c **** 
1786:.\Generated_Source\PSoC4/CapSense_CSHL.c ****         if (maximum != 0xFFu)
1787:.\Generated_Source\PSoC4/CapSense_CSHL.c ****         {
1788:.\Generated_Source\PSoC4/CapSense_CSHL.c ****             /* Calculate centroid */
1789:.\Generated_Source\PSoC4/CapSense_CSHL.c ****             position = (uint16) CapSense_CalcCentroid(maximum, 
1790:.\Generated_Source\PSoC4/CapSense_CSHL.c ****                          offset, count, CapSense_centroidMult[widget], CapSense_noiseThreshold[widg
1791:.\Generated_Source\PSoC4/CapSense_CSHL.c **** 
1792:.\Generated_Source\PSoC4/CapSense_CSHL.c ****             #if (0u != CapSense_LINEAR_SLIDERS_POS_FILTERS_MASK)
1793:.\Generated_Source\PSoC4/CapSense_CSHL.c ****                 /* Check if this linear slider has enabled filters */
1794:.\Generated_Source\PSoC4/CapSense_CSHL.c ****                 if (0u != (posFiltersMask & CapSense_ANY_POS_FILTER))
1795:.\Generated_Source\PSoC4/CapSense_CSHL.c ****                 {
1796:.\Generated_Source\PSoC4/CapSense_CSHL.c ****                     /* Calculate position to store filters data */
1797:.\Generated_Source\PSoC4/CapSense_CSHL.c ****                     posIndex  = firstTimeIndex + 1u;
1798:.\Generated_Source\PSoC4/CapSense_CSHL.c ****                     
1799:.\Generated_Source\PSoC4/CapSense_CSHL.c ****                     if (0u == CapSense_posFiltersData[firstTimeIndex])
1800:.\Generated_Source\PSoC4/CapSense_CSHL.c ****                     {
1801:.\Generated_Source\PSoC4/CapSense_CSHL.c ****                         /* Init filters */
1802:.\Generated_Source\PSoC4/CapSense_CSHL.c ****                         CapSense_posFiltersData[posIndex] = (uint8) position;
1803:.\Generated_Source\PSoC4/CapSense_CSHL.c ****                         #if ((0u != (CapSense_MEDIAN_FILTER & \
1804:.\Generated_Source\PSoC4/CapSense_CSHL.c ****                                      CapSense_LINEAR_SLIDERS_POS_FILTERS_MASK)) || \
1805:.\Generated_Source\PSoC4/CapSense_CSHL.c ****                              (0u != (CapSense_AVERAGING_FILTER & \
1806:.\Generated_Source\PSoC4/CapSense_CSHL.c ****                                      CapSense_LINEAR_SLIDERS_POS_FILTERS_MASK)))
1807:.\Generated_Source\PSoC4/CapSense_CSHL.c **** 
1808:.\Generated_Source\PSoC4/CapSense_CSHL.c ****                             if ( (0u != (posFiltersMask & CapSense_MEDIAN_FILTER)) || 
1809:.\Generated_Source\PSoC4/CapSense_CSHL.c ****                                  (0u != (posFiltersMask & CapSense_AVERAGING_FILTER)) )
1810:.\Generated_Source\PSoC4/CapSense_CSHL.c ****                             {
1811:.\Generated_Source\PSoC4/CapSense_CSHL.c ****                                 CapSense_posFiltersData[posIndex + 1u] = (uint8) position;
1812:.\Generated_Source\PSoC4/CapSense_CSHL.c ****                             }
1813:.\Generated_Source\PSoC4/CapSense_CSHL.c ****                         #endif /* ((0u != (CapSense_MEDIAN_FILTER & \
1814:.\Generated_Source\PSoC4/CapSense_CSHL.c ****                                *           CapSense_LINEAR_SLIDERS_POS_FILTERS_MASK)) || \
1815:.\Generated_Source\PSoC4/CapSense_CSHL.c ****                                *   (0u != (CapSense_AVERAGING_FILTER & \
1816:.\Generated_Source\PSoC4/CapSense_CSHL.c ****                                *           CapSense_LINEAR_SLIDERS_POS_FILTERS_MASK)))
1817:.\Generated_Source\PSoC4/CapSense_CSHL.c ****                                */
1818:.\Generated_Source\PSoC4/CapSense_CSHL.c ****                         
1819:.\Generated_Source\PSoC4/CapSense_CSHL.c ****                         CapSense_posFiltersData[firstTimeIndex] = 1u;
1820:.\Generated_Source\PSoC4/CapSense_CSHL.c ****                     }
1821:.\Generated_Source\PSoC4/CapSense_CSHL.c ****                     else
1822:.\Generated_Source\PSoC4/CapSense_CSHL.c ****                     {
1823:.\Generated_Source\PSoC4/CapSense_CSHL.c ****                         /* Do filtering */
ARM GAS  C:\Users\merlin\AppData\Local\Temp\cchlGLBb.s 			page 54


1824:.\Generated_Source\PSoC4/CapSense_CSHL.c ****                         #if (0u != (CapSense_MEDIAN_FILTER & CapSense_LINEAR_SLIDERS_POS_FILTERS_MA
1825:.\Generated_Source\PSoC4/CapSense_CSHL.c ****                             if (0u != (posFiltersMask & CapSense_MEDIAN_FILTER))
1826:.\Generated_Source\PSoC4/CapSense_CSHL.c ****                             {
1827:.\Generated_Source\PSoC4/CapSense_CSHL.c ****                                 tempPos = (uint8) position;
1828:.\Generated_Source\PSoC4/CapSense_CSHL.c ****                                 position = CapSense_MedianFilter(position,
1829:.\Generated_Source\PSoC4/CapSense_CSHL.c ****                                                                 (uint16)CapSense_posFiltersData[pos
1830:.\Generated_Source\PSoC4/CapSense_CSHL.c ****                                                                 (uint16)CapSense_posFiltersData[pos
1831:.\Generated_Source\PSoC4/CapSense_CSHL.c ****                                 CapSense_posFiltersData[posIndex + 1u] =
1832:.\Generated_Source\PSoC4/CapSense_CSHL.c ****                                                                              CapSense_posFiltersDat
1833:.\Generated_Source\PSoC4/CapSense_CSHL.c ****                                 CapSense_posFiltersData[posIndex] = tempPos;
1834:.\Generated_Source\PSoC4/CapSense_CSHL.c ****                             }
1835:.\Generated_Source\PSoC4/CapSense_CSHL.c ****                         #endif /*(0u != (CapSense_MEDIAN_FILTER &
1836:.\Generated_Source\PSoC4/CapSense_CSHL.c ****                                *         CapSense_LINEAR_SLIDERS_POS_FILTERS_MASK))
1837:.\Generated_Source\PSoC4/CapSense_CSHL.c ****                                */
1838:.\Generated_Source\PSoC4/CapSense_CSHL.c **** 
1839:.\Generated_Source\PSoC4/CapSense_CSHL.c ****                         #if(0u!=(CapSense_AVERAGING_FILTER & CapSense_LINEAR_SLIDERS_POS_FILTERS_MA
1840:.\Generated_Source\PSoC4/CapSense_CSHL.c ****                             if (0u != (posFiltersMask & CapSense_AVERAGING_FILTER)) 
1841:.\Generated_Source\PSoC4/CapSense_CSHL.c ****                             {
1842:.\Generated_Source\PSoC4/CapSense_CSHL.c ****                                 tempPos = (uint8) position;
1843:.\Generated_Source\PSoC4/CapSense_CSHL.c ****                                 position = CapSense_AveragingFilter(position,
1844:.\Generated_Source\PSoC4/CapSense_CSHL.c ****                                                                 (uint16)CapSense_posFiltersData[pos
1845:.\Generated_Source\PSoC4/CapSense_CSHL.c ****                                                                 (uint16)CapSense_posFiltersData[pos
1846:.\Generated_Source\PSoC4/CapSense_CSHL.c ****                                 CapSense_posFiltersData[posIndex+1u]=CapSense_posFiltersData[posInd
1847:.\Generated_Source\PSoC4/CapSense_CSHL.c ****                                 CapSense_posFiltersData[posIndex] = tempPos;
1848:.\Generated_Source\PSoC4/CapSense_CSHL.c ****                             }
1849:.\Generated_Source\PSoC4/CapSense_CSHL.c ****                         #endif /* (0u != (CapSense_AVERAGING_FILTER & \
1850:.\Generated_Source\PSoC4/CapSense_CSHL.c ****                                *           CapSense_LINEAR_SLIDERS_POS_FILTERS_MASK))
1851:.\Generated_Source\PSoC4/CapSense_CSHL.c ****                                */
1852:.\Generated_Source\PSoC4/CapSense_CSHL.c **** 
1853:.\Generated_Source\PSoC4/CapSense_CSHL.c ****                         #if (0u != (CapSense_IIR2_FILTER & CapSense_LINEAR_SLIDERS_POS_FILTERS_MASK
1854:.\Generated_Source\PSoC4/CapSense_CSHL.c ****                             if (0u != (posFiltersMask & CapSense_IIR2_FILTER)) 
1855:.\Generated_Source\PSoC4/CapSense_CSHL.c ****                             {
1856:.\Generated_Source\PSoC4/CapSense_CSHL.c ****                                 position = CapSense_IIR2Filter(position,
1857:.\Generated_Source\PSoC4/CapSense_CSHL.c ****                                                                     (uint16)CapSense_posFiltersData
1858:.\Generated_Source\PSoC4/CapSense_CSHL.c ****                                 CapSense_posFiltersData[posIndex] = (uint8) position;
1859:.\Generated_Source\PSoC4/CapSense_CSHL.c ****                             }
1860:.\Generated_Source\PSoC4/CapSense_CSHL.c ****                         #endif /* (0u != (CapSense_IIR2_FILTER & \
1861:.\Generated_Source\PSoC4/CapSense_CSHL.c ****                                *          CapSense_LINEAR_SLIDERS_POS_FILTERS_MASK))
1862:.\Generated_Source\PSoC4/CapSense_CSHL.c ****                                */
1863:.\Generated_Source\PSoC4/CapSense_CSHL.c **** 
1864:.\Generated_Source\PSoC4/CapSense_CSHL.c ****                         #if (0u != (CapSense_IIR4_FILTER & CapSense_LINEAR_SLIDERS_POS_FILTERS_MASK
1865:.\Generated_Source\PSoC4/CapSense_CSHL.c ****                             if (0u != (posFiltersMask & CapSense_IIR4_FILTER))
1866:.\Generated_Source\PSoC4/CapSense_CSHL.c ****                             {
1867:.\Generated_Source\PSoC4/CapSense_CSHL.c ****                                 position = CapSense_IIR4Filter(position,
1868:.\Generated_Source\PSoC4/CapSense_CSHL.c ****                                                                     (uint16)CapSense_posFiltersData
1869:.\Generated_Source\PSoC4/CapSense_CSHL.c ****                                 CapSense_posFiltersData[posIndex] = (uint8) position;
1870:.\Generated_Source\PSoC4/CapSense_CSHL.c ****                             }                                
1871:.\Generated_Source\PSoC4/CapSense_CSHL.c ****                         #endif /* (0u != (CapSense_IIR4_FILTER & \
1872:.\Generated_Source\PSoC4/CapSense_CSHL.c ****                                *          CapSense_LINEAR_SLIDERS_POS_FILTERS_MASK))
1873:.\Generated_Source\PSoC4/CapSense_CSHL.c ****                                */
1874:.\Generated_Source\PSoC4/CapSense_CSHL.c **** 
1875:.\Generated_Source\PSoC4/CapSense_CSHL.c ****                         #if (0u != (CapSense_JITTER_FILTER & CapSense_LINEAR_SLIDERS_POS_FILTERS_MA
1876:.\Generated_Source\PSoC4/CapSense_CSHL.c ****                             if (0u != (posFiltersMask & CapSense_JITTER_FILTER))
1877:.\Generated_Source\PSoC4/CapSense_CSHL.c ****                             {
1878:.\Generated_Source\PSoC4/CapSense_CSHL.c ****                                 position = CapSense_JitterFilter(position,
1879:.\Generated_Source\PSoC4/CapSense_CSHL.c ****                                                                     (uint16)CapSense_posFiltersData
1880:.\Generated_Source\PSoC4/CapSense_CSHL.c ****                                 CapSense_posFiltersData[posIndex] = (uint8) position;
ARM GAS  C:\Users\merlin\AppData\Local\Temp\cchlGLBb.s 			page 55


1881:.\Generated_Source\PSoC4/CapSense_CSHL.c ****                             }
1882:.\Generated_Source\PSoC4/CapSense_CSHL.c ****                         #endif /* (0u != (CapSense_JITTER_FILTER & \
1883:.\Generated_Source\PSoC4/CapSense_CSHL.c ****                                *           CapSense_LINEAR_SLIDERS_POS_FILTERS_MASK))
1884:.\Generated_Source\PSoC4/CapSense_CSHL.c ****                                */
1885:.\Generated_Source\PSoC4/CapSense_CSHL.c ****                     }
1886:.\Generated_Source\PSoC4/CapSense_CSHL.c ****                 }
1887:.\Generated_Source\PSoC4/CapSense_CSHL.c ****             #endif /* (0u != CapSense_LINEAR_SLIDERS_POS_FILTERS_MASK) */
1888:.\Generated_Source\PSoC4/CapSense_CSHL.c **** 
1889:.\Generated_Source\PSoC4/CapSense_CSHL.c ****         }
1890:.\Generated_Source\PSoC4/CapSense_CSHL.c ****         else
1891:.\Generated_Source\PSoC4/CapSense_CSHL.c ****         {
1892:.\Generated_Source\PSoC4/CapSense_CSHL.c ****             /* Maximum wasn't found */
1893:.\Generated_Source\PSoC4/CapSense_CSHL.c ****             position = 0xFFFFu;
1894:.\Generated_Source\PSoC4/CapSense_CSHL.c **** 
1895:.\Generated_Source\PSoC4/CapSense_CSHL.c ****             #if(0u != CapSense_LINEAR_SLIDERS_POS_FILTERS_MASK)
1896:.\Generated_Source\PSoC4/CapSense_CSHL.c ****                 /* Reset filters */
1897:.\Generated_Source\PSoC4/CapSense_CSHL.c ****                 if(0u != (posFiltersMask & CapSense_ANY_POS_FILTER))
1898:.\Generated_Source\PSoC4/CapSense_CSHL.c ****                 {
1899:.\Generated_Source\PSoC4/CapSense_CSHL.c ****                     CapSense_posFiltersData[firstTimeIndex] = 0u;
1900:.\Generated_Source\PSoC4/CapSense_CSHL.c ****                 }
1901:.\Generated_Source\PSoC4/CapSense_CSHL.c ****             #endif /* (0u != CapSense_LINEAR_SLIDERS_POS_FILTERS_MASK) */
1902:.\Generated_Source\PSoC4/CapSense_CSHL.c ****         }
1903:.\Generated_Source\PSoC4/CapSense_CSHL.c **** 
1904:.\Generated_Source\PSoC4/CapSense_CSHL.c ****         
1905:.\Generated_Source\PSoC4/CapSense_CSHL.c ****         return (position);
1906:.\Generated_Source\PSoC4/CapSense_CSHL.c ****     }
1907:.\Generated_Source\PSoC4/CapSense_CSHL.c **** #endif /* ((CapSense_TOTAL_RADIAL_SLIDERS_COUNT > 0u) || (CapSense_TOTAL_LINEAR_SLIDERS_COUNT > 0u)
1908:.\Generated_Source\PSoC4/CapSense_CSHL.c **** 
1909:.\Generated_Source\PSoC4/CapSense_CSHL.c **** 
1910:.\Generated_Source\PSoC4/CapSense_CSHL.c **** #if((CapSense_TOTAL_RADIAL_SLIDERS_COUNT > 0u) || (CapSense_TOTAL_LINEAR_SLIDERS_COUNT > 0u))
1911:.\Generated_Source\PSoC4/CapSense_CSHL.c ****     /*******************************************************************************
1912:.\Generated_Source\PSoC4/CapSense_CSHL.c ****     * Function Name: CapSense_GetRadialCentroidPos
1913:.\Generated_Source\PSoC4/CapSense_CSHL.c ****     ********************************************************************************
1914:.\Generated_Source\PSoC4/CapSense_CSHL.c ****     *
1915:.\Generated_Source\PSoC4/CapSense_CSHL.c ****     * Summary:
1916:.\Generated_Source\PSoC4/CapSense_CSHL.c ****     *  Checks the CapSense_Signal[ ] array for a centroid within
1917:.\Generated_Source\PSoC4/CapSense_CSHL.c ****     *  a slider specified range. The centroid position is calculated according to the resolution
1918:.\Generated_Source\PSoC4/CapSense_CSHL.c ****     *  specified in the CapSense customizer. The position filters are applied to the
1919:.\Generated_Source\PSoC4/CapSense_CSHL.c ****     *  result if enabled.
1920:.\Generated_Source\PSoC4/CapSense_CSHL.c ****     *
1921:.\Generated_Source\PSoC4/CapSense_CSHL.c ****     * Parameters:
1922:.\Generated_Source\PSoC4/CapSense_CSHL.c ****     *  widget:  Widget number.
1923:.\Generated_Source\PSoC4/CapSense_CSHL.c ****     *  For every radial slider widget there are defines in this format:
1924:.\Generated_Source\PSoC4/CapSense_CSHL.c ****     *  #define CapSense_"widget_name"__RS           5
1925:.\Generated_Source\PSoC4/CapSense_CSHL.c ****     * 
1926:.\Generated_Source\PSoC4/CapSense_CSHL.c ****     * Return:
1927:.\Generated_Source\PSoC4/CapSense_CSHL.c ****     *  Returns a position value of the radial slider.
1928:.\Generated_Source\PSoC4/CapSense_CSHL.c ****     *
1929:.\Generated_Source\PSoC4/CapSense_CSHL.c **** 	* Global Variables:
1930:.\Generated_Source\PSoC4/CapSense_CSHL.c **** 	*  None.
1931:.\Generated_Source\PSoC4/CapSense_CSHL.c **** 	*
1932:.\Generated_Source\PSoC4/CapSense_CSHL.c ****     * Side Effects:
1933:.\Generated_Source\PSoC4/CapSense_CSHL.c ****     *  If any sensor within the slider widget is active, the function returns values
1934:.\Generated_Source\PSoC4/CapSense_CSHL.c ****     *  from zero to the API resolution value set in the CapSense customizer. If no
1935:.\Generated_Source\PSoC4/CapSense_CSHL.c ****     *  sensors are active, the function returns 0xFFFF.
1936:.\Generated_Source\PSoC4/CapSense_CSHL.c ****     *  There are no checks of the widget type argument provided to this function.
1937:.\Generated_Source\PSoC4/CapSense_CSHL.c ****     *  The unproper widget type provided will cause unexpected position calculations.
ARM GAS  C:\Users\merlin\AppData\Local\Temp\cchlGLBb.s 			page 56


1938:.\Generated_Source\PSoC4/CapSense_CSHL.c ****     *
1939:.\Generated_Source\PSoC4/CapSense_CSHL.c ****     * Note:
1940:.\Generated_Source\PSoC4/CapSense_CSHL.c ****     *  If noise counts on the slider segments are greater than the noise
1941:.\Generated_Source\PSoC4/CapSense_CSHL.c ****     *  threshold, this subroutine may generate a false centroid result. The noise
1942:.\Generated_Source\PSoC4/CapSense_CSHL.c ****     *  threshold should be set carefully (high enough above the noise level) so 
1943:.\Generated_Source\PSoC4/CapSense_CSHL.c ****     *  that noise will not generate a false centroid.
1944:.\Generated_Source\PSoC4/CapSense_CSHL.c ****     *
1945:.\Generated_Source\PSoC4/CapSense_CSHL.c ****     *******************************************************************************/
1946:.\Generated_Source\PSoC4/CapSense_CSHL.c ****      uint16 CapSense_GetRadialCentroidPos(uint32 widget)
1947:.\Generated_Source\PSoC4/CapSense_CSHL.c ****     {
1948:.\Generated_Source\PSoC4/CapSense_CSHL.c ****         #if (0u != CapSense_RADIAL_SLIDERS_POS_FILTERS_MASK)
1949:.\Generated_Source\PSoC4/CapSense_CSHL.c ****             uint8 posIndex;
1950:.\Generated_Source\PSoC4/CapSense_CSHL.c ****             uint8 firstTimeIndex = CapSense_posFiltersData[widget];
1951:.\Generated_Source\PSoC4/CapSense_CSHL.c ****             uint8 posFiltersMask = CapSense_posFiltersMask[widget]; 
1952:.\Generated_Source\PSoC4/CapSense_CSHL.c ****         #endif /* (0u != CapSense_RADIAL_SLIDERS_POS_FILTERS_MASK) */
1953:.\Generated_Source\PSoC4/CapSense_CSHL.c **** 
1954:.\Generated_Source\PSoC4/CapSense_CSHL.c ****         #if ((0u != (CapSense_MEDIAN_FILTER & CapSense_RADIAL_SLIDERS_POS_FILTERS_MASK)) || \
1955:.\Generated_Source\PSoC4/CapSense_CSHL.c ****              (0u != (CapSense_AVERAGING_FILTER & CapSense_RADIAL_SLIDERS_POS_FILTERS_MASK)))
1956:.\Generated_Source\PSoC4/CapSense_CSHL.c ****             uint8 tempPos;
1957:.\Generated_Source\PSoC4/CapSense_CSHL.c ****         #endif /* ((0u != (CapSense_MEDIAN_FILTER & CapSense_RADIAL_SLIDERS_POS_FILTERS_MASK)) || \
1958:.\Generated_Source\PSoC4/CapSense_CSHL.c ****                *   (0u != (CapSense_AVERAGING_FILTER & CapSense_RADIAL_SLIDERS_POS_FILTERS_MASK)))
1959:.\Generated_Source\PSoC4/CapSense_CSHL.c ****                */
1960:.\Generated_Source\PSoC4/CapSense_CSHL.c **** 
1961:.\Generated_Source\PSoC4/CapSense_CSHL.c ****         uint8 maximum;
1962:.\Generated_Source\PSoC4/CapSense_CSHL.c ****         uint16 position;
1963:.\Generated_Source\PSoC4/CapSense_CSHL.c ****         uint8 offset = CapSense_rawDataIndex[widget];
1964:.\Generated_Source\PSoC4/CapSense_CSHL.c ****         uint8 count = CapSense_numberOfSensors[widget];
1965:.\Generated_Source\PSoC4/CapSense_CSHL.c **** 
1966:.\Generated_Source\PSoC4/CapSense_CSHL.c **** 		/* Find Maximum within centroid */      
1967:.\Generated_Source\PSoC4/CapSense_CSHL.c **** 		#if (CapSense_IS_DIPLEX_SLIDER)        
1968:.\Generated_Source\PSoC4/CapSense_CSHL.c **** 			maximum = CapSense_FindMaximum(offset, count, (uint16)CapSense_fingerThreshold[widget], 0u);
1969:.\Generated_Source\PSoC4/CapSense_CSHL.c **** 		#else
1970:.\Generated_Source\PSoC4/CapSense_CSHL.c **** 			maximum = CapSense_FindMaximum(offset, count, (uint16)CapSense_fingerThreshold[widget]);
1971:.\Generated_Source\PSoC4/CapSense_CSHL.c **** 		#endif /* (CapSense_IS_DIPLEX_SLIDER) */
1972:.\Generated_Source\PSoC4/CapSense_CSHL.c ****         
1973:.\Generated_Source\PSoC4/CapSense_CSHL.c ****         if (maximum != CapSense_MAXIMUM_CENTROID)
1974:.\Generated_Source\PSoC4/CapSense_CSHL.c ****         {
1975:.\Generated_Source\PSoC4/CapSense_CSHL.c ****             /* Calculate centroid */
1976:.\Generated_Source\PSoC4/CapSense_CSHL.c ****             position = (uint16) CapSense_CalcCentroid(maximum, 
1977:.\Generated_Source\PSoC4/CapSense_CSHL.c ****                          offset, count, CapSense_centroidMult[widget], CapSense_noiseThreshold[widg
1978:.\Generated_Source\PSoC4/CapSense_CSHL.c **** 
1979:.\Generated_Source\PSoC4/CapSense_CSHL.c ****             #if (0u != CapSense_RADIAL_SLIDERS_POS_FILTERS_MASK)
1980:.\Generated_Source\PSoC4/CapSense_CSHL.c ****                 /* Check if this Radial slider has enabled filters */
1981:.\Generated_Source\PSoC4/CapSense_CSHL.c ****                 if (0u != (posFiltersMask & CapSense_ANY_POS_FILTER))
1982:.\Generated_Source\PSoC4/CapSense_CSHL.c ****                 {
1983:.\Generated_Source\PSoC4/CapSense_CSHL.c ****                     /* Calculate position to store filters data */
1984:.\Generated_Source\PSoC4/CapSense_CSHL.c ****                     posIndex  = firstTimeIndex + 1u;
1985:.\Generated_Source\PSoC4/CapSense_CSHL.c ****                     
1986:.\Generated_Source\PSoC4/CapSense_CSHL.c ****                     if (0u == CapSense_posFiltersData[firstTimeIndex])
1987:.\Generated_Source\PSoC4/CapSense_CSHL.c ****                     {
1988:.\Generated_Source\PSoC4/CapSense_CSHL.c ****                         /* Init filters */
1989:.\Generated_Source\PSoC4/CapSense_CSHL.c ****                         CapSense_posFiltersData[posIndex] = (uint8) position;
1990:.\Generated_Source\PSoC4/CapSense_CSHL.c ****                         #if ((0u != (CapSense_MEDIAN_FILTER & \
1991:.\Generated_Source\PSoC4/CapSense_CSHL.c ****                                      CapSense_RADIAL_SLIDERS_POS_FILTERS_MASK)) || \
1992:.\Generated_Source\PSoC4/CapSense_CSHL.c ****                              (0u != (CapSense_AVERAGING_FILTER & \
1993:.\Generated_Source\PSoC4/CapSense_CSHL.c ****                                      CapSense_RADIAL_SLIDERS_POS_FILTERS_MASK)))
1994:.\Generated_Source\PSoC4/CapSense_CSHL.c **** 
ARM GAS  C:\Users\merlin\AppData\Local\Temp\cchlGLBb.s 			page 57


1995:.\Generated_Source\PSoC4/CapSense_CSHL.c ****                             if ( (0u != (posFiltersMask & CapSense_MEDIAN_FILTER))  || 
1996:.\Generated_Source\PSoC4/CapSense_CSHL.c ****                                  (0u != (posFiltersMask & CapSense_AVERAGING_FILTER)) )
1997:.\Generated_Source\PSoC4/CapSense_CSHL.c ****                             {
1998:.\Generated_Source\PSoC4/CapSense_CSHL.c ****                                 CapSense_posFiltersData[posIndex + 1u] = (uint8) position;
1999:.\Generated_Source\PSoC4/CapSense_CSHL.c ****                             }
2000:.\Generated_Source\PSoC4/CapSense_CSHL.c ****                         #endif /* ((0u != (CapSense_MEDIAN_FILTER & \
2001:.\Generated_Source\PSoC4/CapSense_CSHL.c ****                                *           CapSense_RADIAL_SLIDERS_POS_FILTERS_MASK)) || \
2002:.\Generated_Source\PSoC4/CapSense_CSHL.c ****                                *   (0u != (CapSense_AVERAGING_FILTER & \
2003:.\Generated_Source\PSoC4/CapSense_CSHL.c ****                                *           CapSense_RADIAL_SLIDERS_POS_FILTERS_MASK)))
2004:.\Generated_Source\PSoC4/CapSense_CSHL.c ****                                */
2005:.\Generated_Source\PSoC4/CapSense_CSHL.c ****                         
2006:.\Generated_Source\PSoC4/CapSense_CSHL.c ****                         CapSense_posFiltersData[firstTimeIndex] = 1u;
2007:.\Generated_Source\PSoC4/CapSense_CSHL.c ****                     }
2008:.\Generated_Source\PSoC4/CapSense_CSHL.c ****                     else
2009:.\Generated_Source\PSoC4/CapSense_CSHL.c ****                     {
2010:.\Generated_Source\PSoC4/CapSense_CSHL.c ****                         /* Do filtering */
2011:.\Generated_Source\PSoC4/CapSense_CSHL.c ****                         #if (0u != (CapSense_MEDIAN_FILTER & CapSense_RADIAL_SLIDERS_POS_FILTERS_MA
2012:.\Generated_Source\PSoC4/CapSense_CSHL.c ****                             if (0u != (posFiltersMask & CapSense_MEDIAN_FILTER))
2013:.\Generated_Source\PSoC4/CapSense_CSHL.c ****                             {
2014:.\Generated_Source\PSoC4/CapSense_CSHL.c ****                                 tempPos = (uint8) position;
2015:.\Generated_Source\PSoC4/CapSense_CSHL.c ****                                 position = CapSense_MedianFilter(position,
2016:.\Generated_Source\PSoC4/CapSense_CSHL.c ****                                                                         CapSense_posFiltersData[pos
2017:.\Generated_Source\PSoC4/CapSense_CSHL.c ****                                                                         CapSense_posFiltersData[pos
2018:.\Generated_Source\PSoC4/CapSense_CSHL.c ****                                 CapSense_posFiltersData[posIndex + 1u] = 
2019:.\Generated_Source\PSoC4/CapSense_CSHL.c ****                                                                               CapSense_posFiltersDa
2020:.\Generated_Source\PSoC4/CapSense_CSHL.c ****                                 CapSense_posFiltersData[posIndex] = tempPos;
2021:.\Generated_Source\PSoC4/CapSense_CSHL.c ****                             }
2022:.\Generated_Source\PSoC4/CapSense_CSHL.c ****                         #endif /* (0u != (CapSense_MEDIAN_FILTER & 
2023:.\Generated_Source\PSoC4/CapSense_CSHL.c ****                                *          CapSense_RADIAL_SLIDERS_POS_FILTERS_MASK))
2024:.\Generated_Source\PSoC4/CapSense_CSHL.c ****                                */
2025:.\Generated_Source\PSoC4/CapSense_CSHL.c **** 
2026:.\Generated_Source\PSoC4/CapSense_CSHL.c ****                         #if (0u != (CapSense_AVERAGING_FILTER & \
2027:.\Generated_Source\PSoC4/CapSense_CSHL.c ****                                     CapSense_RADIAL_SLIDERS_POS_FILTERS_MASK))
2028:.\Generated_Source\PSoC4/CapSense_CSHL.c ****                             if (0u != (posFiltersMask & CapSense_AVERAGING_FILTER))
2029:.\Generated_Source\PSoC4/CapSense_CSHL.c ****                             {
2030:.\Generated_Source\PSoC4/CapSense_CSHL.c ****                                 tempPos = (uint8) position;
2031:.\Generated_Source\PSoC4/CapSense_CSHL.c ****                                 position = CapSense_AveragingFilter(position, 
2032:.\Generated_Source\PSoC4/CapSense_CSHL.c ****                                                                        CapSense_posFiltersData[posI
2033:.\Generated_Source\PSoC4/CapSense_CSHL.c ****                                                                        CapSense_posFiltersData[posI
2034:.\Generated_Source\PSoC4/CapSense_CSHL.c ****                                 CapSense_posFiltersData[posIndex+1u]= CapSense_posFiltersData[posIn
2035:.\Generated_Source\PSoC4/CapSense_CSHL.c ****                                 CapSense_posFiltersData[posIndex] = tempPos;
2036:.\Generated_Source\PSoC4/CapSense_CSHL.c ****                             }
2037:.\Generated_Source\PSoC4/CapSense_CSHL.c ****                         #endif /* (0u != (CapSense_AVERAGING_FILTER & \
2038:.\Generated_Source\PSoC4/CapSense_CSHL.c ****                                *          CapSense_RADIAL_SLIDERS_POS_FILTERS_MASK))
2039:.\Generated_Source\PSoC4/CapSense_CSHL.c ****                                */
2040:.\Generated_Source\PSoC4/CapSense_CSHL.c **** 
2041:.\Generated_Source\PSoC4/CapSense_CSHL.c ****                         #if (0u != (CapSense_IIR2_FILTER & CapSense_RADIAL_SLIDERS_POS_FILTERS_MASK
2042:.\Generated_Source\PSoC4/CapSense_CSHL.c ****                             if (0u != (posFiltersMask & CapSense_IIR2_FILTER))
2043:.\Generated_Source\PSoC4/CapSense_CSHL.c ****                             {
2044:.\Generated_Source\PSoC4/CapSense_CSHL.c ****                                 position = CapSense_IIR2Filter(position,
2045:.\Generated_Source\PSoC4/CapSense_CSHL.c ****                                                                     (uint16)CapSense_posFiltersData
2046:.\Generated_Source\PSoC4/CapSense_CSHL.c ****                                 CapSense_posFiltersData[posIndex] = (uint8) position;
2047:.\Generated_Source\PSoC4/CapSense_CSHL.c ****                             }
2048:.\Generated_Source\PSoC4/CapSense_CSHL.c ****                         #endif /* (0u != (CapSense_IIR2_FILTER & 
2049:.\Generated_Source\PSoC4/CapSense_CSHL.c ****                                *          CapSense_RADIAL_SLIDERS_POS_FILTERS_MASK))
2050:.\Generated_Source\PSoC4/CapSense_CSHL.c ****                                */
2051:.\Generated_Source\PSoC4/CapSense_CSHL.c **** 
ARM GAS  C:\Users\merlin\AppData\Local\Temp\cchlGLBb.s 			page 58


2052:.\Generated_Source\PSoC4/CapSense_CSHL.c ****                         #if (0u != (CapSense_IIR4_FILTER & CapSense_RADIAL_SLIDERS_POS_FILTERS_MASK
2053:.\Generated_Source\PSoC4/CapSense_CSHL.c ****                             if (0u != (posFiltersMask & CapSense_IIR4_FILTER))
2054:.\Generated_Source\PSoC4/CapSense_CSHL.c ****                             {
2055:.\Generated_Source\PSoC4/CapSense_CSHL.c ****                                 position = CapSense_IIR4Filter(position,
2056:.\Generated_Source\PSoC4/CapSense_CSHL.c ****                                                                     (uint16)CapSense_posFiltersData
2057:.\Generated_Source\PSoC4/CapSense_CSHL.c ****                                 CapSense_posFiltersData[posIndex] = (uint8) position;
2058:.\Generated_Source\PSoC4/CapSense_CSHL.c ****                             }
2059:.\Generated_Source\PSoC4/CapSense_CSHL.c ****                         #endif /* (0u != (CapSense_IIR4_FILTER & 
2060:.\Generated_Source\PSoC4/CapSense_CSHL.c ****                                *          CapSense_RADIAL_SLIDERS_POS_FILTERS_MASK))
2061:.\Generated_Source\PSoC4/CapSense_CSHL.c ****                                */
2062:.\Generated_Source\PSoC4/CapSense_CSHL.c **** 
2063:.\Generated_Source\PSoC4/CapSense_CSHL.c ****                         #if (0u != (CapSense_JITTER_FILTER & CapSense_RADIAL_SLIDERS_POS_FILTERS_MA
2064:.\Generated_Source\PSoC4/CapSense_CSHL.c ****                             if (0u != (posFiltersMask & CapSense_JITTER_FILTER))
2065:.\Generated_Source\PSoC4/CapSense_CSHL.c ****                             {
2066:.\Generated_Source\PSoC4/CapSense_CSHL.c ****                                 position = CapSense_JitterFilter(position, 
2067:.\Generated_Source\PSoC4/CapSense_CSHL.c ****                                                                          CapSense_posFiltersData[po
2068:.\Generated_Source\PSoC4/CapSense_CSHL.c ****                                 CapSense_posFiltersData[posIndex] = (uint8) position;
2069:.\Generated_Source\PSoC4/CapSense_CSHL.c ****                             }
2070:.\Generated_Source\PSoC4/CapSense_CSHL.c ****                         #endif /* (0u != (CapSense_JITTER_FILTER &
2071:.\Generated_Source\PSoC4/CapSense_CSHL.c ****                                *           CapSense_RADIAL_SLIDERS_POS_FILTERS_MASK))
2072:.\Generated_Source\PSoC4/CapSense_CSHL.c ****                                */
2073:.\Generated_Source\PSoC4/CapSense_CSHL.c ****                     }
2074:.\Generated_Source\PSoC4/CapSense_CSHL.c ****                 }
2075:.\Generated_Source\PSoC4/CapSense_CSHL.c ****             #endif /* (0u != CapSense_RADIAL_SLIDERS_POS_FILTERS_MASK) */
2076:.\Generated_Source\PSoC4/CapSense_CSHL.c **** 
2077:.\Generated_Source\PSoC4/CapSense_CSHL.c ****         }
2078:.\Generated_Source\PSoC4/CapSense_CSHL.c ****         else
2079:.\Generated_Source\PSoC4/CapSense_CSHL.c ****         {
2080:.\Generated_Source\PSoC4/CapSense_CSHL.c ****             /* Maximum was not found */
2081:.\Generated_Source\PSoC4/CapSense_CSHL.c ****             position = 0xFFFFu;
2082:.\Generated_Source\PSoC4/CapSense_CSHL.c **** 
2083:.\Generated_Source\PSoC4/CapSense_CSHL.c ****             #if (0u != CapSense_RADIAL_SLIDERS_POS_FILTERS_MASK)
2084:.\Generated_Source\PSoC4/CapSense_CSHL.c ****                 /* Reset filters */
2085:.\Generated_Source\PSoC4/CapSense_CSHL.c ****                 if((posFiltersMask & CapSense_ANY_POS_FILTER) != 0u)
2086:.\Generated_Source\PSoC4/CapSense_CSHL.c ****                 {
2087:.\Generated_Source\PSoC4/CapSense_CSHL.c ****                     CapSense_posFiltersData[firstTimeIndex] = 0u;
2088:.\Generated_Source\PSoC4/CapSense_CSHL.c ****                 }
2089:.\Generated_Source\PSoC4/CapSense_CSHL.c ****             #endif /* (0u != CapSense_RADIAL_SLIDERS_POS_FILTERS_MASK) */
2090:.\Generated_Source\PSoC4/CapSense_CSHL.c ****         }
2091:.\Generated_Source\PSoC4/CapSense_CSHL.c ****         
2092:.\Generated_Source\PSoC4/CapSense_CSHL.c ****         return (position);
2093:.\Generated_Source\PSoC4/CapSense_CSHL.c ****     }
2094:.\Generated_Source\PSoC4/CapSense_CSHL.c **** #endif /* ((CapSense_TOTAL_RADIAL_SLIDERS_COUNT > 0u) || (CapSense_TOTAL_LINEAR_SLIDERS_COUNT > 0u)
2095:.\Generated_Source\PSoC4/CapSense_CSHL.c **** 
2096:.\Generated_Source\PSoC4/CapSense_CSHL.c **** 
2097:.\Generated_Source\PSoC4/CapSense_CSHL.c **** #if(CapSense_TOTAL_TOUCH_PADS_BASIC_COUNT > 0u)
2098:.\Generated_Source\PSoC4/CapSense_CSHL.c ****     /*******************************************************************************
2099:.\Generated_Source\PSoC4/CapSense_CSHL.c ****     * Function Name: CapSense_GetTouchCentroidPos
2100:.\Generated_Source\PSoC4/CapSense_CSHL.c ****     ********************************************************************************
2101:.\Generated_Source\PSoC4/CapSense_CSHL.c ****     *
2102:.\Generated_Source\PSoC4/CapSense_CSHL.c ****     * Summary:
2103:.\Generated_Source\PSoC4/CapSense_CSHL.c ****     *  If a finger is present on a touchpad, this function calculates the X and Y
2104:.\Generated_Source\PSoC4/CapSense_CSHL.c ****     *  position of the finger by calculating the centroids within touchpad specified
2105:.\Generated_Source\PSoC4/CapSense_CSHL.c ****     *  range. The X and Y positions are calculated according to the API resolutions set in the
2106:.\Generated_Source\PSoC4/CapSense_CSHL.c ****     *  CapSense customizer. Returns 1 if a finger is on the touchpad.
2107:.\Generated_Source\PSoC4/CapSense_CSHL.c ****     *  The position filter is applied to the result if enabled.
2108:.\Generated_Source\PSoC4/CapSense_CSHL.c ****     *  This function is available only if a touch pad is defined by the CapSense
ARM GAS  C:\Users\merlin\AppData\Local\Temp\cchlGLBb.s 			page 59


2109:.\Generated_Source\PSoC4/CapSense_CSHL.c ****     *  customizer.
2110:.\Generated_Source\PSoC4/CapSense_CSHL.c ****     *
2111:.\Generated_Source\PSoC4/CapSense_CSHL.c ****     * Parameters:
2112:.\Generated_Source\PSoC4/CapSense_CSHL.c ****     *  widget:  Widget number. 
2113:.\Generated_Source\PSoC4/CapSense_CSHL.c ****     *  For every touchpad widget there are defines in this format:
2114:.\Generated_Source\PSoC4/CapSense_CSHL.c ****     *  #define CapSense_"widget_name"__TP            5
2115:.\Generated_Source\PSoC4/CapSense_CSHL.c ****     *
2116:.\Generated_Source\PSoC4/CapSense_CSHL.c ****     *  pos:     Pointer to the array of two uint16 elements, where result
2117:.\Generated_Source\PSoC4/CapSense_CSHL.c ****     *  result of calculation of X and Y position are stored.
2118:.\Generated_Source\PSoC4/CapSense_CSHL.c ****     *  pos[0u]  - position of X
2119:.\Generated_Source\PSoC4/CapSense_CSHL.c ****     *  pos[1u]  - position of Y
2120:.\Generated_Source\PSoC4/CapSense_CSHL.c ****     *
2121:.\Generated_Source\PSoC4/CapSense_CSHL.c ****     * Return:
2122:.\Generated_Source\PSoC4/CapSense_CSHL.c ****     *  Returns a 1 if a finger is on the touch pad, 0 - if not.
2123:.\Generated_Source\PSoC4/CapSense_CSHL.c **** 	*
2124:.\Generated_Source\PSoC4/CapSense_CSHL.c **** 	* Global Variables:
2125:.\Generated_Source\PSoC4/CapSense_CSHL.c **** 	*  None.
2126:.\Generated_Source\PSoC4/CapSense_CSHL.c **** 	*
2127:.\Generated_Source\PSoC4/CapSense_CSHL.c ****     * Side Effects:
2128:.\Generated_Source\PSoC4/CapSense_CSHL.c ****     *   There are no checks of the widget type argument provided to this function.
2129:.\Generated_Source\PSoC4/CapSense_CSHL.c ****     *   The unproper widget type provided will cause unexpected position
2130:.\Generated_Source\PSoC4/CapSense_CSHL.c ****     *   calculations.
2131:.\Generated_Source\PSoC4/CapSense_CSHL.c ****     *
2132:.\Generated_Source\PSoC4/CapSense_CSHL.c ****     *******************************************************************************/
2133:.\Generated_Source\PSoC4/CapSense_CSHL.c ****     uint32 CapSense_GetTouchCentroidPos(uint32 widget, uint16* pos)
2134:.\Generated_Source\PSoC4/CapSense_CSHL.c ****     {
2135:.\Generated_Source\PSoC4/CapSense_CSHL.c ****         #if (0u != CapSense_TOUCH_PADS_POS_FILTERS_MASK)
2136:.\Generated_Source\PSoC4/CapSense_CSHL.c ****             uint8 posXIndex;
2137:.\Generated_Source\PSoC4/CapSense_CSHL.c ****             uint8 posYIndex;
2138:.\Generated_Source\PSoC4/CapSense_CSHL.c ****             uint8 firstTimeIndex = CapSense_posFiltersData[widget];
2139:.\Generated_Source\PSoC4/CapSense_CSHL.c ****             uint8 posFiltersMask = CapSense_posFiltersMask[widget];
2140:.\Generated_Source\PSoC4/CapSense_CSHL.c ****         #endif /* (0u != CapSense_TOUCH_PADS_POS_FILTERS_MASK) */
2141:.\Generated_Source\PSoC4/CapSense_CSHL.c **** 
2142:.\Generated_Source\PSoC4/CapSense_CSHL.c ****         #if ((0u != (CapSense_MEDIAN_FILTER & CapSense_TOUCH_PADS_POS_FILTERS_MASK)) || \
2143:.\Generated_Source\PSoC4/CapSense_CSHL.c ****              (0u != (CapSense_AVERAGING_FILTER & CapSense_TOUCH_PADS_POS_FILTERS_MASK)))
2144:.\Generated_Source\PSoC4/CapSense_CSHL.c ****             uint16 tempPos;
2145:.\Generated_Source\PSoC4/CapSense_CSHL.c ****         #endif /* ((0u != (CapSense_MEDIAN_FILTER & CapSense_TOUCH_PADS_POS_FILTERS_MASK)) || \
2146:.\Generated_Source\PSoC4/CapSense_CSHL.c ****                *   (0u != (CapSense_AVERAGING_FILTER & CapSense_TOUCH_PADS_POS_FILTERS_MASK)))
2147:.\Generated_Source\PSoC4/CapSense_CSHL.c ****                */
2148:.\Generated_Source\PSoC4/CapSense_CSHL.c **** 
2149:.\Generated_Source\PSoC4/CapSense_CSHL.c ****         uint8 MaxX;
2150:.\Generated_Source\PSoC4/CapSense_CSHL.c ****         uint8 MaxY;
2151:.\Generated_Source\PSoC4/CapSense_CSHL.c ****         uint8 posX;
2152:.\Generated_Source\PSoC4/CapSense_CSHL.c ****         uint8 posY;
2153:.\Generated_Source\PSoC4/CapSense_CSHL.c ****         uint32 touch = 0u;
2154:.\Generated_Source\PSoC4/CapSense_CSHL.c ****         uint8 offset = CapSense_rawDataIndex[widget];
2155:.\Generated_Source\PSoC4/CapSense_CSHL.c ****         uint8 count = CapSense_numberOfSensors[widget];
2156:.\Generated_Source\PSoC4/CapSense_CSHL.c ****         
2157:.\Generated_Source\PSoC4/CapSense_CSHL.c ****         /* Find Maximum within X centroid */
2158:.\Generated_Source\PSoC4/CapSense_CSHL.c ****         #if (CapSense_IS_DIPLEX_SLIDER)
2159:.\Generated_Source\PSoC4/CapSense_CSHL.c ****             MaxX = CapSense_FindMaximum(offset, count, CapSense_fingerThreshold[widget], 0u);
2160:.\Generated_Source\PSoC4/CapSense_CSHL.c ****         #else
2161:.\Generated_Source\PSoC4/CapSense_CSHL.c ****             MaxX = CapSense_FindMaximum(offset, count, CapSense_fingerThreshold[widget]);
2162:.\Generated_Source\PSoC4/CapSense_CSHL.c ****         #endif /* (CapSense_IS_DIPLEX_SLIDER) */
2163:.\Generated_Source\PSoC4/CapSense_CSHL.c **** 
2164:.\Generated_Source\PSoC4/CapSense_CSHL.c ****         if (MaxX != CapSense_MAXIMUM_CENTROID)
2165:.\Generated_Source\PSoC4/CapSense_CSHL.c ****         {
ARM GAS  C:\Users\merlin\AppData\Local\Temp\cchlGLBb.s 			page 60


2166:.\Generated_Source\PSoC4/CapSense_CSHL.c ****             offset = CapSense_rawDataIndex[widget + 1u];
2167:.\Generated_Source\PSoC4/CapSense_CSHL.c ****             count = CapSense_numberOfSensors[widget + 1u];
2168:.\Generated_Source\PSoC4/CapSense_CSHL.c **** 
2169:.\Generated_Source\PSoC4/CapSense_CSHL.c ****             /* Find Maximum within Y centroid */
2170:.\Generated_Source\PSoC4/CapSense_CSHL.c ****             #if (CapSense_IS_DIPLEX_SLIDER)
2171:.\Generated_Source\PSoC4/CapSense_CSHL.c ****                 MaxY = CapSense_FindMaximum(offset, count, CapSense_fingerThreshold[widget + 1u], 0
2172:.\Generated_Source\PSoC4/CapSense_CSHL.c ****             #else
2173:.\Generated_Source\PSoC4/CapSense_CSHL.c ****                 MaxY = CapSense_FindMaximum(offset, count, CapSense_fingerThreshold[widget + 1u]);
2174:.\Generated_Source\PSoC4/CapSense_CSHL.c ****             #endif /* (CapSense_IS_DIPLEX_SLIDER) */
2175:.\Generated_Source\PSoC4/CapSense_CSHL.c **** 
2176:.\Generated_Source\PSoC4/CapSense_CSHL.c ****             if (MaxY != CapSense_MAXIMUM_CENTROID)
2177:.\Generated_Source\PSoC4/CapSense_CSHL.c ****             {
2178:.\Generated_Source\PSoC4/CapSense_CSHL.c ****                 /* X and Y maximums are found = true touch */
2179:.\Generated_Source\PSoC4/CapSense_CSHL.c ****                 touch = 1u;
2180:.\Generated_Source\PSoC4/CapSense_CSHL.c ****                 
2181:.\Generated_Source\PSoC4/CapSense_CSHL.c ****                 /* Calculate Y centroid */
2182:.\Generated_Source\PSoC4/CapSense_CSHL.c ****                 posY = CapSense_CalcCentroid(MaxY, offset, count, 
2183:.\Generated_Source\PSoC4/CapSense_CSHL.c ****                             CapSense_centroidMult[widget + 1u], CapSense_noiseThreshold[widget + 1u
2184:.\Generated_Source\PSoC4/CapSense_CSHL.c ****                 
2185:.\Generated_Source\PSoC4/CapSense_CSHL.c ****                 /* Calculate X centroid */
2186:.\Generated_Source\PSoC4/CapSense_CSHL.c ****                 offset = CapSense_rawDataIndex[widget];
2187:.\Generated_Source\PSoC4/CapSense_CSHL.c ****                 count = CapSense_numberOfSensors[widget];
2188:.\Generated_Source\PSoC4/CapSense_CSHL.c ****                 
2189:.\Generated_Source\PSoC4/CapSense_CSHL.c ****                 posX = CapSense_CalcCentroid(MaxX, offset, count, 
2190:.\Generated_Source\PSoC4/CapSense_CSHL.c ****                             CapSense_centroidMult[widget],CapSense_noiseThreshold[widget]);
2191:.\Generated_Source\PSoC4/CapSense_CSHL.c ****     
2192:.\Generated_Source\PSoC4/CapSense_CSHL.c ****                 #if (0u != CapSense_TOUCH_PADS_POS_FILTERS_MASK)
2193:.\Generated_Source\PSoC4/CapSense_CSHL.c ****                     /* Check if this TP has enabled filters */
2194:.\Generated_Source\PSoC4/CapSense_CSHL.c ****                     if (0u != (posFiltersMask & CapSense_ANY_POS_FILTER))
2195:.\Generated_Source\PSoC4/CapSense_CSHL.c ****                     {
2196:.\Generated_Source\PSoC4/CapSense_CSHL.c ****                         /* Calculate position to store filters data */
2197:.\Generated_Source\PSoC4/CapSense_CSHL.c ****                         posXIndex  = firstTimeIndex + 1u;
2198:.\Generated_Source\PSoC4/CapSense_CSHL.c ****                         posYIndex  = CapSense_posFiltersData[widget + 1u];
2199:.\Generated_Source\PSoC4/CapSense_CSHL.c ****                         
2200:.\Generated_Source\PSoC4/CapSense_CSHL.c ****                         if (0u == CapSense_posFiltersData[firstTimeIndex])
2201:.\Generated_Source\PSoC4/CapSense_CSHL.c ****                         {
2202:.\Generated_Source\PSoC4/CapSense_CSHL.c ****                             /* Init filters */
2203:.\Generated_Source\PSoC4/CapSense_CSHL.c ****                             CapSense_posFiltersData[posXIndex] = posX;
2204:.\Generated_Source\PSoC4/CapSense_CSHL.c ****                             CapSense_posFiltersData[posYIndex] = posY;
2205:.\Generated_Source\PSoC4/CapSense_CSHL.c **** 
2206:.\Generated_Source\PSoC4/CapSense_CSHL.c ****                             #if((0u != (CapSense_MEDIAN_FILTER & \
2207:.\Generated_Source\PSoC4/CapSense_CSHL.c ****                                         CapSense_TOUCH_PADS_POS_FILTERS_MASK))|| \
2208:.\Generated_Source\PSoC4/CapSense_CSHL.c ****                                 (0u != (CapSense_AVERAGING_FILTER & \
2209:.\Generated_Source\PSoC4/CapSense_CSHL.c ****                                         CapSense_TOUCH_PADS_POS_FILTERS_MASK)))
2210:.\Generated_Source\PSoC4/CapSense_CSHL.c **** 
2211:.\Generated_Source\PSoC4/CapSense_CSHL.c ****                                 if ( (0u != (posFiltersMask & CapSense_MEDIAN_FILTER)) || 
2212:.\Generated_Source\PSoC4/CapSense_CSHL.c ****                                      (0u != (posFiltersMask & CapSense_AVERAGING_FILTER)) )
2213:.\Generated_Source\PSoC4/CapSense_CSHL.c ****                                 {
2214:.\Generated_Source\PSoC4/CapSense_CSHL.c ****                                     CapSense_posFiltersData[posXIndex + 1u] = posX;
2215:.\Generated_Source\PSoC4/CapSense_CSHL.c ****                                     CapSense_posFiltersData[posYIndex + 1u] = posY;
2216:.\Generated_Source\PSoC4/CapSense_CSHL.c ****                                 }
2217:.\Generated_Source\PSoC4/CapSense_CSHL.c ****                             #endif /* ((0u != (CapSense_MEDIAN_FILTER & \
2218:.\Generated_Source\PSoC4/CapSense_CSHL.c ****                                    *           CapSense_TOUCH_PADS_POS_FILTERS_MASK)) || \
2219:.\Generated_Source\PSoC4/CapSense_CSHL.c ****                                    *    (0u != (CapSense_AVERAGING_FILTER & \
