ARM GAS  C:\Users\merlin\AppData\Local\Temp\ccZOZwzR.s 			page 1


   1              		.cpu cortex-m0
   2              		.fpu softvfp
   3              		.eabi_attribute 20, 1
   4              		.eabi_attribute 21, 1
   5              		.eabi_attribute 23, 3
   6              		.eabi_attribute 24, 1
   7              		.eabi_attribute 25, 1
   8              		.eabi_attribute 26, 1
   9              		.eabi_attribute 30, 1
  10              		.eabi_attribute 34, 0
  11              		.eabi_attribute 18, 4
  12              		.code	16
  13              		.file	"CapSense.c"
  14              		.text
  15              	.Ltext0:
  16              		.cfi_sections	.debug_frame
  17              		.section	.text.CapSense_CsdHwBlockInit,"ax",%progbits
  18              		.align	2
  19              		.global	CapSense_CsdHwBlockInit
  20              		.code	16
  21              		.thumb_func
  22              		.type	CapSense_CsdHwBlockInit, %function
  23              	CapSense_CsdHwBlockInit:
  24              	.LFB35:
  25              		.file 1 ".\\Generated_Source\\PSoC4\\CapSense.c"
   1:.\Generated_Source\PSoC4/CapSense.c **** /*******************************************************************************
   2:.\Generated_Source\PSoC4/CapSense.c **** * File Name: CapSense.c
   3:.\Generated_Source\PSoC4/CapSense.c **** * Version 2.10
   4:.\Generated_Source\PSoC4/CapSense.c **** *
   5:.\Generated_Source\PSoC4/CapSense.c **** * Description:
   6:.\Generated_Source\PSoC4/CapSense.c **** *  This file provides the source code for scanning APIs for the CapSense CSD 
   7:.\Generated_Source\PSoC4/CapSense.c **** *  component.
   8:.\Generated_Source\PSoC4/CapSense.c **** *
   9:.\Generated_Source\PSoC4/CapSense.c **** * Note:
  10:.\Generated_Source\PSoC4/CapSense.c **** *
  11:.\Generated_Source\PSoC4/CapSense.c **** ********************************************************************************
  12:.\Generated_Source\PSoC4/CapSense.c **** * Copyright 2014, Cypress Semiconductor Corporation.  All rights reserved.
  13:.\Generated_Source\PSoC4/CapSense.c **** * You may use this file only in accordance with the license, terms, conditions,
  14:.\Generated_Source\PSoC4/CapSense.c **** * disclaimers, and limitations in the end user license agreement accompanying
  15:.\Generated_Source\PSoC4/CapSense.c **** * the software package with which this file was provided.
  16:.\Generated_Source\PSoC4/CapSense.c **** *******************************************************************************/
  17:.\Generated_Source\PSoC4/CapSense.c **** 
  18:.\Generated_Source\PSoC4/CapSense.c **** #include "CapSense.h"
  19:.\Generated_Source\PSoC4/CapSense.c **** #include "CapSense_PVT.h"
  20:.\Generated_Source\PSoC4/CapSense.c **** #include "cypins.h"
  21:.\Generated_Source\PSoC4/CapSense.c **** 
  22:.\Generated_Source\PSoC4/CapSense.c **** #if(0u != CapSense_CSHL_API_GENERATE)
  23:.\Generated_Source\PSoC4/CapSense.c **** 	#include "CapSense_CSHL.h"
  24:.\Generated_Source\PSoC4/CapSense.c **** #endif /* (0u != CapSense_CSHL_API_GENERATE) */
  25:.\Generated_Source\PSoC4/CapSense.c **** 
  26:.\Generated_Source\PSoC4/CapSense.c **** /* This definition is intended to prevent unexpected linker error. 
  27:.\Generated_Source\PSoC4/CapSense.c ****    For more details please see the IAR Technical Note 49981 */
  28:.\Generated_Source\PSoC4/CapSense.c **** #if defined(__ICCARM__)
  29:.\Generated_Source\PSoC4/CapSense.c **** 	extern void CapSense_EnableSensor(uint32 sensor);
  30:.\Generated_Source\PSoC4/CapSense.c **** 	extern void CapSense_DisableSensor(uint32 sensor);
  31:.\Generated_Source\PSoC4/CapSense.c **** #endif /* (__ICCARM__) */	
  32:.\Generated_Source\PSoC4/CapSense.c **** 
ARM GAS  C:\Users\merlin\AppData\Local\Temp\ccZOZwzR.s 			page 2


  33:.\Generated_Source\PSoC4/CapSense.c **** /* SmartSense functions */
  34:.\Generated_Source\PSoC4/CapSense.c **** #if (CapSense_TUNING_METHOD == CapSense__TUNING_AUTO)
  35:.\Generated_Source\PSoC4/CapSense.c ****     uint8 CapSense_lowLevelTuningDone = 0u;
  36:.\Generated_Source\PSoC4/CapSense.c **** 	uint8 scanSpeedTbl[((CapSense_TOTAL_SENSOR_COUNT - 1u) / 8u) + 1u];
  37:.\Generated_Source\PSoC4/CapSense.c **** #endif /* (CapSense_TUNING_METHOD == CapSense__TUNING_AUTO) */
  38:.\Generated_Source\PSoC4/CapSense.c **** 
  39:.\Generated_Source\PSoC4/CapSense.c **** #if(CapSense_PRS_OPTIONS != CapSense__PRS_NONE)
  40:.\Generated_Source\PSoC4/CapSense.c **** 	uint8 CapSense_prescalersTuningDone = 0u;
  41:.\Generated_Source\PSoC4/CapSense.c **** #endif /* (CapSense_PRS_OPTIONS == CapSense__PRS_NONE) */
  42:.\Generated_Source\PSoC4/CapSense.c ****             
  43:.\Generated_Source\PSoC4/CapSense.c **** /* Global software variables */
  44:.\Generated_Source\PSoC4/CapSense.c **** volatile uint8 CapSense_csdStatusVar = 0u;   /* CapSense CSD status, variable */
  45:.\Generated_Source\PSoC4/CapSense.c **** volatile uint8 CapSense_sensorIndex = 0u;    /* Index of scannig sensor */
  46:.\Generated_Source\PSoC4/CapSense.c **** 
  47:.\Generated_Source\PSoC4/CapSense.c **** /* Global array of Raw Counts */
  48:.\Generated_Source\PSoC4/CapSense.c **** uint16 CapSense_sensorRaw[CapSense_TOTAL_SENSOR_COUNT] = {0u};
  49:.\Generated_Source\PSoC4/CapSense.c **** 
  50:.\Generated_Source\PSoC4/CapSense.c **** /* Backup variables for trim registers*/
  51:.\Generated_Source\PSoC4/CapSense.c **** #if (CapSense_IDAC1_POLARITY == CapSense__IDAC_SINK)
  52:.\Generated_Source\PSoC4/CapSense.c **** 	uint8 CapSense_csdTrim2;   
  53:.\Generated_Source\PSoC4/CapSense.c **** #else
  54:.\Generated_Source\PSoC4/CapSense.c ****     uint8 CapSense_csdTrim1;	
  55:.\Generated_Source\PSoC4/CapSense.c **** #endif /* (CapSense_IDAC1_POLARITY == CapSense__IDAC_SINK) */
  56:.\Generated_Source\PSoC4/CapSense.c **** 
  57:.\Generated_Source\PSoC4/CapSense.c **** /* Global array of un-scanned sensors state */
  58:.\Generated_Source\PSoC4/CapSense.c **** uint8 CapSense_unscannedSnsDriveMode[CapSense_TOTAL_SENSOR_COUNT];
  59:.\Generated_Source\PSoC4/CapSense.c **** 
  60:.\Generated_Source\PSoC4/CapSense.c **** /* Backup array for CapSense_sensorEnableMask */
  61:.\Generated_Source\PSoC4/CapSense.c **** uint8 CapSense_sensorEnableMaskBackup[(((CapSense_TOTAL_SENSOR_COUNT - 1u) / 8u) + 1u)];
  62:.\Generated_Source\PSoC4/CapSense.c **** 
  63:.\Generated_Source\PSoC4/CapSense.c **** /* Configured constants and arrays by Customizer */
  64:.\Generated_Source\PSoC4/CapSense.c **** uint8 CapSense_sensorEnableMask[(((CapSense_TOTAL_SENSOR_COUNT - 1u) / 8u) + 1u)] = {
  65:.\Generated_Source\PSoC4/CapSense.c **** 0x0u, };
  66:.\Generated_Source\PSoC4/CapSense.c **** 
  67:.\Generated_Source\PSoC4/CapSense.c **** reg32 * CapSense_pcTable[] = {
  68:.\Generated_Source\PSoC4/CapSense.c ****     (reg32 *)CapSense_Sns__ProximitySensor_0__PROX__PC, 
  69:.\Generated_Source\PSoC4/CapSense.c **** };
  70:.\Generated_Source\PSoC4/CapSense.c **** 
  71:.\Generated_Source\PSoC4/CapSense.c **** const uint8 CapSense_portTable[] = {
  72:.\Generated_Source\PSoC4/CapSense.c ****     CapSense_Sns__ProximitySensor_0__PROX__PORT, 
  73:.\Generated_Source\PSoC4/CapSense.c **** };
  74:.\Generated_Source\PSoC4/CapSense.c **** 
  75:.\Generated_Source\PSoC4/CapSense.c **** const uint32 CapSense_maskTable[] = {
  76:.\Generated_Source\PSoC4/CapSense.c ****     CapSense_Sns__ProximitySensor_0__PROX__MASK, 
  77:.\Generated_Source\PSoC4/CapSense.c **** };
  78:.\Generated_Source\PSoC4/CapSense.c **** 
  79:.\Generated_Source\PSoC4/CapSense.c **** const uint8 CapSense_pinShiftTbl[] = {
  80:.\Generated_Source\PSoC4/CapSense.c ****     (uint8) CapSense_Sns__ProximitySensor_0__PROX__SHIFT, 
  81:.\Generated_Source\PSoC4/CapSense.c **** };
  82:.\Generated_Source\PSoC4/CapSense.c **** 
  83:.\Generated_Source\PSoC4/CapSense.c **** uint8 CapSense_modulationIDAC[CapSense_TOTAL_SENSOR_COUNT] = {
  84:.\Generated_Source\PSoC4/CapSense.c ****     80u, 
  85:.\Generated_Source\PSoC4/CapSense.c **** };
  86:.\Generated_Source\PSoC4/CapSense.c **** uint8 CapSense_compensationIDAC[CapSense_TOTAL_SENSOR_COUNT] = {
  87:.\Generated_Source\PSoC4/CapSense.c ****     30u, 
  88:.\Generated_Source\PSoC4/CapSense.c **** };
  89:.\Generated_Source\PSoC4/CapSense.c **** 
ARM GAS  C:\Users\merlin\AppData\Local\Temp\ccZOZwzR.s 			page 3


  90:.\Generated_Source\PSoC4/CapSense.c **** uint32 CapSense_widgetResolution[CapSense_RESOLUTIONS_TBL_SIZE] = {
  91:.\Generated_Source\PSoC4/CapSense.c ****     CapSense_RESOLUTION_16_BITS,
  92:.\Generated_Source\PSoC4/CapSense.c **** };
  93:.\Generated_Source\PSoC4/CapSense.c **** 
  94:.\Generated_Source\PSoC4/CapSense.c **** uint8 CapSense_senseClkDividerVal[CapSense_TOTAL_SCANSLOT_COUNT] = {
  95:.\Generated_Source\PSoC4/CapSense.c ****     4u, 
  96:.\Generated_Source\PSoC4/CapSense.c **** };
  97:.\Generated_Source\PSoC4/CapSense.c **** uint8 CapSense_sampleClkDividerVal[CapSense_TOTAL_SCANSLOT_COUNT] = {
  98:.\Generated_Source\PSoC4/CapSense.c ****     4u, 
  99:.\Generated_Source\PSoC4/CapSense.c **** };
 100:.\Generated_Source\PSoC4/CapSense.c **** 
 101:.\Generated_Source\PSoC4/CapSense.c **** 
 102:.\Generated_Source\PSoC4/CapSense.c **** const uint8 CapSense_widgetNumber[CapSense_TOTAL_SENSOR_COUNT] = {
 103:.\Generated_Source\PSoC4/CapSense.c ****     0u, /* ProximitySensor__PROX */
 104:.\Generated_Source\PSoC4/CapSense.c **** };
 105:.\Generated_Source\PSoC4/CapSense.c **** 
 106:.\Generated_Source\PSoC4/CapSense.c **** 
 107:.\Generated_Source\PSoC4/CapSense.c **** 
 108:.\Generated_Source\PSoC4/CapSense.c **** reg32* const CapSense_prtSelTbl[] = {
 109:.\Generated_Source\PSoC4/CapSense.c **** /* CY_PSOC4_4000 is default*/
 110:.\Generated_Source\PSoC4/CapSense.c **** 	((reg32 *) CYREG_HSIOM_PORT_SEL0),
 111:.\Generated_Source\PSoC4/CapSense.c **** 	((reg32 *) CYREG_HSIOM_PORT_SEL1),
 112:.\Generated_Source\PSoC4/CapSense.c **** 	((reg32 *) CYREG_HSIOM_PORT_SEL2),
 113:.\Generated_Source\PSoC4/CapSense.c **** 	((reg32 *) CYREG_HSIOM_PORT_SEL3),
 114:.\Generated_Source\PSoC4/CapSense.c **** #if (CapSense_CFG_REG_TBL_SIZE == 5u)
 115:.\Generated_Source\PSoC4/CapSense.c **** 	((reg32 *) CYREG_HSIOM_PORT_SEL4)
 116:.\Generated_Source\PSoC4/CapSense.c **** #elif(CapSense_CFG_REG_TBL_SIZE == 6u)
 117:.\Generated_Source\PSoC4/CapSense.c **** 	((reg32 *) CYREG_HSIOM_PORT_SEL4),
 118:.\Generated_Source\PSoC4/CapSense.c **** 	((reg32 *) CYREG_HSIOM_PORT_SEL5)
 119:.\Generated_Source\PSoC4/CapSense.c **** #elif(CapSense_CFG_REG_TBL_SIZE == 8u)
 120:.\Generated_Source\PSoC4/CapSense.c **** 	((reg32 *) CYREG_HSIOM_PORT_SEL4),
 121:.\Generated_Source\PSoC4/CapSense.c **** 	((reg32 *) CYREG_HSIOM_PORT_SEL5),
 122:.\Generated_Source\PSoC4/CapSense.c **** 	((reg32 *) CYREG_HSIOM_PORT_SEL6),
 123:.\Generated_Source\PSoC4/CapSense.c **** 	((reg32 *) CYREG_HSIOM_PORT_SEL7)
 124:.\Generated_Source\PSoC4/CapSense.c **** #endif /* (CY_PSOC4_4200) */
 125:.\Generated_Source\PSoC4/CapSense.c **** };
 126:.\Generated_Source\PSoC4/CapSense.c **** 
 127:.\Generated_Source\PSoC4/CapSense.c **** reg32* const CapSense_prtCfgTbl[] = {
 128:.\Generated_Source\PSoC4/CapSense.c **** /* CY_PSOC4_4000 is default*/
 129:.\Generated_Source\PSoC4/CapSense.c **** 	((reg32 *) CYREG_GPIO_PRT0_PC),
 130:.\Generated_Source\PSoC4/CapSense.c **** 	((reg32 *) CYREG_GPIO_PRT1_PC),
 131:.\Generated_Source\PSoC4/CapSense.c **** 	((reg32 *) CYREG_GPIO_PRT2_PC),
 132:.\Generated_Source\PSoC4/CapSense.c **** 	((reg32 *) CYREG_GPIO_PRT3_PC),
 133:.\Generated_Source\PSoC4/CapSense.c **** #if (CapSense_CFG_REG_TBL_SIZE == 5u)
 134:.\Generated_Source\PSoC4/CapSense.c **** 	((reg32 *) CYREG_GPIO_PRT4_PC)
 135:.\Generated_Source\PSoC4/CapSense.c **** #elif(CapSense_CFG_REG_TBL_SIZE == 6u)
 136:.\Generated_Source\PSoC4/CapSense.c **** 	((reg32 *) CYREG_GPIO_PRT4_PC),
 137:.\Generated_Source\PSoC4/CapSense.c **** 	((reg32 *) CYREG_GPIO_PRT5_PC)
 138:.\Generated_Source\PSoC4/CapSense.c **** #elif(CapSense_CFG_REG_TBL_SIZE == 8u)
 139:.\Generated_Source\PSoC4/CapSense.c **** 	((reg32 *) CYREG_GPIO_PRT4_PC),
 140:.\Generated_Source\PSoC4/CapSense.c **** 	((reg32 *) CYREG_GPIO_PRT5_PC),
 141:.\Generated_Source\PSoC4/CapSense.c **** 	((reg32 *) CYREG_GPIO_PRT6_PC),
 142:.\Generated_Source\PSoC4/CapSense.c **** 	((reg32 *) CYREG_GPIO_PRT7_PC)
 143:.\Generated_Source\PSoC4/CapSense.c **** #endif /* (CY_PSOC4_4200) */	
 144:.\Generated_Source\PSoC4/CapSense.c **** };
 145:.\Generated_Source\PSoC4/CapSense.c **** 
 146:.\Generated_Source\PSoC4/CapSense.c **** reg32* const CapSense_prtDRTbl[] = {
ARM GAS  C:\Users\merlin\AppData\Local\Temp\ccZOZwzR.s 			page 4


 147:.\Generated_Source\PSoC4/CapSense.c **** /* CY_PSOC4_4000 is default*/
 148:.\Generated_Source\PSoC4/CapSense.c **** 	((reg32 *) CYREG_GPIO_PRT0_DR),
 149:.\Generated_Source\PSoC4/CapSense.c **** 	((reg32 *) CYREG_GPIO_PRT1_DR),
 150:.\Generated_Source\PSoC4/CapSense.c **** 	((reg32 *) CYREG_GPIO_PRT2_DR),
 151:.\Generated_Source\PSoC4/CapSense.c **** 	((reg32 *) CYREG_GPIO_PRT3_DR),
 152:.\Generated_Source\PSoC4/CapSense.c **** #if (CapSense_CFG_REG_TBL_SIZE == 5u)
 153:.\Generated_Source\PSoC4/CapSense.c **** 	((reg32 *) CYREG_GPIO_PRT4_DR)
 154:.\Generated_Source\PSoC4/CapSense.c **** #elif(CapSense_CFG_REG_TBL_SIZE == 6u)
 155:.\Generated_Source\PSoC4/CapSense.c **** 	((reg32 *) CYREG_GPIO_PRT4_DR),
 156:.\Generated_Source\PSoC4/CapSense.c **** 	((reg32 *) CYREG_GPIO_PRT5_DR),
 157:.\Generated_Source\PSoC4/CapSense.c **** #elif(CapSense_CFG_REG_TBL_SIZE == 8u)
 158:.\Generated_Source\PSoC4/CapSense.c **** 	((reg32 *) CYREG_GPIO_PRT4_DR),
 159:.\Generated_Source\PSoC4/CapSense.c **** 	((reg32 *) CYREG_GPIO_PRT5_DR),
 160:.\Generated_Source\PSoC4/CapSense.c **** 	((reg32 *) CYREG_GPIO_PRT6_DR),
 161:.\Generated_Source\PSoC4/CapSense.c **** 	((reg32 *) CYREG_GPIO_PRT7_DR),
 162:.\Generated_Source\PSoC4/CapSense.c **** #endif /* (CY_PSOC4_4200) */	
 163:.\Generated_Source\PSoC4/CapSense.c **** };
 164:.\Generated_Source\PSoC4/CapSense.c ****     
 165:.\Generated_Source\PSoC4/CapSense.c **** 
 166:.\Generated_Source\PSoC4/CapSense.c **** /*******************************************************************************
 167:.\Generated_Source\PSoC4/CapSense.c **** * Function Name: CapSense_Init
 168:.\Generated_Source\PSoC4/CapSense.c **** ********************************************************************************
 169:.\Generated_Source\PSoC4/CapSense.c **** *
 170:.\Generated_Source\PSoC4/CapSense.c **** * Summary:
 171:.\Generated_Source\PSoC4/CapSense.c **** *  API initializes default CapSense configuration provided by the customizer that defines 
 172:.\Generated_Source\PSoC4/CapSense.c **** *  the mode of component operations and resets all the sensors to an inactive state.
 173:.\Generated_Source\PSoC4/CapSense.c **** *
 174:.\Generated_Source\PSoC4/CapSense.c **** * Parameters:
 175:.\Generated_Source\PSoC4/CapSense.c **** *  None
 176:.\Generated_Source\PSoC4/CapSense.c **** *
 177:.\Generated_Source\PSoC4/CapSense.c **** * Return:
 178:.\Generated_Source\PSoC4/CapSense.c **** *  None
 179:.\Generated_Source\PSoC4/CapSense.c **** *
 180:.\Generated_Source\PSoC4/CapSense.c **** * Global Variables:
 181:.\Generated_Source\PSoC4/CapSense.c **** *  CapSense_immunityIndex - defines immunity level.
 182:.\Generated_Source\PSoC4/CapSense.c **** *
 183:.\Generated_Source\PSoC4/CapSense.c **** * Side Effects:
 184:.\Generated_Source\PSoC4/CapSense.c **** *  None
 185:.\Generated_Source\PSoC4/CapSense.c **** * 
 186:.\Generated_Source\PSoC4/CapSense.c **** *******************************************************************************/
 187:.\Generated_Source\PSoC4/CapSense.c **** void CapSense_Init(void)
 188:.\Generated_Source\PSoC4/CapSense.c **** {   
 189:.\Generated_Source\PSoC4/CapSense.c **** 	uint32 curSensor;
 190:.\Generated_Source\PSoC4/CapSense.c **** 	
 191:.\Generated_Source\PSoC4/CapSense.c **** 	#if(CapSense_IS_SHIELD_ENABLE)
 192:.\Generated_Source\PSoC4/CapSense.c **** 		
 193:.\Generated_Source\PSoC4/CapSense.c **** 		#if((CapSense_CSH_TANK_PREGARGE_OPTION == CapSense__CAPPRIOBUF) || (0u != CapSense_CSH_TANK_ENABL
 194:.\Generated_Source\PSoC4/CapSense.c **** 			uint32 newRegValue;
 195:.\Generated_Source\PSoC4/CapSense.c **** 			
 196:.\Generated_Source\PSoC4/CapSense.c **** 			newRegValue = CapSense_CTANK_CONNECTION_REG;
 197:.\Generated_Source\PSoC4/CapSense.c **** 	        newRegValue &= ~(CapSense_CSD_CTANK_CONNECTION_MASK);
 198:.\Generated_Source\PSoC4/CapSense.c **** 			newRegValue |= CapSense_CSD_CTANK_TO_AMUXBUS_B;
 199:.\Generated_Source\PSoC4/CapSense.c **** 	        CapSense_CTANK_CONNECTION_REG = newRegValue;
 200:.\Generated_Source\PSoC4/CapSense.c **** 			
 201:.\Generated_Source\PSoC4/CapSense.c **** 			#if(CapSense_CSH_TANK_PREGARGE_OPTION == CapSense__CAPPRIOBUF)
 202:.\Generated_Source\PSoC4/CapSense.c **** 				newRegValue = CapSense_CTANK_PORT_PC_REG;
 203:.\Generated_Source\PSoC4/CapSense.c **** 		        newRegValue &= ~(CapSense_CSD_CTANK_PC_MASK);
ARM GAS  C:\Users\merlin\AppData\Local\Temp\ccZOZwzR.s 			page 5


 204:.\Generated_Source\PSoC4/CapSense.c **** 				newRegValue |= CapSense_CTANK_PC_STRONG_MODE;
 205:.\Generated_Source\PSoC4/CapSense.c **** 		        CapSense_CTANK_PORT_PC_REG = newRegValue;
 206:.\Generated_Source\PSoC4/CapSense.c **** 				
 207:.\Generated_Source\PSoC4/CapSense.c **** 				newRegValue = CapSense_CTANK_PORT_DR_REG;
 208:.\Generated_Source\PSoC4/CapSense.c **** 		        newRegValue &= ~(CapSense_CTANK_DR_MASK);
 209:.\Generated_Source\PSoC4/CapSense.c **** 				newRegValue |= CapSense_CTANK_DR_CONFIG;
 210:.\Generated_Source\PSoC4/CapSense.c **** 		        CapSense_CTANK_PORT_DR_REG = newRegValue;
 211:.\Generated_Source\PSoC4/CapSense.c **** 			#endif /* (CapSense_CSH_TANK_PREGARGE_OPTION == CapSense__CAPPRIOBUF) */
 212:.\Generated_Source\PSoC4/CapSense.c **** 	        
 213:.\Generated_Source\PSoC4/CapSense.c **** 		#endif /* ((CapSense_CSH_TANK_PREGARGE_OPTION == CapSense__CAPPRIOBUF) || (CapSense_CSH_TANK_ENAB
 214:.\Generated_Source\PSoC4/CapSense.c **** 		
 215:.\Generated_Source\PSoC4/CapSense.c **** 		CapSense_EnableShieldElectrode((uint32)CapSense_SHIELD_PIN_NUMBER, (uint32)CapSense_SHIELD_PORT_N
 216:.\Generated_Source\PSoC4/CapSense.c **** 		
 217:.\Generated_Source\PSoC4/CapSense.c **** 	#endif /* (CapSense_IS_SHIELD_ENABLE) */
 218:.\Generated_Source\PSoC4/CapSense.c **** 	
 219:.\Generated_Source\PSoC4/CapSense.c **** 	for(curSensor = 0u; curSensor < CapSense_TOTAL_SENSOR_COUNT; curSensor++)
 220:.\Generated_Source\PSoC4/CapSense.c **** 	{
 221:.\Generated_Source\PSoC4/CapSense.c **** 		CapSense_unscannedSnsDriveMode[curSensor] = CapSense_CONNECT_INACTIVE_SNS;
 222:.\Generated_Source\PSoC4/CapSense.c **** 	}
 223:.\Generated_Source\PSoC4/CapSense.c ****     
 224:.\Generated_Source\PSoC4/CapSense.c **** 	CapSense_CsdHwBlockInit();
 225:.\Generated_Source\PSoC4/CapSense.c ****     CapSense_SetShieldDelay(CapSense_SHIELD_DELAY );
 226:.\Generated_Source\PSoC4/CapSense.c **** 	
 227:.\Generated_Source\PSoC4/CapSense.c **** 	/* Clear all sensors */
 228:.\Generated_Source\PSoC4/CapSense.c ****     CapSense_ClearSensors();
 229:.\Generated_Source\PSoC4/CapSense.c **** }
 230:.\Generated_Source\PSoC4/CapSense.c **** 
 231:.\Generated_Source\PSoC4/CapSense.c **** /*******************************************************************************
 232:.\Generated_Source\PSoC4/CapSense.c **** * Function Name: CapSense_CsdHwBlockInit
 233:.\Generated_Source\PSoC4/CapSense.c **** ********************************************************************************
 234:.\Generated_Source\PSoC4/CapSense.c **** *
 235:.\Generated_Source\PSoC4/CapSense.c **** * Summary:
 236:.\Generated_Source\PSoC4/CapSense.c **** *  Initialises the hardware parameters of the CSD block 
 237:.\Generated_Source\PSoC4/CapSense.c **** *
 238:.\Generated_Source\PSoC4/CapSense.c **** * Parameters:
 239:.\Generated_Source\PSoC4/CapSense.c **** *  None
 240:.\Generated_Source\PSoC4/CapSense.c **** *
 241:.\Generated_Source\PSoC4/CapSense.c **** * Return:
 242:.\Generated_Source\PSoC4/CapSense.c **** *  None
 243:.\Generated_Source\PSoC4/CapSense.c **** *
 244:.\Generated_Source\PSoC4/CapSense.c **** * Global Variables:
 245:.\Generated_Source\PSoC4/CapSense.c **** *  CapSense_csdTrim1 - Contains IDAC trim register value for Sourcing Mode.
 246:.\Generated_Source\PSoC4/CapSense.c **** *  CapSense_csdTrim2 - Contains IDAC trim register value for Sinking Mode.
 247:.\Generated_Source\PSoC4/CapSense.c **** *
 248:.\Generated_Source\PSoC4/CapSense.c **** * Side Effects:
 249:.\Generated_Source\PSoC4/CapSense.c **** *  None
 250:.\Generated_Source\PSoC4/CapSense.c **** * 
 251:.\Generated_Source\PSoC4/CapSense.c **** *******************************************************************************/
 252:.\Generated_Source\PSoC4/CapSense.c **** void CapSense_CsdHwBlockInit(void)
 253:.\Generated_Source\PSoC4/CapSense.c **** {
  26              		.loc 1 253 0
  27              		.cfi_startproc
  28 0000 38B5     		push	{r3, r4, r5, lr}
  29              		.cfi_def_cfa_offset 16
  30              		.cfi_offset 3, -16
  31              		.cfi_offset 4, -12
  32              		.cfi_offset 5, -8
ARM GAS  C:\Users\merlin\AppData\Local\Temp\ccZOZwzR.s 			page 6


  33              		.cfi_offset 14, -4
 254:.\Generated_Source\PSoC4/CapSense.c **** 	uint32 newRegValue;
 255:.\Generated_Source\PSoC4/CapSense.c **** 	
 256:.\Generated_Source\PSoC4/CapSense.c **** 	    /* Set trim registers for CSD Mode */
 257:.\Generated_Source\PSoC4/CapSense.c ****     #if (CapSense_IDAC1_POLARITY == CapSense__IDAC_SINK)
 258:.\Generated_Source\PSoC4/CapSense.c **** 		/* iDAC1 Sinking Mode */ 
 259:.\Generated_Source\PSoC4/CapSense.c **** 		CapSense_csdTrim2 = (uint8)CapSense_CSD_TRIM2_REG;
 260:.\Generated_Source\PSoC4/CapSense.c **** 		newRegValue = CapSense_csdTrim2;
 261:.\Generated_Source\PSoC4/CapSense.c **** 		newRegValue &= CapSense_CSD_IDAC1_TRIM_MASK;
 262:.\Generated_Source\PSoC4/CapSense.c **** 		newRegValue |= (uint32)((uint32)CapSense_SFLASH_CSD_TRIM2_REG & (uint32)CapSense_CSFLASH_TRIM_IDA
 263:.\Generated_Source\PSoC4/CapSense.c **** 		
 264:.\Generated_Source\PSoC4/CapSense.c **** 		#if (CapSense_IDAC_CNT == 2u)
 265:.\Generated_Source\PSoC4/CapSense.c **** 		    /* iDAC2 Sinking Mode */ 
 266:.\Generated_Source\PSoC4/CapSense.c **** 			newRegValue &= CapSense_CSD_IDAC2_TRIM_MASK;
 267:.\Generated_Source\PSoC4/CapSense.c **** 			newRegValue |= (uint32)((uint32)CapSense_SFLASH_CSD_TRIM2_REG & (uint32)CapSense_CSFLASH_TRIM_ID
 268:.\Generated_Source\PSoC4/CapSense.c **** 		#endif /* (CapSense_IDAC_CNT == 2u) */
 269:.\Generated_Source\PSoC4/CapSense.c **** 		CapSense_CSD_TRIM2_REG = newRegValue;
 270:.\Generated_Source\PSoC4/CapSense.c ****     #else   
 271:.\Generated_Source\PSoC4/CapSense.c **** 		/* iDAC1 Sourcing Mode */ 
 272:.\Generated_Source\PSoC4/CapSense.c **** 		CapSense_csdTrim1 = (uint8)CapSense_CSD_TRIM1_REG;
  34              		.loc 1 272 0
  35 0002 1748     		ldr	r0, .L2
  36 0004 0368     		ldr	r3, [r0]
  37 0006 DBB2     		uxtb	r3, r3
  38 0008 164A     		ldr	r2, .L2+4
  39 000a 1370     		strb	r3, [r2]
  40              	.LVL0:
 273:.\Generated_Source\PSoC4/CapSense.c **** 		newRegValue = CapSense_csdTrim1;
 274:.\Generated_Source\PSoC4/CapSense.c **** 		newRegValue &= CapSense_CSD_IDAC1_TRIM_MASK;
  41              		.loc 1 274 0
  42 000c 0F24     		mov	r4, #15
  43 000e A343     		bic	r3, r4
  44              	.LVL1:
  45 0010 191C     		mov	r1, r3
  46              	.LVL2:
 275:.\Generated_Source\PSoC4/CapSense.c **** 		newRegValue |= (uint32)((uint32)CapSense_SFLASH_CSD_TRIM1_REG & (uint32)CapSense_CSFLASH_TRIM_IDA
  47              		.loc 1 275 0
  48 0012 154D     		ldr	r5, .L2+8
  49 0014 2A78     		ldrb	r2, [r5]
  50 0016 0F23     		mov	r3, #15
  51 0018 1340     		and	r3, r2
  52 001a 0B43     		orr	r3, r1
  53              	.LVL3:
 276:.\Generated_Source\PSoC4/CapSense.c **** 		#if (CapSense_IDAC_CNT == 2u)
 277:.\Generated_Source\PSoC4/CapSense.c **** 		     /* iDAC2 Sourcing Mode */ 
 278:.\Generated_Source\PSoC4/CapSense.c **** 			newRegValue &= CapSense_CSD_IDAC2_TRIM_MASK;
  54              		.loc 1 278 0
  55 001c F022     		mov	r2, #240
  56 001e 9343     		bic	r3, r2
  57              	.LVL4:
  58 0020 1A1C     		mov	r2, r3
  59              	.LVL5:
 279:.\Generated_Source\PSoC4/CapSense.c **** 			newRegValue |= (uint32)((uint32)CapSense_SFLASH_CSD_TRIM1_REG & (uint32)CapSense_CSFLASH_TRIM_ID
  60              		.loc 1 279 0
  61 0022 2B78     		ldrb	r3, [r5]
  62 0024 A343     		bic	r3, r4
  63 0026 1343     		orr	r3, r2
ARM GAS  C:\Users\merlin\AppData\Local\Temp\ccZOZwzR.s 			page 7


  64              	.LVL6:
 280:.\Generated_Source\PSoC4/CapSense.c **** 		#endif		
 281:.\Generated_Source\PSoC4/CapSense.c **** 		CapSense_CSD_TRIM1_REG = newRegValue;
  65              		.loc 1 281 0
  66 0028 0360     		str	r3, [r0]
 282:.\Generated_Source\PSoC4/CapSense.c ****     #endif /* (CapSense_IDAC1_POLARITY == CapSense__IDAC_SINK) */
 283:.\Generated_Source\PSoC4/CapSense.c **** 	
 284:.\Generated_Source\PSoC4/CapSense.c **** 	/* Configure CSD and IDAC */
 285:.\Generated_Source\PSoC4/CapSense.c **** 	#if (CapSense_IDAC_CNT > 1u)
 286:.\Generated_Source\PSoC4/CapSense.c **** 		CapSense_CSD_IDAC_REG = CapSense_DEFAULT_CSD_IDAC_CONFIG;
  67              		.loc 1 286 0
  68 002a 104A     		ldr	r2, .L2+12
  69 002c 104B     		ldr	r3, .L2+16
  70              	.LVL7:
  71 002e 1A60     		str	r2, [r3]
  72              	.LVL8:
 287:.\Generated_Source\PSoC4/CapSense.c **** 		CapSense_CSD_CFG_REG = CapSense_DEFAULT_CSD_CONFIG;
  73              		.loc 1 287 0
  74 0030 104A     		ldr	r2, .L2+20
  75 0032 114B     		ldr	r3, .L2+24
  76 0034 1A60     		str	r2, [r3]
 288:.\Generated_Source\PSoC4/CapSense.c **** 	#else
 289:.\Generated_Source\PSoC4/CapSense.c **** 		CapSense_CSD_IDAC_REG &= ~(CapSense_CSD_IDAC1_MODE_MASK  | CapSense_CSD_IDAC1_DATA_MASK);
 290:.\Generated_Source\PSoC4/CapSense.c **** 		CapSense_CSD_IDAC_REG |= CapSense_DEFAULT_CSD_IDAC_CONFIG;
 291:.\Generated_Source\PSoC4/CapSense.c **** 		
 292:.\Generated_Source\PSoC4/CapSense.c **** 		CapSense_CSD_CFG_REG &= ~(CapSense_CSD_CONFIG_MASK);
 293:.\Generated_Source\PSoC4/CapSense.c **** 		CapSense_CSD_CFG_REG |= (CapSense_DEFAULT_CSD_CONFIG);
 294:.\Generated_Source\PSoC4/CapSense.c **** 	#endif /* (CapSense_IDAC_CNT > 1u) */
 295:.\Generated_Source\PSoC4/CapSense.c **** 	
 296:.\Generated_Source\PSoC4/CapSense.c **** 	
 297:.\Generated_Source\PSoC4/CapSense.c **** 	/* Connect Cmod to AMUX bus */ 
 298:.\Generated_Source\PSoC4/CapSense.c **** 	newRegValue = CapSense_CMOD_CONNECTION_REG; 
  77              		.loc 1 298 0
  78 0036 114A     		ldr	r2, .L2+28
  79 0038 1168     		ldr	r1, [r2]
  80              	.LVL9:
 299:.\Generated_Source\PSoC4/CapSense.c ****     newRegValue &= ~(CapSense_CSD_CMOD_CONNECTION_MASK);
  81              		.loc 1 299 0
  82 003a 114B     		ldr	r3, .L2+32
  83 003c 0B40     		and	r3, r1
  84              	.LVL10:
 300:.\Generated_Source\PSoC4/CapSense.c ****     newRegValue |= CapSense_CSD_CMOD_TO_AMUXBUS_A;
  85              		.loc 1 300 0
  86 003e C021     		mov	r1, #192
  87 0040 C900     		lsl	r1, r1, #3
  88 0042 0B43     		orr	r3, r1
  89              	.LVL11:
 301:.\Generated_Source\PSoC4/CapSense.c ****     CapSense_CMOD_CONNECTION_REG = newRegValue;
  90              		.loc 1 301 0
  91 0044 1360     		str	r3, [r2]
 302:.\Generated_Source\PSoC4/CapSense.c **** 	
 303:.\Generated_Source\PSoC4/CapSense.c **** 	/* Configure Dead Band PWM if it is enabled */
 304:.\Generated_Source\PSoC4/CapSense.c **** 	#if(CapSense_CSD_4B_PWM_MODE != CapSense__PWM_OFF)
 305:.\Generated_Source\PSoC4/CapSense.c **** 		CapSense_CSD_4B_PWM_REG = CapSense_DEFAULT_CSD_4B_PWM_CONFIG;
 306:.\Generated_Source\PSoC4/CapSense.c **** 	#endif /* (CapSense_CSD_4B_PWM_MODE != CapSense__PWM_OFF) */
 307:.\Generated_Source\PSoC4/CapSense.c **** 
 308:.\Generated_Source\PSoC4/CapSense.c **** 	/* Setup ISR */
ARM GAS  C:\Users\merlin\AppData\Local\Temp\ccZOZwzR.s 			page 8


 309:.\Generated_Source\PSoC4/CapSense.c **** 	CyIntDisable(CapSense_ISR_NUMBER);
  92              		.loc 1 309 0
  93 0046 1120     		mov	r0, #17
  94 0048 FFF7FEFF 		bl	CyIntDisable
  95              	.LVL12:
 310:.\Generated_Source\PSoC4/CapSense.c **** 	#if !defined(CY_EXTERNAL_INTERRUPT_CONFIG)		
 311:.\Generated_Source\PSoC4/CapSense.c **** 	    (void)CyIntSetVector(CapSense_ISR_NUMBER, &CapSense_ISR);
  96              		.loc 1 311 0
  97 004c 1120     		mov	r0, #17
  98 004e 0D49     		ldr	r1, .L2+36
  99 0050 FFF7FEFF 		bl	CyIntSetVector
 100              	.LVL13:
 312:.\Generated_Source\PSoC4/CapSense.c **** 	    CyIntSetPriority(CapSense_ISR_NUMBER, CapSense_ISR_PRIORITY);
 101              		.loc 1 312 0
 102 0054 1120     		mov	r0, #17
 103 0056 0321     		mov	r1, #3
 104 0058 FFF7FEFF 		bl	CyIntSetPriority
 105              	.LVL14:
 313:.\Generated_Source\PSoC4/CapSense.c **** 	#endif /* (CY_EXTERNAL_INTERRUPT_CONFIG) */
 314:.\Generated_Source\PSoC4/CapSense.c **** }
 106              		.loc 1 314 0
 107              		@ sp needed
 108 005c 38BD     		pop	{r3, r4, r5, pc}
 109              	.L3:
 110 005e C046     		.align	2
 111              	.L2:
 112 0060 00FF2840 		.word	1076428544
 113 0064 00000000 		.word	CapSense_csdTrim1
 114 0068 62F1FF0F 		.word	268431714
 115 006c 00020001 		.word	16777728
 116 0070 08002840 		.word	1076363272
 117 0074 C008A001 		.word	27265216
 118 0078 04002840 		.word	1076363268
 119 007c 00040240 		.word	1073873920
 120 0080 FFF0FFFF 		.word	-3841
 121 0084 00000000 		.word	CapSense_ISR
 122              		.cfi_endproc
 123              	.LFE35:
 124              		.size	CapSense_CsdHwBlockInit, .-CapSense_CsdHwBlockInit
 125              		.section	.text.CapSense_Enable,"ax",%progbits
 126              		.align	2
 127              		.global	CapSense_Enable
 128              		.code	16
 129              		.thumb_func
 130              		.type	CapSense_Enable, %function
 131              	CapSense_Enable:
 132              	.LFB36:
 315:.\Generated_Source\PSoC4/CapSense.c **** 
 316:.\Generated_Source\PSoC4/CapSense.c **** 
 317:.\Generated_Source\PSoC4/CapSense.c **** /*******************************************************************************
 318:.\Generated_Source\PSoC4/CapSense.c **** * Function Name: CapSense_Enable
 319:.\Generated_Source\PSoC4/CapSense.c **** ********************************************************************************
 320:.\Generated_Source\PSoC4/CapSense.c **** *
 321:.\Generated_Source\PSoC4/CapSense.c **** * Summary:
 322:.\Generated_Source\PSoC4/CapSense.c **** *  Enables the CSD block and related resources to an active mode.
 323:.\Generated_Source\PSoC4/CapSense.c **** *
 324:.\Generated_Source\PSoC4/CapSense.c **** * Parameters:
ARM GAS  C:\Users\merlin\AppData\Local\Temp\ccZOZwzR.s 			page 9


 325:.\Generated_Source\PSoC4/CapSense.c **** *  None
 326:.\Generated_Source\PSoC4/CapSense.c **** *
 327:.\Generated_Source\PSoC4/CapSense.c **** * Return:
 328:.\Generated_Source\PSoC4/CapSense.c **** *  None
 329:.\Generated_Source\PSoC4/CapSense.c **** *
 330:.\Generated_Source\PSoC4/CapSense.c **** * Global Variables:
 331:.\Generated_Source\PSoC4/CapSense.c **** *  None.
 332:.\Generated_Source\PSoC4/CapSense.c **** *
 333:.\Generated_Source\PSoC4/CapSense.c **** * Side Effects:
 334:.\Generated_Source\PSoC4/CapSense.c **** *  None
 335:.\Generated_Source\PSoC4/CapSense.c **** * 
 336:.\Generated_Source\PSoC4/CapSense.c **** *******************************************************************************/
 337:.\Generated_Source\PSoC4/CapSense.c **** void CapSense_Enable(void)
 338:.\Generated_Source\PSoC4/CapSense.c **** {
 133              		.loc 1 338 0
 134              		.cfi_startproc
 135 0000 08B5     		push	{r3, lr}
 136              		.cfi_def_cfa_offset 8
 137              		.cfi_offset 3, -8
 138              		.cfi_offset 14, -4
 339:.\Generated_Source\PSoC4/CapSense.c ****     uint32 newRegValue;
 340:.\Generated_Source\PSoC4/CapSense.c ****     
 341:.\Generated_Source\PSoC4/CapSense.c ****     /* Enable Clocks */
 342:.\Generated_Source\PSoC4/CapSense.c **** 	CapSense_SenseClk_Stop();
 139              		.loc 1 342 0
 140 0002 FFF7FEFF 		bl	CapSense_SenseClk_Stop
 141              	.LVL15:
 343:.\Generated_Source\PSoC4/CapSense.c **** 	CapSense_SampleClk_Stop();
 142              		.loc 1 343 0
 143 0006 FFF7FEFF 		bl	CapSense_SampleClk_Stop
 144              	.LVL16:
 344:.\Generated_Source\PSoC4/CapSense.c **** 	
 345:.\Generated_Source\PSoC4/CapSense.c **** 	CapSense_SampleClk_SetDividerValue((uint16)CapSense_INITIAL_CLK_DIVIDER);
 145              		.loc 1 345 0
 146 000a 0020     		mov	r0, #0
 147 000c 0021     		mov	r1, #0
 148 000e FFF7FEFF 		bl	CapSense_SampleClk_SetFractionalDividerRegister
 149              	.LVL17:
 346:.\Generated_Source\PSoC4/CapSense.c **** 	CapSense_SenseClk_SetDividerValue((uint16)CapSense_INITIAL_CLK_DIVIDER);
 150              		.loc 1 346 0
 151 0012 0020     		mov	r0, #0
 152 0014 0021     		mov	r1, #0
 153 0016 FFF7FEFF 		bl	CapSense_SenseClk_SetFractionalDividerRegister
 154              	.LVL18:
 347:.\Generated_Source\PSoC4/CapSense.c **** 	
 348:.\Generated_Source\PSoC4/CapSense.c **** 	#if (0u == CapSense_IS_M0S8PERI_BLOCK)
 349:.\Generated_Source\PSoC4/CapSense.c **** 		CapSense_SenseClk_Start();
 350:.\Generated_Source\PSoC4/CapSense.c **** 		CapSense_SampleClk_Start();
 351:.\Generated_Source\PSoC4/CapSense.c **** 	#else
 352:.\Generated_Source\PSoC4/CapSense.c **** 		CapSense_SampleClk_Start();
 155              		.loc 1 352 0
 156 001a FF20     		mov	r0, #255
 157 001c FFF7FEFF 		bl	CapSense_SampleClk_StartEx
 158              	.LVL19:
 353:.\Generated_Source\PSoC4/CapSense.c **** 		CapSense_SenseClk_StartEx(CapSense_SampleClk__DIV_ID);
 159              		.loc 1 353 0
 160 0020 4020     		mov	r0, #64
ARM GAS  C:\Users\merlin\AppData\Local\Temp\ccZOZwzR.s 			page 10


 161 0022 FFF7FEFF 		bl	CapSense_SenseClk_StartEx
 162              	.LVL20:
 354:.\Generated_Source\PSoC4/CapSense.c **** 	#endif /* (0u == CapSense_IS_M0S8PERI_BLOCK) */
 355:.\Generated_Source\PSoC4/CapSense.c **** 	
 356:.\Generated_Source\PSoC4/CapSense.c **** 	/* Enable the CSD block */
 357:.\Generated_Source\PSoC4/CapSense.c ****     newRegValue = CapSense_CSD_CFG_REG;
 163              		.loc 1 357 0
 164 0026 044A     		ldr	r2, .L5
 165 0028 1368     		ldr	r3, [r2]
 166              	.LVL21:
 358:.\Generated_Source\PSoC4/CapSense.c ****     newRegValue |= (CapSense_CSD_CFG_ENABLE | CapSense_CSD_CFG_SENSE_COMP_EN 
 167              		.loc 1 358 0
 168 002a 0449     		ldr	r1, .L5+4
 169 002c 0B43     		orr	r3, r1
 170              	.LVL22:
 359:.\Generated_Source\PSoC4/CapSense.c ****                                                    | CapSense_CSD_CFG_SENSE_EN);    
 360:.\Generated_Source\PSoC4/CapSense.c ****     CapSense_CSD_CFG_REG = newRegValue;
 171              		.loc 1 360 0
 172 002e 1360     		str	r3, [r2]
 361:.\Generated_Source\PSoC4/CapSense.c **** 
 362:.\Generated_Source\PSoC4/CapSense.c ****     /* Enable interrupt */
 363:.\Generated_Source\PSoC4/CapSense.c ****     CyIntEnable(CapSense_ISR_NUMBER);
 173              		.loc 1 363 0
 174 0030 1120     		mov	r0, #17
 175 0032 FFF7FEFF 		bl	CyIntEnable
 176              	.LVL23:
 364:.\Generated_Source\PSoC4/CapSense.c **** }
 177              		.loc 1 364 0
 178              		@ sp needed
 179 0036 08BD     		pop	{r3, pc}
 180              	.L6:
 181              		.align	2
 182              	.L5:
 183 0038 04002840 		.word	1076363268
 184 003c 00100880 		.word	-2146955264
 185              		.cfi_endproc
 186              	.LFE36:
 187              		.size	CapSense_Enable, .-CapSense_Enable
 188              		.section	.text.CapSense_Stop,"ax",%progbits
 189              		.align	2
 190              		.global	CapSense_Stop
 191              		.code	16
 192              		.thumb_func
 193              		.type	CapSense_Stop, %function
 194              	CapSense_Stop:
 195              	.LFB38:
 365:.\Generated_Source\PSoC4/CapSense.c **** 
 366:.\Generated_Source\PSoC4/CapSense.c **** 
 367:.\Generated_Source\PSoC4/CapSense.c **** /*******************************************************************************
 368:.\Generated_Source\PSoC4/CapSense.c **** * Function Name: CapSense_Start
 369:.\Generated_Source\PSoC4/CapSense.c **** ********************************************************************************
 370:.\Generated_Source\PSoC4/CapSense.c **** *
 371:.\Generated_Source\PSoC4/CapSense.c **** * Summary:
 372:.\Generated_Source\PSoC4/CapSense.c **** *  This is the preferred method to begin the component operation. CapSense_Start() 
 373:.\Generated_Source\PSoC4/CapSense.c **** *  calls the CapSense_Init() function, and then calls the CapSense_Enable() 
 374:.\Generated_Source\PSoC4/CapSense.c **** *  function. Initializes the registers and starts the CSD method of the CapSense 
 375:.\Generated_Source\PSoC4/CapSense.c **** *  component. Resets all the sensors to an inactive state. Enables interrupts for 
ARM GAS  C:\Users\merlin\AppData\Local\Temp\ccZOZwzR.s 			page 11


 376:.\Generated_Source\PSoC4/CapSense.c **** *  sensors scanning. When the SmartSense tuning mode is selected, the tuning procedure
 377:.\Generated_Source\PSoC4/CapSense.c **** *  is applied for all the sensors. The CapSense_Start() routine must be called before 
 378:.\Generated_Source\PSoC4/CapSense.c **** *  any other API routines.
 379:.\Generated_Source\PSoC4/CapSense.c **** *
 380:.\Generated_Source\PSoC4/CapSense.c **** * Parameters:
 381:.\Generated_Source\PSoC4/CapSense.c **** *  None
 382:.\Generated_Source\PSoC4/CapSense.c **** *
 383:.\Generated_Source\PSoC4/CapSense.c **** * Return:
 384:.\Generated_Source\PSoC4/CapSense.c **** *  None
 385:.\Generated_Source\PSoC4/CapSense.c **** *
 386:.\Generated_Source\PSoC4/CapSense.c **** * Global Variables:
 387:.\Generated_Source\PSoC4/CapSense.c **** *   CapSense_initVar - used to check the initial configuration, 
 388:.\Generated_Source\PSoC4/CapSense.c **** *   modified on the first function call.
 389:.\Generated_Source\PSoC4/CapSense.c **** *  CapSense_lowLevelTuningDone - Used to notify the Tuner GUI that 
 390:.\Generated_Source\PSoC4/CapSense.c **** *   tuning of the scanning parameters is done. 
 391:.\Generated_Source\PSoC4/CapSense.c **** *
 392:.\Generated_Source\PSoC4/CapSense.c **** * Side Effects:
 393:.\Generated_Source\PSoC4/CapSense.c **** *  None
 394:.\Generated_Source\PSoC4/CapSense.c **** * 
 395:.\Generated_Source\PSoC4/CapSense.c **** *******************************************************************************/
 396:.\Generated_Source\PSoC4/CapSense.c **** void CapSense_Start(void)
 397:.\Generated_Source\PSoC4/CapSense.c **** {
 398:.\Generated_Source\PSoC4/CapSense.c **** 
 399:.\Generated_Source\PSoC4/CapSense.c **** 	static uint8 CapSense_initVar = 0u;
 400:.\Generated_Source\PSoC4/CapSense.c **** 
 401:.\Generated_Source\PSoC4/CapSense.c **** 	#if((0u != CapSense_AUTOCALIBRATION_ENABLE) && (CapSense_TUNING_METHOD != CapSense__TUNING_AUTO))
 402:.\Generated_Source\PSoC4/CapSense.c **** 		uint32 curSensor;
 403:.\Generated_Source\PSoC4/CapSense.c **** 		uint32 rawLevel;
 404:.\Generated_Source\PSoC4/CapSense.c **** 		uint32 widget;
 405:.\Generated_Source\PSoC4/CapSense.c ****     #endif /* ((0u != CapSense_AUTOCALIBRATION_ENABLE) && (CapSense_TUNING_METHOD != CapSense__TUNI
 406:.\Generated_Source\PSoC4/CapSense.c **** 	
 407:.\Generated_Source\PSoC4/CapSense.c ****     if (CapSense_initVar == 0u)
 408:.\Generated_Source\PSoC4/CapSense.c ****     {
 409:.\Generated_Source\PSoC4/CapSense.c ****         CapSense_Init();
 410:.\Generated_Source\PSoC4/CapSense.c ****         CapSense_initVar = 1u;
 411:.\Generated_Source\PSoC4/CapSense.c ****     }
 412:.\Generated_Source\PSoC4/CapSense.c ****     CapSense_Enable();
 413:.\Generated_Source\PSoC4/CapSense.c **** 	
 414:.\Generated_Source\PSoC4/CapSense.c ****     /* AutoTunning start */
 415:.\Generated_Source\PSoC4/CapSense.c ****     #if(CapSense_TUNING_METHOD == CapSense__TUNING_AUTO)
 416:.\Generated_Source\PSoC4/CapSense.c **** 		#if(0u != CapSense_CSHL_API_GENERATE)
 417:.\Generated_Source\PSoC4/CapSense.c **** 	        CapSense_AutoTune();
 418:.\Generated_Source\PSoC4/CapSense.c **** 	        CapSense_lowLevelTuningDone = 1u;
 419:.\Generated_Source\PSoC4/CapSense.c **** 		#endif /* (0u != CapSense_CSHL_API_GENERATE) */
 420:.\Generated_Source\PSoC4/CapSense.c **** 	#else
 421:.\Generated_Source\PSoC4/CapSense.c **** 		#if(0u != CapSense_AUTOCALIBRATION_ENABLE)
 422:.\Generated_Source\PSoC4/CapSense.c **** 			
 423:.\Generated_Source\PSoC4/CapSense.c **** 			#if(CapSense_IDAC_CNT > 1u)
 424:.\Generated_Source\PSoC4/CapSense.c **** 				CapSense_CSD_IDAC_REG &= ~(CapSense_CSD_IDAC2_MODE_MASK);	
 425:.\Generated_Source\PSoC4/CapSense.c **** 			#endif /* (CapSense_IDAC_CNT > 1u) */
 426:.\Generated_Source\PSoC4/CapSense.c **** 			
 427:.\Generated_Source\PSoC4/CapSense.c **** 			for(curSensor = 0u; curSensor < CapSense_TOTAL_SCANSLOT_COUNT; curSensor++)
 428:.\Generated_Source\PSoC4/CapSense.c **** 			{
 429:.\Generated_Source\PSoC4/CapSense.c **** 				widget = CapSense_widgetNumber[curSensor];
 430:.\Generated_Source\PSoC4/CapSense.c **** 				rawLevel = CapSense_widgetResolution[widget] >> CapSense_RESOLUTION_OFFSET;
 431:.\Generated_Source\PSoC4/CapSense.c **** 				
 432:.\Generated_Source\PSoC4/CapSense.c **** 				/* Calibration level should be equal to 85% from scanning resolution */
ARM GAS  C:\Users\merlin\AppData\Local\Temp\ccZOZwzR.s 			page 12


 433:.\Generated_Source\PSoC4/CapSense.c **** 				rawLevel = (rawLevel * 85u) / 100u;
 434:.\Generated_Source\PSoC4/CapSense.c **** 				
 435:.\Generated_Source\PSoC4/CapSense.c **** 				CapSense_CalibrateSensor(curSensor, rawLevel, CapSense_modulationIDAC);
 436:.\Generated_Source\PSoC4/CapSense.c **** 			}
 437:.\Generated_Source\PSoC4/CapSense.c **** 
 438:.\Generated_Source\PSoC4/CapSense.c **** 			#if(0u != CapSense_TOTAL_CENTROIDS_COUNT) 
 439:.\Generated_Source\PSoC4/CapSense.c **** 				CapSense_NormalizeWidgets(CapSense_END_OF_WIDGETS_INDEX, CapSense_modulationIDAC);
 440:.\Generated_Source\PSoC4/CapSense.c **** 			#endif /* (0u != CapSense_TOTAL_CENTROIDS_COUNT)  */
 441:.\Generated_Source\PSoC4/CapSense.c **** 
 442:.\Generated_Source\PSoC4/CapSense.c **** 			#if(CapSense_IDAC_CNT > 1u)
 443:.\Generated_Source\PSoC4/CapSense.c **** 				for(curSensor = 0u; curSensor < CapSense_TOTAL_SCANSLOT_COUNT; curSensor++)
 444:.\Generated_Source\PSoC4/CapSense.c **** 			    {
 445:.\Generated_Source\PSoC4/CapSense.c **** 					CapSense_compensationIDAC[curSensor] = CapSense_modulationIDAC[curSensor] / 2u;
 446:.\Generated_Source\PSoC4/CapSense.c **** 					CapSense_modulationIDAC[curSensor] = (CapSense_modulationIDAC[curSensor] + 1u) / 2u;
 447:.\Generated_Source\PSoC4/CapSense.c **** 			    }
 448:.\Generated_Source\PSoC4/CapSense.c **** 				CapSense_CSD_IDAC_REG |= CapSense_CSD_IDAC2_MODE_FIXED;
 449:.\Generated_Source\PSoC4/CapSense.c **** 			#endif /* (CapSense_IDAC_CNT > 1u) */
 450:.\Generated_Source\PSoC4/CapSense.c **** 			
 451:.\Generated_Source\PSoC4/CapSense.c ****         #endif /* (0u != CapSense_AUTOCALIBRATION_ENABLE) */ 
 452:.\Generated_Source\PSoC4/CapSense.c **** 					
 453:.\Generated_Source\PSoC4/CapSense.c ****     #endif /* ((CapSense_TUNING_METHOD == CapSense__TUNING_AUTO) */	
 454:.\Generated_Source\PSoC4/CapSense.c **** 	
 455:.\Generated_Source\PSoC4/CapSense.c **** 	/* Initialize Advanced Centroid */
 456:.\Generated_Source\PSoC4/CapSense.c **** 	#if(CapSense_TOTAL_TRACKPAD_GESTURES_COUNT > 0u)
 457:.\Generated_Source\PSoC4/CapSense.c **** 		CapSense_AdvancedCentroidInit();
 458:.\Generated_Source\PSoC4/CapSense.c **** 	#endif /* (CapSense_TOTAL_TRACKPAD_GESTURES_COUNT > 0u) */
 459:.\Generated_Source\PSoC4/CapSense.c **** 	
 460:.\Generated_Source\PSoC4/CapSense.c **** 	/* Connect sense comparator input to AMUXA */
 461:.\Generated_Source\PSoC4/CapSense.c **** 	CapSense_CSD_CFG_REG |= CapSense_CSD_CFG_SENSE_INSEL;
 462:.\Generated_Source\PSoC4/CapSense.c **** }
 463:.\Generated_Source\PSoC4/CapSense.c **** 
 464:.\Generated_Source\PSoC4/CapSense.c **** 
 465:.\Generated_Source\PSoC4/CapSense.c **** /*******************************************************************************
 466:.\Generated_Source\PSoC4/CapSense.c **** * Function Name: CapSense_Stop
 467:.\Generated_Source\PSoC4/CapSense.c **** ********************************************************************************
 468:.\Generated_Source\PSoC4/CapSense.c **** *
 469:.\Generated_Source\PSoC4/CapSense.c **** * Summary:
 470:.\Generated_Source\PSoC4/CapSense.c **** *  Stops the sensor scanning, disables component interrupts, and resets all the 
 471:.\Generated_Source\PSoC4/CapSense.c **** *  sensors to an inactive state. Disables the Active mode power template bits for
 472:.\Generated_Source\PSoC4/CapSense.c **** *  the subcomponents used within CapSense.
 473:.\Generated_Source\PSoC4/CapSense.c **** *
 474:.\Generated_Source\PSoC4/CapSense.c **** * Parameters:
 475:.\Generated_Source\PSoC4/CapSense.c **** *  None
 476:.\Generated_Source\PSoC4/CapSense.c **** *
 477:.\Generated_Source\PSoC4/CapSense.c **** * Return:
 478:.\Generated_Source\PSoC4/CapSense.c **** *  None
 479:.\Generated_Source\PSoC4/CapSense.c **** *
 480:.\Generated_Source\PSoC4/CapSense.c **** * Global Variables:
 481:.\Generated_Source\PSoC4/CapSense.c **** *  CapSense_csdTrim1 - Contains the IDAC trim register value for the Sourcing Mode.
 482:.\Generated_Source\PSoC4/CapSense.c **** *  CapSense_csdTrim2 - Contains the IDAC trim register value for vSinking Mode.
 483:.\Generated_Source\PSoC4/CapSense.c **** *
 484:.\Generated_Source\PSoC4/CapSense.c **** * Side Effects:
 485:.\Generated_Source\PSoC4/CapSense.c **** *  This function should be called after scans are completed.
 486:.\Generated_Source\PSoC4/CapSense.c **** *
 487:.\Generated_Source\PSoC4/CapSense.c **** *******************************************************************************/
 488:.\Generated_Source\PSoC4/CapSense.c **** void CapSense_Stop(void)
 489:.\Generated_Source\PSoC4/CapSense.c **** {
ARM GAS  C:\Users\merlin\AppData\Local\Temp\ccZOZwzR.s 			page 13


 196              		.loc 1 489 0
 197              		.cfi_startproc
 198 0000 08B5     		push	{r3, lr}
 199              		.cfi_def_cfa_offset 8
 200              		.cfi_offset 3, -8
 201              		.cfi_offset 14, -4
 490:.\Generated_Source\PSoC4/CapSense.c ****     /* Disable interrupt */
 491:.\Generated_Source\PSoC4/CapSense.c ****     CyIntDisable(CapSense_ISR_NUMBER);
 202              		.loc 1 491 0
 203 0002 1120     		mov	r0, #17
 204 0004 FFF7FEFF 		bl	CyIntDisable
 205              	.LVL24:
 492:.\Generated_Source\PSoC4/CapSense.c **** 	
 493:.\Generated_Source\PSoC4/CapSense.c **** 	CapSense_CSD_CFG_REG &= ~(CapSense_CSD_CFG_SENSE_COMP_EN | CapSense_CSD_CFG_SENSE_EN);
 206              		.loc 1 493 0
 207 0008 064A     		ldr	r2, .L8
 208 000a 1168     		ldr	r1, [r2]
 209 000c 064B     		ldr	r3, .L8+4
 210 000e 0B40     		and	r3, r1
 211 0010 1360     		str	r3, [r2]
 494:.\Generated_Source\PSoC4/CapSense.c **** 	
 495:.\Generated_Source\PSoC4/CapSense.c **** 	#if(CapSense_IDAC_CNT == 2u)
 496:.\Generated_Source\PSoC4/CapSense.c **** 		CapSense_CSD_CFG_REG &= ~(CapSense_CSD_CFG_ENABLE);
 212              		.loc 1 496 0
 213 0012 1368     		ldr	r3, [r2]
 214 0014 5B00     		lsl	r3, r3, #1
 215 0016 5B08     		lsr	r3, r3, #1
 216 0018 1360     		str	r3, [r2]
 497:.\Generated_Source\PSoC4/CapSense.c **** 	#endif /* (CapSense_IDAC_CNT == 2u) */
 498:.\Generated_Source\PSoC4/CapSense.c **** 
 499:.\Generated_Source\PSoC4/CapSense.c ****     /* Disable the Clocks */
 500:.\Generated_Source\PSoC4/CapSense.c ****     CapSense_SenseClk_Stop();
 217              		.loc 1 500 0
 218 001a FFF7FEFF 		bl	CapSense_SenseClk_Stop
 219              	.LVL25:
 501:.\Generated_Source\PSoC4/CapSense.c ****     CapSense_SampleClk_Stop();
 220              		.loc 1 501 0
 221 001e FFF7FEFF 		bl	CapSense_SampleClk_Stop
 222              	.LVL26:
 502:.\Generated_Source\PSoC4/CapSense.c **** }
 223              		.loc 1 502 0
 224              		@ sp needed
 225 0022 08BD     		pop	{r3, pc}
 226              	.L9:
 227              		.align	2
 228              	.L8:
 229 0024 04002840 		.word	1076363268
 230 0028 FFEFF7FF 		.word	-528385
 231              		.cfi_endproc
 232              	.LFE38:
 233              		.size	CapSense_Stop, .-CapSense_Stop
 234              		.section	.text.CapSense_IsBusy,"ax",%progbits
 235              		.align	2
 236              		.global	CapSense_IsBusy
 237              		.code	16
 238              		.thumb_func
 239              		.type	CapSense_IsBusy, %function
ARM GAS  C:\Users\merlin\AppData\Local\Temp\ccZOZwzR.s 			page 14


 240              	CapSense_IsBusy:
 241              	.LFB43:
 503:.\Generated_Source\PSoC4/CapSense.c **** 
 504:.\Generated_Source\PSoC4/CapSense.c **** 
 505:.\Generated_Source\PSoC4/CapSense.c **** /*******************************************************************************
 506:.\Generated_Source\PSoC4/CapSense.c **** * Function Name: CapSense_FindNextSensor
 507:.\Generated_Source\PSoC4/CapSense.c **** ********************************************************************************
 508:.\Generated_Source\PSoC4/CapSense.c **** *
 509:.\Generated_Source\PSoC4/CapSense.c **** * Summary:
 510:.\Generated_Source\PSoC4/CapSense.c **** *  Finds the next sensor to scan. 
 511:.\Generated_Source\PSoC4/CapSense.c **** *
 512:.\Generated_Source\PSoC4/CapSense.c **** * Parameters:
 513:.\Generated_Source\PSoC4/CapSense.c **** *  snsIndex:  Current index of sensor.
 514:.\Generated_Source\PSoC4/CapSense.c **** *
 515:.\Generated_Source\PSoC4/CapSense.c **** * Return:
 516:.\Generated_Source\PSoC4/CapSense.c **** *  Returns the next sensor index to scan.
 517:.\Generated_Source\PSoC4/CapSense.c **** *
 518:.\Generated_Source\PSoC4/CapSense.c **** * Global Variables:
 519:.\Generated_Source\PSoC4/CapSense.c **** *  CapSense_sensorEnableMask[] - used to store bit masks of the enabled sensors.
 520:.\Generated_Source\PSoC4/CapSense.c **** *
 521:.\Generated_Source\PSoC4/CapSense.c **** * Side Effects:
 522:.\Generated_Source\PSoC4/CapSense.c **** *  This function affects the  current scanning and should not
 523:.\Generated_Source\PSoC4/CapSense.c **** *  be used outside the component.
 524:.\Generated_Source\PSoC4/CapSense.c **** *
 525:.\Generated_Source\PSoC4/CapSense.c **** *******************************************************************************/
 526:.\Generated_Source\PSoC4/CapSense.c **** uint8 CapSense_FindNextSensor(uint8 snsIndex)
 527:.\Generated_Source\PSoC4/CapSense.c **** {
 528:.\Generated_Source\PSoC4/CapSense.c ****     uint32 enableFlag;
 529:.\Generated_Source\PSoC4/CapSense.c ****     
 530:.\Generated_Source\PSoC4/CapSense.c ****     /* Check if sensor enabled */
 531:.\Generated_Source\PSoC4/CapSense.c ****     do
 532:.\Generated_Source\PSoC4/CapSense.c ****     {
 533:.\Generated_Source\PSoC4/CapSense.c ****         /* Proceed with next sensor */
 534:.\Generated_Source\PSoC4/CapSense.c ****         snsIndex++;
 535:.\Generated_Source\PSoC4/CapSense.c ****         if(snsIndex == CapSense_TOTAL_SENSOR_COUNT)
 536:.\Generated_Source\PSoC4/CapSense.c ****         {
 537:.\Generated_Source\PSoC4/CapSense.c ****             break;
 538:.\Generated_Source\PSoC4/CapSense.c ****         }
 539:.\Generated_Source\PSoC4/CapSense.c ****         enableFlag = CapSense_GetBitValue(CapSense_sensorEnableMask, (uint32)snsIndex);
 540:.\Generated_Source\PSoC4/CapSense.c ****     }    
 541:.\Generated_Source\PSoC4/CapSense.c ****     while(enableFlag == 0u);
 542:.\Generated_Source\PSoC4/CapSense.c ****     
 543:.\Generated_Source\PSoC4/CapSense.c ****     return ((uint8)snsIndex);
 544:.\Generated_Source\PSoC4/CapSense.c **** }
 545:.\Generated_Source\PSoC4/CapSense.c **** 
 546:.\Generated_Source\PSoC4/CapSense.c **** 
 547:.\Generated_Source\PSoC4/CapSense.c **** /*******************************************************************************
 548:.\Generated_Source\PSoC4/CapSense.c **** * Function Name: CapSense_ScanSensor
 549:.\Generated_Source\PSoC4/CapSense.c **** ********************************************************************************
 550:.\Generated_Source\PSoC4/CapSense.c **** *
 551:.\Generated_Source\PSoC4/CapSense.c **** * Summary:
 552:.\Generated_Source\PSoC4/CapSense.c **** *  Sets the scan settings and starts scanning a sensor. After scanning is complete,
 553:.\Generated_Source\PSoC4/CapSense.c **** *  the ISR copies the measured sensor raw data to the global raw sensor array. 
 554:.\Generated_Source\PSoC4/CapSense.c **** *  Use of the ISR ensures this function is non-blocking. 
 555:.\Generated_Source\PSoC4/CapSense.c **** *  Each sensor has a unique number within the sensor array. 
 556:.\Generated_Source\PSoC4/CapSense.c **** *  This number is assigned by the CapSense customizer in sequence.
 557:.\Generated_Source\PSoC4/CapSense.c **** *
ARM GAS  C:\Users\merlin\AppData\Local\Temp\ccZOZwzR.s 			page 15


 558:.\Generated_Source\PSoC4/CapSense.c **** * Parameters:
 559:.\Generated_Source\PSoC4/CapSense.c **** *  sensor:  Sensor number.
 560:.\Generated_Source\PSoC4/CapSense.c **** *
 561:.\Generated_Source\PSoC4/CapSense.c **** * Return:
 562:.\Generated_Source\PSoC4/CapSense.c **** *  None
 563:.\Generated_Source\PSoC4/CapSense.c **** *
 564:.\Generated_Source\PSoC4/CapSense.c **** * Global Variables:
 565:.\Generated_Source\PSoC4/CapSense.c **** *  CapSense_csdStatusVar - used to provide the status and mode of the scanning process. 
 566:.\Generated_Source\PSoC4/CapSense.c **** *  Sets the busy status(scan in progress) and mode of scan as single scan.
 567:.\Generated_Source\PSoC4/CapSense.c **** *  CapSense_sensorIndex - used to store a sensor scanning sensor number.
 568:.\Generated_Source\PSoC4/CapSense.c **** *  Sets to the provided sensor argument.
 569:.\Generated_Source\PSoC4/CapSense.c **** *
 570:.\Generated_Source\PSoC4/CapSense.c **** * Side Effects:
 571:.\Generated_Source\PSoC4/CapSense.c **** *  None
 572:.\Generated_Source\PSoC4/CapSense.c **** * 
 573:.\Generated_Source\PSoC4/CapSense.c **** *******************************************************************************/
 574:.\Generated_Source\PSoC4/CapSense.c **** void CapSense_ScanSensor(uint32 sensor)
 575:.\Generated_Source\PSoC4/CapSense.c **** {
 576:.\Generated_Source\PSoC4/CapSense.c ****     /* Clears status/control variable and set sensorIndex */
 577:.\Generated_Source\PSoC4/CapSense.c ****     CapSense_csdStatusVar = 0u;
 578:.\Generated_Source\PSoC4/CapSense.c ****     CapSense_sensorIndex = (uint8)sensor;
 579:.\Generated_Source\PSoC4/CapSense.c ****     
 580:.\Generated_Source\PSoC4/CapSense.c ****     /* Start of sensor scan */
 581:.\Generated_Source\PSoC4/CapSense.c ****     CapSense_csdStatusVar = (CapSense_SW_STS_BUSY | CapSense_SW_CTRL_SINGLE_SCAN);
 582:.\Generated_Source\PSoC4/CapSense.c ****     CapSense_PreScan(sensor);
 583:.\Generated_Source\PSoC4/CapSense.c **** }
 584:.\Generated_Source\PSoC4/CapSense.c **** 
 585:.\Generated_Source\PSoC4/CapSense.c **** 
 586:.\Generated_Source\PSoC4/CapSense.c **** #if(0u != CapSense_CSHL_API_GENERATE)
 587:.\Generated_Source\PSoC4/CapSense.c **** /*******************************************************************************
 588:.\Generated_Source\PSoC4/CapSense.c **** * Function Name: CapSense_ScanWidget
 589:.\Generated_Source\PSoC4/CapSense.c **** ********************************************************************************
 590:.\Generated_Source\PSoC4/CapSense.c **** *
 591:.\Generated_Source\PSoC4/CapSense.c **** * Summary:
 592:.\Generated_Source\PSoC4/CapSense.c **** *  Sets the scan settings and starts scanning a widget.
 593:.\Generated_Source\PSoC4/CapSense.c **** *
 594:.\Generated_Source\PSoC4/CapSense.c **** * Parameters:
 595:.\Generated_Source\PSoC4/CapSense.c **** *  uint32 widget: Widget number.
 596:.\Generated_Source\PSoC4/CapSense.c **** *
 597:.\Generated_Source\PSoC4/CapSense.c **** * Return:
 598:.\Generated_Source\PSoC4/CapSense.c **** *  None
 599:.\Generated_Source\PSoC4/CapSense.c **** *
 600:.\Generated_Source\PSoC4/CapSense.c **** * Global Variables:
 601:.\Generated_Source\PSoC4/CapSense.c **** *  CapSense_csdStatusVar - used to provide the status and mode of the scanning process. 
 602:.\Generated_Source\PSoC4/CapSense.c **** *  Sets the busy status(scan in progress) and clears the single scan mode.
 603:.\Generated_Source\PSoC4/CapSense.c **** *  CapSense_sensorIndex - used to store a sensor scanning sensor number.
 604:.\Generated_Source\PSoC4/CapSense.c **** *  Sets to 0xFF and provided to function CapSense_FindNextSensor or
 605:.\Generated_Source\PSoC4/CapSense.c **** *  CapSense_sensorEnableMask[] - used to store bit masks of the enabled sensors.
 606:.\Generated_Source\PSoC4/CapSense.c **** *  CapSense_sensorEnableMaskBackup[] - used to backup bit masks of the enabled
 607:.\Generated_Source\PSoC4/CapSense.c **** *   sensors.
 608:.\Generated_Source\PSoC4/CapSense.c **** *
 609:.\Generated_Source\PSoC4/CapSense.c **** * Side Effects:
 610:.\Generated_Source\PSoC4/CapSense.c **** *  None
 611:.\Generated_Source\PSoC4/CapSense.c **** * 
 612:.\Generated_Source\PSoC4/CapSense.c **** *******************************************************************************/
 613:.\Generated_Source\PSoC4/CapSense.c **** void CapSense_ScanWidget(uint32 widget)
 614:.\Generated_Source\PSoC4/CapSense.c **** {
ARM GAS  C:\Users\merlin\AppData\Local\Temp\ccZOZwzR.s 			page 16


 615:.\Generated_Source\PSoC4/CapSense.c ****     uint32 sensorsPerWidget;
 616:.\Generated_Source\PSoC4/CapSense.c ****     uint32 lastSensor;
 617:.\Generated_Source\PSoC4/CapSense.c ****     uint32 snsIndex;
 618:.\Generated_Source\PSoC4/CapSense.c **** 
 619:.\Generated_Source\PSoC4/CapSense.c **** 	/* Get first sensor in widget */
 620:.\Generated_Source\PSoC4/CapSense.c **** 	CapSense_sensorIndex = CapSense_rawDataIndex[widget];
 621:.\Generated_Source\PSoC4/CapSense.c **** 	
 622:.\Generated_Source\PSoC4/CapSense.c **** 	/* Get number of sensors in widget */
 623:.\Generated_Source\PSoC4/CapSense.c **** 	sensorsPerWidget = CapSense_numberOfSensors[widget];
 624:.\Generated_Source\PSoC4/CapSense.c **** 	
 625:.\Generated_Source\PSoC4/CapSense.c **** 	/* Check if generic Sensor */
 626:.\Generated_Source\PSoC4/CapSense.c **** 	if(sensorsPerWidget == 0u)
 627:.\Generated_Source\PSoC4/CapSense.c **** 	{
 628:.\Generated_Source\PSoC4/CapSense.c **** 		sensorsPerWidget = 1u;
 629:.\Generated_Source\PSoC4/CapSense.c **** 	}
 630:.\Generated_Source\PSoC4/CapSense.c **** 	
 631:.\Generated_Source\PSoC4/CapSense.c **** 	/* Get last sensor in widget */
 632:.\Generated_Source\PSoC4/CapSense.c **** 	lastSensor = (CapSense_rawDataIndex[widget] + sensorsPerWidget) - 1u;
 633:.\Generated_Source\PSoC4/CapSense.c **** 
 634:.\Generated_Source\PSoC4/CapSense.c **** 	/* Backup sensorEnableMask array */
 635:.\Generated_Source\PSoC4/CapSense.c **** 	for(snsIndex = 0u; snsIndex < CapSense_TOTAL_SENSOR_MASK; snsIndex++)
 636:.\Generated_Source\PSoC4/CapSense.c **** 	{
 637:.\Generated_Source\PSoC4/CapSense.c **** 		/* Backup sensorEnableMask array */
 638:.\Generated_Source\PSoC4/CapSense.c **** 		CapSense_sensorEnableMaskBackup[snsIndex] = CapSense_sensorEnableMask[snsIndex];
 639:.\Generated_Source\PSoC4/CapSense.c **** 	}
 640:.\Generated_Source\PSoC4/CapSense.c **** 
 641:.\Generated_Source\PSoC4/CapSense.c **** 	/* Update sensorEnableMask to scan the sensors that belong to widget */
 642:.\Generated_Source\PSoC4/CapSense.c **** 	for(snsIndex = 0u; snsIndex < CapSense_TOTAL_SENSOR_COUNT; snsIndex++)
 643:.\Generated_Source\PSoC4/CapSense.c **** 	{
 644:.\Generated_Source\PSoC4/CapSense.c **** 		/* Update sensorEnableMask array bits to scan the widget only */ 
 645:.\Generated_Source\PSoC4/CapSense.c **** 	    if((snsIndex >= CapSense_sensorIndex) && (snsIndex <= lastSensor))
 646:.\Generated_Source\PSoC4/CapSense.c **** 		{
 647:.\Generated_Source\PSoC4/CapSense.c **** 		    /* Set sensor bit to scan */
 648:.\Generated_Source\PSoC4/CapSense.c **** 			CapSense_SetBitValue(CapSense_sensorEnableMask, snsIndex, 1u);
 649:.\Generated_Source\PSoC4/CapSense.c **** 		}
 650:.\Generated_Source\PSoC4/CapSense.c **** 		else
 651:.\Generated_Source\PSoC4/CapSense.c **** 		{
 652:.\Generated_Source\PSoC4/CapSense.c **** 		    /* Reset sensor bit to do not scan */
 653:.\Generated_Source\PSoC4/CapSense.c **** 		    CapSense_SetBitValue(CapSense_sensorEnableMask, snsIndex, 0u);
 654:.\Generated_Source\PSoC4/CapSense.c **** 		}
 655:.\Generated_Source\PSoC4/CapSense.c **** 	}
 656:.\Generated_Source\PSoC4/CapSense.c **** 
 657:.\Generated_Source\PSoC4/CapSense.c ****     /* Check end of scan condition */
 658:.\Generated_Source\PSoC4/CapSense.c ****     if(CapSense_sensorIndex < CapSense_TOTAL_SENSOR_COUNT)
 659:.\Generated_Source\PSoC4/CapSense.c ****     {
 660:.\Generated_Source\PSoC4/CapSense.c **** 		/* Set widget busy bit in status/control variable*/ 
 661:.\Generated_Source\PSoC4/CapSense.c **** 		CapSense_csdStatusVar = (CapSense_SW_STS_BUSY | CapSense_SW_CTRL_WIDGET_SCAN);
 662:.\Generated_Source\PSoC4/CapSense.c **** 		/* Scan first sensor of widget*/ 
 663:.\Generated_Source\PSoC4/CapSense.c ****         CapSense_PreScan((uint32)CapSense_sensorIndex);
 664:.\Generated_Source\PSoC4/CapSense.c ****     }
 665:.\Generated_Source\PSoC4/CapSense.c **** }
 666:.\Generated_Source\PSoC4/CapSense.c **** #endif /* (0u != CapSense_CSHL_API_GENERATE) */
 667:.\Generated_Source\PSoC4/CapSense.c **** 
 668:.\Generated_Source\PSoC4/CapSense.c **** 
 669:.\Generated_Source\PSoC4/CapSense.c **** /*******************************************************************************
 670:.\Generated_Source\PSoC4/CapSense.c **** * Function Name: CapSense_ScanEnableWidgets
 671:.\Generated_Source\PSoC4/CapSense.c **** ********************************************************************************
ARM GAS  C:\Users\merlin\AppData\Local\Temp\ccZOZwzR.s 			page 17


 672:.\Generated_Source\PSoC4/CapSense.c **** *
 673:.\Generated_Source\PSoC4/CapSense.c **** * Summary:
 674:.\Generated_Source\PSoC4/CapSense.c **** *  This is the preferred method to scan all of the enabled widgets. 
 675:.\Generated_Source\PSoC4/CapSense.c **** *  The API starts scanning a sensor within the enabled widgets. 
 676:.\Generated_Source\PSoC4/CapSense.c **** *  The ISR continues scanning the sensors until all the enabled widgets are scanned. 
 677:.\Generated_Source\PSoC4/CapSense.c **** *  Use of the ISR ensures this function is non-blocking.
 678:.\Generated_Source\PSoC4/CapSense.c **** *  All the widgets are enabled by default except proximity widgets. 
 679:.\Generated_Source\PSoC4/CapSense.c **** *  The proximity widgets must be manually enabled as their long scan time 
 680:.\Generated_Source\PSoC4/CapSense.c **** *  is incompatible with a fast response required of other widget types.
 681:.\Generated_Source\PSoC4/CapSense.c **** *
 682:.\Generated_Source\PSoC4/CapSense.c **** * Parameters:
 683:.\Generated_Source\PSoC4/CapSense.c **** *  None
 684:.\Generated_Source\PSoC4/CapSense.c **** *
 685:.\Generated_Source\PSoC4/CapSense.c **** * Return:
 686:.\Generated_Source\PSoC4/CapSense.c **** *  None
 687:.\Generated_Source\PSoC4/CapSense.c **** *
 688:.\Generated_Source\PSoC4/CapSense.c **** * Global Variables:
 689:.\Generated_Source\PSoC4/CapSense.c **** *  CapSense_csdStatusVar - used to provide the status and mode of the scanning process. 
 690:.\Generated_Source\PSoC4/CapSense.c **** *  Sets the busy status(scan in progress) and clears the single scan mode.
 691:.\Generated_Source\PSoC4/CapSense.c **** *  CapSense_sensorIndex - used to store a sensor scanning sensor number.
 692:.\Generated_Source\PSoC4/CapSense.c **** *  Sets to 0xFF and provided to function CapSense_FindNextSensor or
 693:.\Generated_Source\PSoC4/CapSense.c **** *
 694:.\Generated_Source\PSoC4/CapSense.c **** * Side Effects:
 695:.\Generated_Source\PSoC4/CapSense.c **** *  None
 696:.\Generated_Source\PSoC4/CapSense.c **** * 
 697:.\Generated_Source\PSoC4/CapSense.c **** *******************************************************************************/
 698:.\Generated_Source\PSoC4/CapSense.c **** void CapSense_ScanEnabledWidgets(void)
 699:.\Generated_Source\PSoC4/CapSense.c **** {
 700:.\Generated_Source\PSoC4/CapSense.c ****     /* Clears status/control variable and set sensorIndex */
 701:.\Generated_Source\PSoC4/CapSense.c ****     CapSense_csdStatusVar = 0u;
 702:.\Generated_Source\PSoC4/CapSense.c ****     CapSense_sensorIndex = 0xFFu;
 703:.\Generated_Source\PSoC4/CapSense.c ****     
 704:.\Generated_Source\PSoC4/CapSense.c ****     /* Find next sensor */
 705:.\Generated_Source\PSoC4/CapSense.c ****     CapSense_sensorIndex = (uint8)CapSense_FindNextSensor(CapSense_sensorIndex);
 706:.\Generated_Source\PSoC4/CapSense.c **** 
 707:.\Generated_Source\PSoC4/CapSense.c ****     /* Check end of scan condition */
 708:.\Generated_Source\PSoC4/CapSense.c ****     if(CapSense_sensorIndex < CapSense_TOTAL_SENSOR_COUNT)
 709:.\Generated_Source\PSoC4/CapSense.c ****     {
 710:.\Generated_Source\PSoC4/CapSense.c ****         CapSense_csdStatusVar |= CapSense_SW_STS_BUSY;
 711:.\Generated_Source\PSoC4/CapSense.c ****         CapSense_PreScan((uint32)CapSense_sensorIndex);
 712:.\Generated_Source\PSoC4/CapSense.c ****     }
 713:.\Generated_Source\PSoC4/CapSense.c **** }
 714:.\Generated_Source\PSoC4/CapSense.c **** 
 715:.\Generated_Source\PSoC4/CapSense.c **** 
 716:.\Generated_Source\PSoC4/CapSense.c **** /*******************************************************************************
 717:.\Generated_Source\PSoC4/CapSense.c **** * Function Name: CapSense_IsBusy
 718:.\Generated_Source\PSoC4/CapSense.c **** ********************************************************************************
 719:.\Generated_Source\PSoC4/CapSense.c **** *
 720:.\Generated_Source\PSoC4/CapSense.c **** * Summary:
 721:.\Generated_Source\PSoC4/CapSense.c **** *  Returns the state of the CapSense component. 1 means that scanning in 
 722:.\Generated_Source\PSoC4/CapSense.c **** *  progress and 0 means that scanning is complete.
 723:.\Generated_Source\PSoC4/CapSense.c **** *
 724:.\Generated_Source\PSoC4/CapSense.c **** * Parameters:
 725:.\Generated_Source\PSoC4/CapSense.c **** *  None
 726:.\Generated_Source\PSoC4/CapSense.c **** *
 727:.\Generated_Source\PSoC4/CapSense.c **** * Return:
 728:.\Generated_Source\PSoC4/CapSense.c **** *  Returns the state of scanning. 1 - scanning in progress, 0 - scanning 
ARM GAS  C:\Users\merlin\AppData\Local\Temp\ccZOZwzR.s 			page 18


 729:.\Generated_Source\PSoC4/CapSense.c **** *  completed.
 730:.\Generated_Source\PSoC4/CapSense.c **** *
 731:.\Generated_Source\PSoC4/CapSense.c **** * Global Variables:
 732:.\Generated_Source\PSoC4/CapSense.c **** *  CapSense_csdStatusVar - used to provide the status and mode of the scanning process. 
 733:.\Generated_Source\PSoC4/CapSense.c **** *  Checks the busy status.
 734:.\Generated_Source\PSoC4/CapSense.c **** *
 735:.\Generated_Source\PSoC4/CapSense.c **** * Side Effects:
 736:.\Generated_Source\PSoC4/CapSense.c **** *  None
 737:.\Generated_Source\PSoC4/CapSense.c **** * 
 738:.\Generated_Source\PSoC4/CapSense.c **** *******************************************************************************/
 739:.\Generated_Source\PSoC4/CapSense.c **** uint32 CapSense_IsBusy(void)
 740:.\Generated_Source\PSoC4/CapSense.c **** {
 242              		.loc 1 740 0
 243              		.cfi_startproc
 741:.\Generated_Source\PSoC4/CapSense.c ****     return ((uint32)((0u != (CapSense_csdStatusVar & CapSense_SW_STS_BUSY)) ? 1u : 0u));
 244              		.loc 1 741 0
 245 0000 024B     		ldr	r3, .L11
 246 0002 1878     		ldrb	r0, [r3]
 247 0004 0123     		mov	r3, #1
 248 0006 1840     		and	r0, r3
 742:.\Generated_Source\PSoC4/CapSense.c **** }
 249              		.loc 1 742 0
 250              		@ sp needed
 251 0008 7047     		bx	lr
 252              	.L12:
 253 000a C046     		.align	2
 254              	.L11:
 255 000c 00000000 		.word	.LANCHOR0
 256              		.cfi_endproc
 257              	.LFE43:
 258              		.size	CapSense_IsBusy, .-CapSense_IsBusy
 259              		.section	.text.CapSense_ReadSensorRaw,"ax",%progbits
 260              		.align	2
 261              		.global	CapSense_ReadSensorRaw
 262              		.code	16
 263              		.thumb_func
 264              		.type	CapSense_ReadSensorRaw, %function
 265              	CapSense_ReadSensorRaw:
 266              	.LFB44:
 743:.\Generated_Source\PSoC4/CapSense.c **** 
 744:.\Generated_Source\PSoC4/CapSense.c **** 
 745:.\Generated_Source\PSoC4/CapSense.c **** /*******************************************************************************
 746:.\Generated_Source\PSoC4/CapSense.c **** * Function Name: CapSense_ReadSensorRaw
 747:.\Generated_Source\PSoC4/CapSense.c **** ********************************************************************************
 748:.\Generated_Source\PSoC4/CapSense.c **** *
 749:.\Generated_Source\PSoC4/CapSense.c **** * Summary:
 750:.\Generated_Source\PSoC4/CapSense.c **** *  Returns sensor raw data from the global CapSense_sensorRaw[ ] array. 
 751:.\Generated_Source\PSoC4/CapSense.c **** *  Each scan sensor has a unique number within the sensor array. 
 752:.\Generated_Source\PSoC4/CapSense.c **** *  This number is assigned by the CapSense customizer in sequence. 
 753:.\Generated_Source\PSoC4/CapSense.c **** *  Raw data can be used to perform calculations outside of the CapSense 
 754:.\Generated_Source\PSoC4/CapSense.c **** *  provided framework.
 755:.\Generated_Source\PSoC4/CapSense.c **** *
 756:.\Generated_Source\PSoC4/CapSense.c **** * Parameters:
 757:.\Generated_Source\PSoC4/CapSense.c **** *  sensor:  Sensor number.
 758:.\Generated_Source\PSoC4/CapSense.c **** *
 759:.\Generated_Source\PSoC4/CapSense.c **** * Return:
 760:.\Generated_Source\PSoC4/CapSense.c **** *  Returns the current raw data value for a defined sensor number.
ARM GAS  C:\Users\merlin\AppData\Local\Temp\ccZOZwzR.s 			page 19


 761:.\Generated_Source\PSoC4/CapSense.c **** *
 762:.\Generated_Source\PSoC4/CapSense.c **** * Global Variables:
 763:.\Generated_Source\PSoC4/CapSense.c **** *  CapSense_sensorRaw[] - used to store sensors raw data.
 764:.\Generated_Source\PSoC4/CapSense.c **** *
 765:.\Generated_Source\PSoC4/CapSense.c **** * Side Effects: 
 766:.\Generated_Source\PSoC4/CapSense.c **** *  None
 767:.\Generated_Source\PSoC4/CapSense.c **** *
 768:.\Generated_Source\PSoC4/CapSense.c **** *******************************************************************************/
 769:.\Generated_Source\PSoC4/CapSense.c **** uint16 CapSense_ReadSensorRaw(uint32 sensor)
 770:.\Generated_Source\PSoC4/CapSense.c **** {
 267              		.loc 1 770 0
 268              		.cfi_startproc
 269              	.LVL27:
 771:.\Generated_Source\PSoC4/CapSense.c ****     return CapSense_sensorRaw[sensor];
 270              		.loc 1 771 0
 271 0000 4000     		lsl	r0, r0, #1
 272              	.LVL28:
 273 0002 024B     		ldr	r3, .L14
 274 0004 1818     		add	r0, r3, r0
 275 0006 8088     		ldrh	r0, [r0, #4]
 772:.\Generated_Source\PSoC4/CapSense.c **** }
 276              		.loc 1 772 0
 277              		@ sp needed
 278 0008 7047     		bx	lr
 279              	.L15:
 280 000a C046     		.align	2
 281              	.L14:
 282 000c 00000000 		.word	.LANCHOR0
 283              		.cfi_endproc
 284              	.LFE44:
 285              		.size	CapSense_ReadSensorRaw, .-CapSense_ReadSensorRaw
 286              		.section	.text.CapSense_WriteSensorRaw,"ax",%progbits
 287              		.align	2
 288              		.global	CapSense_WriteSensorRaw
 289              		.code	16
 290              		.thumb_func
 291              		.type	CapSense_WriteSensorRaw, %function
 292              	CapSense_WriteSensorRaw:
 293              	.LFB45:
 773:.\Generated_Source\PSoC4/CapSense.c **** 
 774:.\Generated_Source\PSoC4/CapSense.c **** 
 775:.\Generated_Source\PSoC4/CapSense.c **** /*******************************************************************************
 776:.\Generated_Source\PSoC4/CapSense.c **** * Function Name: CapSense_WriteSensorRaw
 777:.\Generated_Source\PSoC4/CapSense.c **** ********************************************************************************
 778:.\Generated_Source\PSoC4/CapSense.c **** *
 779:.\Generated_Source\PSoC4/CapSense.c **** * Summary:
 780:.\Generated_Source\PSoC4/CapSense.c **** *  This API writes the raw count value passed as an argument to the sensor Raw count array.
 781:.\Generated_Source\PSoC4/CapSense.c **** *
 782:.\Generated_Source\PSoC4/CapSense.c **** * Parameters:
 783:.\Generated_Source\PSoC4/CapSense.c **** *  sensor:  Sensor number.
 784:.\Generated_Source\PSoC4/CapSense.c **** *  value: Raw count value.
 785:.\Generated_Source\PSoC4/CapSense.c **** *
 786:.\Generated_Source\PSoC4/CapSense.c **** * Global Variables:
 787:.\Generated_Source\PSoC4/CapSense.c **** *  CapSense_sensorRaw[] - used to store sensors raw data.
 788:.\Generated_Source\PSoC4/CapSense.c **** *
 789:.\Generated_Source\PSoC4/CapSense.c **** * Return:
 790:.\Generated_Source\PSoC4/CapSense.c **** *  None
ARM GAS  C:\Users\merlin\AppData\Local\Temp\ccZOZwzR.s 			page 20


 791:.\Generated_Source\PSoC4/CapSense.c **** *
 792:.\Generated_Source\PSoC4/CapSense.c **** * Side Effects: 
 793:.\Generated_Source\PSoC4/CapSense.c **** *  None
 794:.\Generated_Source\PSoC4/CapSense.c **** *
 795:.\Generated_Source\PSoC4/CapSense.c **** *******************************************************************************/
 796:.\Generated_Source\PSoC4/CapSense.c **** void CapSense_WriteSensorRaw(uint32 sensor, uint16 value)
 797:.\Generated_Source\PSoC4/CapSense.c **** {
 294              		.loc 1 797 0
 295              		.cfi_startproc
 296              	.LVL29:
 798:.\Generated_Source\PSoC4/CapSense.c **** 	CapSense_sensorRaw[sensor] = value;
 297              		.loc 1 798 0
 298 0000 4000     		lsl	r0, r0, #1
 299              	.LVL30:
 300 0002 024B     		ldr	r3, .L17
 301 0004 1818     		add	r0, r3, r0
 302 0006 8180     		strh	r1, [r0, #4]
 799:.\Generated_Source\PSoC4/CapSense.c **** }
 303              		.loc 1 799 0
 304              		@ sp needed
 305 0008 7047     		bx	lr
 306              	.L18:
 307 000a C046     		.align	2
 308              	.L17:
 309 000c 00000000 		.word	.LANCHOR0
 310              		.cfi_endproc
 311              	.LFE45:
 312              		.size	CapSense_WriteSensorRaw, .-CapSense_WriteSensorRaw
 313              		.section	.text.CapSense_SetScanResolution,"ax",%progbits
 314              		.align	2
 315              		.global	CapSense_SetScanResolution
 316              		.code	16
 317              		.thumb_func
 318              		.type	CapSense_SetScanResolution, %function
 319              	CapSense_SetScanResolution:
 320              	.LFB46:
 800:.\Generated_Source\PSoC4/CapSense.c **** 
 801:.\Generated_Source\PSoC4/CapSense.c **** 
 802:.\Generated_Source\PSoC4/CapSense.c **** #if (CapSense_TUNING_METHOD != CapSense__TUNING_NONE)
 803:.\Generated_Source\PSoC4/CapSense.c **** 	/*******************************************************************************
 804:.\Generated_Source\PSoC4/CapSense.c **** 	* Function Name: CapSense_SetScanResolution
 805:.\Generated_Source\PSoC4/CapSense.c **** 	********************************************************************************
 806:.\Generated_Source\PSoC4/CapSense.c **** 	*
 807:.\Generated_Source\PSoC4/CapSense.c **** 	* Summary:
 808:.\Generated_Source\PSoC4/CapSense.c **** 	*  Sets a value of the sensor scan resolution for a widget. 
 809:.\Generated_Source\PSoC4/CapSense.c **** 	*  The MIN resolution can be set 8-bit. The MAX Resolution can be set 16 bit.
 810:.\Generated_Source\PSoC4/CapSense.c **** 	*  This function is not available for the tuning mode "None".
 811:.\Generated_Source\PSoC4/CapSense.c **** 	*
 812:.\Generated_Source\PSoC4/CapSense.c **** 	* Parameters:
 813:.\Generated_Source\PSoC4/CapSense.c **** 	*  widget:     Widget index.
 814:.\Generated_Source\PSoC4/CapSense.c **** 	*  resolution: Represents the resolution value. The following defines which are available in the
 815:.\Generated_Source\PSoC4/CapSense.c **** 	*			   CapSense.h file should be used:
 816:.\Generated_Source\PSoC4/CapSense.c **** 	*			   CapSense_RESOLUTION_6_BITS
 817:.\Generated_Source\PSoC4/CapSense.c **** 	*			   CapSense_RESOLUTION_7_BITS
 818:.\Generated_Source\PSoC4/CapSense.c **** 	*			   CapSense_RESOLUTION_8_BITS
 819:.\Generated_Source\PSoC4/CapSense.c **** 	*			   CapSense_RESOLUTION_9_BITS
 820:.\Generated_Source\PSoC4/CapSense.c **** 	*			   CapSense_RESOLUTION_10_BITS
ARM GAS  C:\Users\merlin\AppData\Local\Temp\ccZOZwzR.s 			page 21


 821:.\Generated_Source\PSoC4/CapSense.c **** 	*			   CapSense_RESOLUTION_11_BITS
 822:.\Generated_Source\PSoC4/CapSense.c **** 	*			   CapSense_RESOLUTION_12_BITS
 823:.\Generated_Source\PSoC4/CapSense.c **** 	*			   CapSense_RESOLUTION_13_BITS
 824:.\Generated_Source\PSoC4/CapSense.c **** 	*			   CapSense_RESOLUTION_14_BITS
 825:.\Generated_Source\PSoC4/CapSense.c **** 	*			   CapSense_RESOLUTION_15_BITS
 826:.\Generated_Source\PSoC4/CapSense.c **** 	*			   CapSense_RESOLUTION_16_BITS
 827:.\Generated_Source\PSoC4/CapSense.c **** 	*
 828:.\Generated_Source\PSoC4/CapSense.c **** 	* Return:
 829:.\Generated_Source\PSoC4/CapSense.c **** 	*  None
 830:.\Generated_Source\PSoC4/CapSense.c **** 	*
 831:.\Generated_Source\PSoC4/CapSense.c **** 	* Global Variables:
 832:.\Generated_Source\PSoC4/CapSense.c **** 	*  CapSense_widgetResolution[] - used to store scan resolution of each widget.
 833:.\Generated_Source\PSoC4/CapSense.c **** 	*
 834:.\Generated_Source\PSoC4/CapSense.c **** 	* Side Effects: 
 835:.\Generated_Source\PSoC4/CapSense.c **** 	*  None
 836:.\Generated_Source\PSoC4/CapSense.c **** 	*
 837:.\Generated_Source\PSoC4/CapSense.c **** 	*******************************************************************************/
 838:.\Generated_Source\PSoC4/CapSense.c **** 	void CapSense_SetScanResolution(uint32 widget, uint32 resolution)
 839:.\Generated_Source\PSoC4/CapSense.c **** 	{ 
 321              		.loc 1 839 0
 322              		.cfi_startproc
 323              	.LVL31:
 840:.\Generated_Source\PSoC4/CapSense.c ****         CapSense_widgetResolution[widget] = resolution;
 324              		.loc 1 840 0
 325 0000 8000     		lsl	r0, r0, #2
 326              	.LVL32:
 327 0002 014B     		ldr	r3, .L20
 328 0004 C150     		str	r1, [r0, r3]
 841:.\Generated_Source\PSoC4/CapSense.c **** 	}
 329              		.loc 1 841 0
 330              		@ sp needed
 331 0006 7047     		bx	lr
 332              	.L21:
 333              		.align	2
 334              	.L20:
 335 0008 00000000 		.word	.LANCHOR1
 336              		.cfi_endproc
 337              	.LFE46:
 338              		.size	CapSense_SetScanResolution, .-CapSense_SetScanResolution
 339              		.section	.text.CapSense_GetScanResolution,"ax",%progbits
 340              		.align	2
 341              		.global	CapSense_GetScanResolution
 342              		.code	16
 343              		.thumb_func
 344              		.type	CapSense_GetScanResolution, %function
 345              	CapSense_GetScanResolution:
 346              	.LFB47:
 842:.\Generated_Source\PSoC4/CapSense.c **** #endif /* (CapSense_TUNING_METHOD != CapSense__TUNING_NONE) */
 843:.\Generated_Source\PSoC4/CapSense.c **** 
 844:.\Generated_Source\PSoC4/CapSense.c **** 
 845:.\Generated_Source\PSoC4/CapSense.c **** /*******************************************************************************
 846:.\Generated_Source\PSoC4/CapSense.c **** * Function Name: CapSense_GetScanResolution
 847:.\Generated_Source\PSoC4/CapSense.c **** ********************************************************************************
 848:.\Generated_Source\PSoC4/CapSense.c **** *
 849:.\Generated_Source\PSoC4/CapSense.c **** * Summary:
 850:.\Generated_Source\PSoC4/CapSense.c **** *  Returns the resolution value for the appropriate sensor.
 851:.\Generated_Source\PSoC4/CapSense.c **** *  This function is not available for tuning mode "None".
ARM GAS  C:\Users\merlin\AppData\Local\Temp\ccZOZwzR.s 			page 22


 852:.\Generated_Source\PSoC4/CapSense.c **** *
 853:.\Generated_Source\PSoC4/CapSense.c **** * Parameters:
 854:.\Generated_Source\PSoC4/CapSense.c **** *  widget:     Widget index.
 855:.\Generated_Source\PSoC4/CapSense.c **** *
 856:.\Generated_Source\PSoC4/CapSense.c **** * Return:
 857:.\Generated_Source\PSoC4/CapSense.c **** *  resolution: Returns the resolution value for the appropriate sensor. 
 858:.\Generated_Source\PSoC4/CapSense.c **** *              The resolution values are defined in the CapSense.h file 
 859:.\Generated_Source\PSoC4/CapSense.c **** *              The defines are encountered below:
 860:.\Generated_Source\PSoC4/CapSense.c **** *			   CapSense_RESOLUTION_6_BITS
 861:.\Generated_Source\PSoC4/CapSense.c **** *			   CapSense_RESOLUTION_7_BITS
 862:.\Generated_Source\PSoC4/CapSense.c **** *			   CapSense_RESOLUTION_8_BITS
 863:.\Generated_Source\PSoC4/CapSense.c **** *			   CapSense_RESOLUTION_9_BITS
 864:.\Generated_Source\PSoC4/CapSense.c **** *			   CapSense_RESOLUTION_10_BITS
 865:.\Generated_Source\PSoC4/CapSense.c **** *			   CapSense_RESOLUTION_11_BITS
 866:.\Generated_Source\PSoC4/CapSense.c **** *			   CapSense_RESOLUTION_12_BITS
 867:.\Generated_Source\PSoC4/CapSense.c **** *			   CapSense_RESOLUTION_13_BITS
 868:.\Generated_Source\PSoC4/CapSense.c **** *			   CapSense_RESOLUTION_14_BITS
 869:.\Generated_Source\PSoC4/CapSense.c **** *			   CapSense_RESOLUTION_15_BITS
 870:.\Generated_Source\PSoC4/CapSense.c **** *			   CapSense_RESOLUTION_16_BITS
 871:.\Generated_Source\PSoC4/CapSense.c **** *
 872:.\Generated_Source\PSoC4/CapSense.c **** * Global Variables:
 873:.\Generated_Source\PSoC4/CapSense.c **** *  CapSense_widgetResolution[] - used to store scan resolution of every widget.
 874:.\Generated_Source\PSoC4/CapSense.c **** *
 875:.\Generated_Source\PSoC4/CapSense.c **** * Side Effects: 
 876:.\Generated_Source\PSoC4/CapSense.c **** *  None
 877:.\Generated_Source\PSoC4/CapSense.c **** *
 878:.\Generated_Source\PSoC4/CapSense.c **** *******************************************************************************/
 879:.\Generated_Source\PSoC4/CapSense.c **** uint32 CapSense_GetScanResolution(uint32 widget)
 880:.\Generated_Source\PSoC4/CapSense.c **** {
 347              		.loc 1 880 0
 348              		.cfi_startproc
 349              	.LVL33:
 881:.\Generated_Source\PSoC4/CapSense.c **** 	return(CapSense_widgetResolution[widget]);
 350              		.loc 1 881 0
 351 0000 8000     		lsl	r0, r0, #2
 352              	.LVL34:
 353 0002 014B     		ldr	r3, .L23
 354 0004 C058     		ldr	r0, [r0, r3]
 882:.\Generated_Source\PSoC4/CapSense.c **** }
 355              		.loc 1 882 0
 356              		@ sp needed
 357 0006 7047     		bx	lr
 358              	.L24:
 359              		.align	2
 360              	.L23:
 361 0008 00000000 		.word	.LANCHOR1
 362              		.cfi_endproc
 363              	.LFE47:
 364              		.size	CapSense_GetScanResolution, .-CapSense_GetScanResolution
 365              		.section	.text.CapSense_EnableSensor,"ax",%progbits
 366              		.align	2
 367              		.global	CapSense_EnableSensor
 368              		.code	16
 369              		.thumb_func
 370              		.type	CapSense_EnableSensor, %function
 371              	CapSense_EnableSensor:
 372              	.LFB49:
ARM GAS  C:\Users\merlin\AppData\Local\Temp\ccZOZwzR.s 			page 23


 883:.\Generated_Source\PSoC4/CapSense.c **** 
 884:.\Generated_Source\PSoC4/CapSense.c **** 
 885:.\Generated_Source\PSoC4/CapSense.c **** /*******************************************************************************
 886:.\Generated_Source\PSoC4/CapSense.c **** * Function Name: CapSense_ClearSensors
 887:.\Generated_Source\PSoC4/CapSense.c **** ********************************************************************************
 888:.\Generated_Source\PSoC4/CapSense.c **** *
 889:.\Generated_Source\PSoC4/CapSense.c **** * Summary:
 890:.\Generated_Source\PSoC4/CapSense.c **** *  Resets all the sensors to the non-sampling state by sequentially disconnecting
 891:.\Generated_Source\PSoC4/CapSense.c **** *  all the sensors from Analog MUX Bus and putting them to an inactive state.
 892:.\Generated_Source\PSoC4/CapSense.c **** *
 893:.\Generated_Source\PSoC4/CapSense.c **** * Parameters:
 894:.\Generated_Source\PSoC4/CapSense.c **** *  None
 895:.\Generated_Source\PSoC4/CapSense.c **** *
 896:.\Generated_Source\PSoC4/CapSense.c **** * Return:
 897:.\Generated_Source\PSoC4/CapSense.c **** *  None
 898:.\Generated_Source\PSoC4/CapSense.c **** *
 899:.\Generated_Source\PSoC4/CapSense.c **** * Global Variables:
 900:.\Generated_Source\PSoC4/CapSense.c **** *  None
 901:.\Generated_Source\PSoC4/CapSense.c **** *
 902:.\Generated_Source\PSoC4/CapSense.c **** * Side Effects: 
 903:.\Generated_Source\PSoC4/CapSense.c **** *  None
 904:.\Generated_Source\PSoC4/CapSense.c **** *
 905:.\Generated_Source\PSoC4/CapSense.c **** *******************************************************************************/
 906:.\Generated_Source\PSoC4/CapSense.c **** void CapSense_ClearSensors(void)
 907:.\Generated_Source\PSoC4/CapSense.c **** {
 908:.\Generated_Source\PSoC4/CapSense.c **** 	uint32 snsIndex;
 909:.\Generated_Source\PSoC4/CapSense.c **** 	
 910:.\Generated_Source\PSoC4/CapSense.c ****     for (snsIndex = 0u; snsIndex < CapSense_TOTAL_SENSOR_COUNT; snsIndex++)
 911:.\Generated_Source\PSoC4/CapSense.c ****     {
 912:.\Generated_Source\PSoC4/CapSense.c ****         CapSense_DisableScanSlot(snsIndex);
 913:.\Generated_Source\PSoC4/CapSense.c ****     }
 914:.\Generated_Source\PSoC4/CapSense.c **** }
 915:.\Generated_Source\PSoC4/CapSense.c **** 
 916:.\Generated_Source\PSoC4/CapSense.c **** 
 917:.\Generated_Source\PSoC4/CapSense.c **** #if (CapSense_IS_COMPLEX_SCANSLOTS)
 918:.\Generated_Source\PSoC4/CapSense.c ****     /*******************************************************************************
 919:.\Generated_Source\PSoC4/CapSense.c ****     * Function Name: CapSense_EnableScanSlot
 920:.\Generated_Source\PSoC4/CapSense.c ****     ********************************************************************************
 921:.\Generated_Source\PSoC4/CapSense.c ****     *
 922:.\Generated_Source\PSoC4/CapSense.c ****     * Summary:
 923:.\Generated_Source\PSoC4/CapSense.c ****     *  Configures the selected slot to measure during the next measurement 
 924:.\Generated_Source\PSoC4/CapSense.c ****     *  cycle. The corresponding pin/pins are set to Analog High-Z mode and 
 925:.\Generated_Source\PSoC4/CapSense.c ****     *  connected to the Analog Mux Bus. This also enables the comparator function.
 926:.\Generated_Source\PSoC4/CapSense.c ****     *
 927:.\Generated_Source\PSoC4/CapSense.c ****     * Parameters:
 928:.\Generated_Source\PSoC4/CapSense.c ****     *  slot:  Slot number.
 929:.\Generated_Source\PSoC4/CapSense.c ****     *
 930:.\Generated_Source\PSoC4/CapSense.c ****     * Return:
 931:.\Generated_Source\PSoC4/CapSense.c ****     *  None
 932:.\Generated_Source\PSoC4/CapSense.c ****     *
 933:.\Generated_Source\PSoC4/CapSense.c ****     * Global Constants:
 934:.\Generated_Source\PSoC4/CapSense.c ****     *  CapSense_portTable[]  - used to store the port number that pin 
 935:.\Generated_Source\PSoC4/CapSense.c ****     *  belongs to for each sensor.
 936:.\Generated_Source\PSoC4/CapSense.c ****     *  CapSense_maskTable[]  - used to store the pin within the port for 
 937:.\Generated_Source\PSoC4/CapSense.c ****     *  each sensor.
 938:.\Generated_Source\PSoC4/CapSense.c ****     *  CapSense_indexTable[] - used to store indexes of complex sensors.
 939:.\Generated_Source\PSoC4/CapSense.c ****     *  The offset and position in this array are stored in a port and mask table for 
ARM GAS  C:\Users\merlin\AppData\Local\Temp\ccZOZwzR.s 			page 24


 940:.\Generated_Source\PSoC4/CapSense.c ****     *  complex sensors.
 941:.\Generated_Source\PSoC4/CapSense.c ****     *  Bit 7 (msb) is used to define the sensor type: single or complex.
 942:.\Generated_Source\PSoC4/CapSense.c ****     *
 943:.\Generated_Source\PSoC4/CapSense.c **** 	* Side Effects: 
 944:.\Generated_Source\PSoC4/CapSense.c **** 	*  None
 945:.\Generated_Source\PSoC4/CapSense.c **** 	*
 946:.\Generated_Source\PSoC4/CapSense.c ****     *******************************************************************************/
 947:.\Generated_Source\PSoC4/CapSense.c ****     void CapSense_EnableScanSlot(uint32 slot)
 948:.\Generated_Source\PSoC4/CapSense.c ****     {
 949:.\Generated_Source\PSoC4/CapSense.c ****         uint8 j;
 950:.\Generated_Source\PSoC4/CapSense.c ****         uint8 snsNumber;
 951:.\Generated_Source\PSoC4/CapSense.c ****         const uint8 *index;
 952:.\Generated_Source\PSoC4/CapSense.c ****         /* Read sensor type: single or complex */
 953:.\Generated_Source\PSoC4/CapSense.c ****         uint8 snsType = CapSense_portTable[slot];
 954:.\Generated_Source\PSoC4/CapSense.c **** 
 955:.\Generated_Source\PSoC4/CapSense.c ****         /* Check if sensor is complex */
 956:.\Generated_Source\PSoC4/CapSense.c ****         if ((snsType & CapSense_COMPLEX_SS_FLAG) == 0u)
 957:.\Generated_Source\PSoC4/CapSense.c ****         {
 958:.\Generated_Source\PSoC4/CapSense.c ****             /* Enable sensor (single) */
 959:.\Generated_Source\PSoC4/CapSense.c ****             CapSense_EnableSensor(slot);
 960:.\Generated_Source\PSoC4/CapSense.c ****         }
 961:.\Generated_Source\PSoC4/CapSense.c ****         else
 962:.\Generated_Source\PSoC4/CapSense.c ****         {
 963:.\Generated_Source\PSoC4/CapSense.c ****             /* Enable complex sensor */
 964:.\Generated_Source\PSoC4/CapSense.c ****             snsType &= ~CapSense_COMPLEX_SS_FLAG;
 965:.\Generated_Source\PSoC4/CapSense.c ****             index = &CapSense_indexTable[snsType];
 966:.\Generated_Source\PSoC4/CapSense.c ****             snsNumber = CapSense_maskTable[slot];
 967:.\Generated_Source\PSoC4/CapSense.c ****                         
 968:.\Generated_Source\PSoC4/CapSense.c ****             for (j = 0u; j < snsNumber; j++)
 969:.\Generated_Source\PSoC4/CapSense.c ****             {
 970:.\Generated_Source\PSoC4/CapSense.c ****                 CapSense_EnableSensor(index[j]);
 971:.\Generated_Source\PSoC4/CapSense.c ****             }
 972:.\Generated_Source\PSoC4/CapSense.c ****         }
 973:.\Generated_Source\PSoC4/CapSense.c ****     }
 974:.\Generated_Source\PSoC4/CapSense.c ****     
 975:.\Generated_Source\PSoC4/CapSense.c ****     
 976:.\Generated_Source\PSoC4/CapSense.c ****     /*******************************************************************************
 977:.\Generated_Source\PSoC4/CapSense.c ****     * Function Name: CapSense_DisableScanSlot
 978:.\Generated_Source\PSoC4/CapSense.c ****     ********************************************************************************
 979:.\Generated_Source\PSoC4/CapSense.c ****     *
 980:.\Generated_Source\PSoC4/CapSense.c ****     * Summary:
 981:.\Generated_Source\PSoC4/CapSense.c ****     *  Disables the selected slot. The corresponding pin/pins is/are disconnected 
 982:.\Generated_Source\PSoC4/CapSense.c ****     *  from the Analog Mux Bus and connected to GND, High_Z or Shield electrode.
 983:.\Generated_Source\PSoC4/CapSense.c ****     *
 984:.\Generated_Source\PSoC4/CapSense.c ****     * Parameters:
 985:.\Generated_Source\PSoC4/CapSense.c ****     *  slot:  Slot number.
 986:.\Generated_Source\PSoC4/CapSense.c ****     *
 987:.\Generated_Source\PSoC4/CapSense.c ****     * Return:
 988:.\Generated_Source\PSoC4/CapSense.c ****     *  None
 989:.\Generated_Source\PSoC4/CapSense.c ****     *
 990:.\Generated_Source\PSoC4/CapSense.c ****     * Global Variables:
 991:.\Generated_Source\PSoC4/CapSense.c ****     *  CapSense_portTable[]  - used to store the port number that pin 
 992:.\Generated_Source\PSoC4/CapSense.c ****     *  belongs to for each sensor.
 993:.\Generated_Source\PSoC4/CapSense.c ****     *  CapSense_maskTable[]  - used to store the pin within the port for 
 994:.\Generated_Source\PSoC4/CapSense.c ****     *  each sensor.
 995:.\Generated_Source\PSoC4/CapSense.c ****     *  CapSense_indexTable[] - used to store indexes of complex sensors.
 996:.\Generated_Source\PSoC4/CapSense.c ****     *  The offset and position in this array are stored in a port and mask table for 
ARM GAS  C:\Users\merlin\AppData\Local\Temp\ccZOZwzR.s 			page 25


 997:.\Generated_Source\PSoC4/CapSense.c ****     *  complex sensors.
 998:.\Generated_Source\PSoC4/CapSense.c ****     *  7bit(msb) is used to define the sensor type: single or complex.
 999:.\Generated_Source\PSoC4/CapSense.c ****     *
1000:.\Generated_Source\PSoC4/CapSense.c **** 	* Side Effects: 
1001:.\Generated_Source\PSoC4/CapSense.c **** 	*  None
1002:.\Generated_Source\PSoC4/CapSense.c **** 	*
1003:.\Generated_Source\PSoC4/CapSense.c ****     *******************************************************************************/
1004:.\Generated_Source\PSoC4/CapSense.c ****     void CapSense_DisableScanSlot(uint32 slot)
1005:.\Generated_Source\PSoC4/CapSense.c ****     {
1006:.\Generated_Source\PSoC4/CapSense.c ****         uint8 j;
1007:.\Generated_Source\PSoC4/CapSense.c ****         uint8 snsNumber;
1008:.\Generated_Source\PSoC4/CapSense.c ****         const uint8 *index;
1009:.\Generated_Source\PSoC4/CapSense.c **** 
1010:.\Generated_Source\PSoC4/CapSense.c ****         /* Read sensor type: single or complex */
1011:.\Generated_Source\PSoC4/CapSense.c ****         uint8 snsType = CapSense_portTable[slot];
1012:.\Generated_Source\PSoC4/CapSense.c ****         
1013:.\Generated_Source\PSoC4/CapSense.c ****         /* Check if sensor is complex */
1014:.\Generated_Source\PSoC4/CapSense.c ****         if ((snsType & CapSense_COMPLEX_SS_FLAG) == 0u)
1015:.\Generated_Source\PSoC4/CapSense.c ****         {
1016:.\Generated_Source\PSoC4/CapSense.c ****             /* Disable sensor (single) */
1017:.\Generated_Source\PSoC4/CapSense.c ****             CapSense_DisableSensor(slot);
1018:.\Generated_Source\PSoC4/CapSense.c ****         }
1019:.\Generated_Source\PSoC4/CapSense.c ****         else
1020:.\Generated_Source\PSoC4/CapSense.c ****         {
1021:.\Generated_Source\PSoC4/CapSense.c ****             /* Disable complex sensor */
1022:.\Generated_Source\PSoC4/CapSense.c ****             snsType &= ~CapSense_COMPLEX_SS_FLAG;
1023:.\Generated_Source\PSoC4/CapSense.c ****             index = &CapSense_indexTable[snsType];
1024:.\Generated_Source\PSoC4/CapSense.c ****             snsNumber = CapSense_maskTable[slot];
1025:.\Generated_Source\PSoC4/CapSense.c ****                         
1026:.\Generated_Source\PSoC4/CapSense.c ****             for (j=0; j < snsNumber; j++)
1027:.\Generated_Source\PSoC4/CapSense.c ****             {
1028:.\Generated_Source\PSoC4/CapSense.c ****                 CapSense_DisableSensor(index[j]);
1029:.\Generated_Source\PSoC4/CapSense.c ****             }
1030:.\Generated_Source\PSoC4/CapSense.c ****         } 
1031:.\Generated_Source\PSoC4/CapSense.c ****     }
1032:.\Generated_Source\PSoC4/CapSense.c **** #endif  /* CapSense_IS_COMPLEX_SCANSLOTS */
1033:.\Generated_Source\PSoC4/CapSense.c **** 
1034:.\Generated_Source\PSoC4/CapSense.c **** 
1035:.\Generated_Source\PSoC4/CapSense.c **** /*******************************************************************************
1036:.\Generated_Source\PSoC4/CapSense.c **** * Function Name: CapSense_EnableSensor
1037:.\Generated_Source\PSoC4/CapSense.c **** ********************************************************************************
1038:.\Generated_Source\PSoC4/CapSense.c **** *
1039:.\Generated_Source\PSoC4/CapSense.c **** * Summary:
1040:.\Generated_Source\PSoC4/CapSense.c **** *  Configures the selected sensor to measure during the next measurement cycle.
1041:.\Generated_Source\PSoC4/CapSense.c **** *  The corresponding pins are set to Analog High-Z mode and connected to the
1042:.\Generated_Source\PSoC4/CapSense.c **** *  Analog Mux Bus. This also enables the comparator function.
1043:.\Generated_Source\PSoC4/CapSense.c **** *
1044:.\Generated_Source\PSoC4/CapSense.c **** * Parameters:
1045:.\Generated_Source\PSoC4/CapSense.c **** *  sensor:  Sensor number.
1046:.\Generated_Source\PSoC4/CapSense.c **** *
1047:.\Generated_Source\PSoC4/CapSense.c **** * Return:
1048:.\Generated_Source\PSoC4/CapSense.c **** *  None
1049:.\Generated_Source\PSoC4/CapSense.c **** *
1050:.\Generated_Source\PSoC4/CapSense.c **** * Global Variables:
1051:.\Generated_Source\PSoC4/CapSense.c **** *  CapSense_portTable[] - used to store the port number that pin 
1052:.\Generated_Source\PSoC4/CapSense.c **** *  belongs to for each sensor.
1053:.\Generated_Source\PSoC4/CapSense.c **** *  CapSense_pinShiftTbl[] - used to store position of pin that 
ARM GAS  C:\Users\merlin\AppData\Local\Temp\ccZOZwzR.s 			page 26


1054:.\Generated_Source\PSoC4/CapSense.c **** *  configured as sensor in port. 
1055:.\Generated_Source\PSoC4/CapSense.c **** *  CapSense_prtSelTbl[] - Contains pointers to the HSIOM 
1056:.\Generated_Source\PSoC4/CapSense.c **** *  registers for each port. 
1057:.\Generated_Source\PSoC4/CapSense.c **** *  CapSense_PrtCfgTb[] - Contains pointers to the port config 
1058:.\Generated_Source\PSoC4/CapSense.c **** *  registers for each port.
1059:.\Generated_Source\PSoC4/CapSense.c **** *
1060:.\Generated_Source\PSoC4/CapSense.c **** * Side Effects: 
1061:.\Generated_Source\PSoC4/CapSense.c **** *  None
1062:.\Generated_Source\PSoC4/CapSense.c **** *
1063:.\Generated_Source\PSoC4/CapSense.c **** *******************************************************************************/
1064:.\Generated_Source\PSoC4/CapSense.c **** void CapSense_EnableSensor(uint32 sensor)
1065:.\Generated_Source\PSoC4/CapSense.c **** {
 373              		.loc 1 1065 0
 374              		.cfi_startproc
 375              	.LVL35:
 376 0000 38B5     		push	{r3, r4, r5, lr}
 377              		.cfi_def_cfa_offset 16
 378              		.cfi_offset 3, -16
 379              		.cfi_offset 4, -12
 380              		.cfi_offset 5, -8
 381              		.cfi_offset 14, -4
 382              	.LVL36:
1066:.\Generated_Source\PSoC4/CapSense.c **** 	uint8  pinModeShift;
1067:.\Generated_Source\PSoC4/CapSense.c ****     uint8  pinHSIOMShift;
1068:.\Generated_Source\PSoC4/CapSense.c **** 	uint8 interruptState;
1069:.\Generated_Source\PSoC4/CapSense.c **** 	uint32 newRegisterValue;
1070:.\Generated_Source\PSoC4/CapSense.c ****     uint32 port;
1071:.\Generated_Source\PSoC4/CapSense.c **** 	
1072:.\Generated_Source\PSoC4/CapSense.c **** 	port = (uint32) CapSense_portTable[sensor];
1073:.\Generated_Source\PSoC4/CapSense.c ****     pinModeShift = CapSense_pinShiftTbl[sensor]  * CapSense_PC_PIN_CFG_SIZE;
1074:.\Generated_Source\PSoC4/CapSense.c ****     pinHSIOMShift = CapSense_pinShiftTbl[sensor] * CapSense_HSIOM_PIN_CFG_SIZE;
1075:.\Generated_Source\PSoC4/CapSense.c **** 
1076:.\Generated_Source\PSoC4/CapSense.c **** 	interruptState = CyEnterCriticalSection();
 383              		.loc 1 1076 0
 384 0002 FFF7FEFF 		bl	CyEnterCriticalSection
 385              	.LVL37:
1077:.\Generated_Source\PSoC4/CapSense.c **** 	
1078:.\Generated_Source\PSoC4/CapSense.c **** 	newRegisterValue = *CapSense_prtSelTbl[port];
 386              		.loc 1 1078 0
 387 0006 0849     		ldr	r1, .L26
 388 0008 0B68     		ldr	r3, [r1]
 389              	.LVL38:
1079:.\Generated_Source\PSoC4/CapSense.c **** 	newRegisterValue &= ~(CapSense_CSD_HSIOM_MASK << pinHSIOMShift);
 390              		.loc 1 1079 0
 391 000a 1B01     		lsl	r3, r3, #4
 392              	.LVL39:
 393 000c 1B09     		lsr	r3, r3, #4
 394              	.LVL40:
1080:.\Generated_Source\PSoC4/CapSense.c **** 	newRegisterValue |= (uint32)((uint32)CapSense_CSD_SENSE_PORT_MODE << pinHSIOMShift);
 395              		.loc 1 1080 0
 396 000e 8022     		mov	r2, #128
 397 0010 D205     		lsl	r2, r2, #23
 398 0012 1343     		orr	r3, r2
 399              	.LVL41:
1081:.\Generated_Source\PSoC4/CapSense.c ****    
1082:.\Generated_Source\PSoC4/CapSense.c ****     *CapSense_prtCfgTbl[port] &= (uint32)~((uint32)CapSense_CSD_PIN_MODE_MASK << pinModeShift);
 400              		.loc 1 1082 0
ARM GAS  C:\Users\merlin\AppData\Local\Temp\ccZOZwzR.s 			page 27


 401 0014 054C     		ldr	r4, .L26+4
 402 0016 2568     		ldr	r5, [r4]
 403 0018 054A     		ldr	r2, .L26+8
 404 001a 2A40     		and	r2, r5
 405 001c 2260     		str	r2, [r4]
1083:.\Generated_Source\PSoC4/CapSense.c ****     *CapSense_prtSelTbl[port] = newRegisterValue;
 406              		.loc 1 1083 0
 407 001e 0B60     		str	r3, [r1]
1084:.\Generated_Source\PSoC4/CapSense.c **** 	
1085:.\Generated_Source\PSoC4/CapSense.c **** 	CyExitCriticalSection(interruptState);
 408              		.loc 1 1085 0
 409 0020 FFF7FEFF 		bl	CyExitCriticalSection
 410              	.LVL42:
1086:.\Generated_Source\PSoC4/CapSense.c **** }
 411              		.loc 1 1086 0
 412              		@ sp needed
 413 0024 38BD     		pop	{r3, r4, r5, pc}
 414              	.L27:
 415 0026 C046     		.align	2
 416              	.L26:
 417 0028 00030240 		.word	1073873664
 418 002c 08030440 		.word	1074004744
 419 0030 FFFF1FFF 		.word	-14680065
 420              		.cfi_endproc
 421              	.LFE49:
 422              		.size	CapSense_EnableSensor, .-CapSense_EnableSensor
 423              		.section	.text.CapSense_DisableSensor,"ax",%progbits
 424              		.align	2
 425              		.global	CapSense_DisableSensor
 426              		.code	16
 427              		.thumb_func
 428              		.type	CapSense_DisableSensor, %function
 429              	CapSense_DisableSensor:
 430              	.LFB50:
1087:.\Generated_Source\PSoC4/CapSense.c **** 
1088:.\Generated_Source\PSoC4/CapSense.c **** 
1089:.\Generated_Source\PSoC4/CapSense.c **** /*******************************************************************************
1090:.\Generated_Source\PSoC4/CapSense.c **** * Function Name: CapSense_DisableSensor
1091:.\Generated_Source\PSoC4/CapSense.c **** ********************************************************************************
1092:.\Generated_Source\PSoC4/CapSense.c **** *
1093:.\Generated_Source\PSoC4/CapSense.c **** * Summary:
1094:.\Generated_Source\PSoC4/CapSense.c **** *  Disables the selected sensor. The corresponding pin is disconnected from the
1095:.\Generated_Source\PSoC4/CapSense.c **** *  Analog Mux Bus and connected to GND, High_Z or Shield electrode.
1096:.\Generated_Source\PSoC4/CapSense.c **** *
1097:.\Generated_Source\PSoC4/CapSense.c **** * Parameters:
1098:.\Generated_Source\PSoC4/CapSense.c **** *  sensor:  Sensor number
1099:.\Generated_Source\PSoC4/CapSense.c **** *
1100:.\Generated_Source\PSoC4/CapSense.c **** * Return:
1101:.\Generated_Source\PSoC4/CapSense.c **** *  None
1102:.\Generated_Source\PSoC4/CapSense.c **** *
1103:.\Generated_Source\PSoC4/CapSense.c **** * Global Variables:
1104:.\Generated_Source\PSoC4/CapSense.c **** *  CapSense_portTable[] - used to store the port number that pin 
1105:.\Generated_Source\PSoC4/CapSense.c **** *  belongs to for each sensor.
1106:.\Generated_Source\PSoC4/CapSense.c **** *  CapSense_pinShiftTbl[] - used to store position of pin that 
1107:.\Generated_Source\PSoC4/CapSense.c **** *  configured as a sensor in the port. 
1108:.\Generated_Source\PSoC4/CapSense.c **** *  CapSense_prtSelTbl[] - Contains pointers to the HSIOM 
1109:.\Generated_Source\PSoC4/CapSense.c **** *  registers for each port. 
ARM GAS  C:\Users\merlin\AppData\Local\Temp\ccZOZwzR.s 			page 28


1110:.\Generated_Source\PSoC4/CapSense.c **** *  CapSense_PrtCfgTb[] - Contains pointers to the port config 
1111:.\Generated_Source\PSoC4/CapSense.c **** *  registers for each port.
1112:.\Generated_Source\PSoC4/CapSense.c **** *
1113:.\Generated_Source\PSoC4/CapSense.c **** * Side Effects: 
1114:.\Generated_Source\PSoC4/CapSense.c **** *  None
1115:.\Generated_Source\PSoC4/CapSense.c **** *
1116:.\Generated_Source\PSoC4/CapSense.c **** *******************************************************************************/
1117:.\Generated_Source\PSoC4/CapSense.c **** void CapSense_DisableSensor(uint32 sensor)
1118:.\Generated_Source\PSoC4/CapSense.c **** {
 431              		.loc 1 1118 0
 432              		.cfi_startproc
 433              	.LVL43:
 434 0000 10B5     		push	{r4, lr}
 435              		.cfi_def_cfa_offset 8
 436              		.cfi_offset 4, -8
 437              		.cfi_offset 14, -4
 438              	.LVL44:
1119:.\Generated_Source\PSoC4/CapSense.c ****     uint8 interruptState;
1120:.\Generated_Source\PSoC4/CapSense.c **** 	uint32 newRegisterValue;
1121:.\Generated_Source\PSoC4/CapSense.c **** 	
1122:.\Generated_Source\PSoC4/CapSense.c ****     uint32 port = (uint32) CapSense_portTable[sensor];
1123:.\Generated_Source\PSoC4/CapSense.c ****     uint8  pinHSIOMShift = CapSense_pinShiftTbl[sensor] * CapSense_HSIOM_PIN_CFG_SIZE;
1124:.\Generated_Source\PSoC4/CapSense.c ****     uint8  pinModeShift = CapSense_pinShiftTbl[sensor]  * CapSense_PC_PIN_CFG_SIZE;
1125:.\Generated_Source\PSoC4/CapSense.c **** 
1126:.\Generated_Source\PSoC4/CapSense.c **** 	uint32 inactiveConnect = CapSense_SNS_HIZANALOG_CONNECT;
1127:.\Generated_Source\PSoC4/CapSense.c **** 	uint32 sensorState = CapSense_unscannedSnsDriveMode[sensor];
 439              		.loc 1 1127 0
 440 0002 104B     		ldr	r3, .L33
 441 0004 1A5C     		ldrb	r2, [r3, r0]
 442              	.LVL45:
1128:.\Generated_Source\PSoC4/CapSense.c **** 
1129:.\Generated_Source\PSoC4/CapSense.c ****     *CapSense_prtSelTbl[port] &= ~(CapSense_CSD_HSIOM_MASK << pinHSIOMShift);
 443              		.loc 1 1129 0
 444 0006 1049     		ldr	r1, .L33+4
 445 0008 0B68     		ldr	r3, [r1]
 446 000a 1B01     		lsl	r3, r3, #4
 447 000c 1B09     		lsr	r3, r3, #4
 448 000e 0B60     		str	r3, [r1]
1130:.\Generated_Source\PSoC4/CapSense.c **** 
1131:.\Generated_Source\PSoC4/CapSense.c **** 	#if(CapSense_IS_SHIELD_ENABLE != 0)
1132:.\Generated_Source\PSoC4/CapSense.c **** 	if(sensorState != (uint32)CapSense__SHIELD)
1133:.\Generated_Source\PSoC4/CapSense.c **** 	{
1134:.\Generated_Source\PSoC4/CapSense.c **** 	#else
1135:.\Generated_Source\PSoC4/CapSense.c **** 	    /* Connected to Ground if shield is disabled */
1136:.\Generated_Source\PSoC4/CapSense.c **** 	    if(sensorState == (uint32)CapSense__SHIELD)
 449              		.loc 1 1136 0
 450 0010 022A     		cmp	r2, #2
 451 0012 00D1     		bne	.L29
1137:.\Generated_Source\PSoC4/CapSense.c **** 		{
1138:.\Generated_Source\PSoC4/CapSense.c **** 			sensorState = (uint32)CapSense__GROUND;
 452              		.loc 1 1138 0
 453 0014 0022     		mov	r2, #0
 454              	.LVL46:
 455              	.L29:
1139:.\Generated_Source\PSoC4/CapSense.c **** 		}
1140:.\Generated_Source\PSoC4/CapSense.c **** 	#endif /* (CapSense_IS_SHIELD_ENABLE) */
1141:.\Generated_Source\PSoC4/CapSense.c **** 	    if(sensorState != (uint32)CapSense__HIZ_ANALOG)
ARM GAS  C:\Users\merlin\AppData\Local\Temp\ccZOZwzR.s 			page 29


 456              		.loc 1 1141 0
 457 0016 012A     		cmp	r2, #1
 458 0018 01D1     		bne	.L32
1126:.\Generated_Source\PSoC4/CapSense.c **** 	uint32 sensorState = CapSense_unscannedSnsDriveMode[sensor];
 459              		.loc 1 1126 0
 460 001a 0024     		mov	r4, #0
 461 001c 00E0     		b	.L30
 462              	.L32:
1142:.\Generated_Source\PSoC4/CapSense.c **** 		{   
1143:.\Generated_Source\PSoC4/CapSense.c **** 		    /* Connected to Ground */
1144:.\Generated_Source\PSoC4/CapSense.c **** 		    inactiveConnect = (uint32)CapSense_SNS_GROUND_CONNECT;
 463              		.loc 1 1144 0
 464 001e 0624     		mov	r4, #6
 465              	.L30:
 466              	.LVL47:
1145:.\Generated_Source\PSoC4/CapSense.c **** 		}
1146:.\Generated_Source\PSoC4/CapSense.c **** 		
1147:.\Generated_Source\PSoC4/CapSense.c ****         interruptState = CyEnterCriticalSection();
 467              		.loc 1 1147 0
 468 0020 FFF7FEFF 		bl	CyEnterCriticalSection
 469              	.LVL48:
1148:.\Generated_Source\PSoC4/CapSense.c **** 
1149:.\Generated_Source\PSoC4/CapSense.c ****         /* Set drive mode */
1150:.\Generated_Source\PSoC4/CapSense.c ****     	newRegisterValue = *CapSense_prtCfgTbl[port];
 470              		.loc 1 1150 0
 471 0024 0949     		ldr	r1, .L33+8
 472 0026 0B68     		ldr	r3, [r1]
 473              	.LVL49:
1151:.\Generated_Source\PSoC4/CapSense.c ****     	newRegisterValue &= ~(CapSense_CSD_PIN_MODE_MASK << pinModeShift);
 474              		.loc 1 1151 0
 475 0028 094A     		ldr	r2, .L33+12
 476 002a 1A40     		and	r2, r3
 477              	.LVL50:
1152:.\Generated_Source\PSoC4/CapSense.c ****     	newRegisterValue |=  (uint32)(inactiveConnect << pinModeShift);
 478              		.loc 1 1152 0
 479 002c 6305     		lsl	r3, r4, #21
 480 002e 1343     		orr	r3, r2
 481              	.LVL51:
1153:.\Generated_Source\PSoC4/CapSense.c ****         *CapSense_prtCfgTbl[port] =  newRegisterValue;
 482              		.loc 1 1153 0
 483 0030 0B60     		str	r3, [r1]
1154:.\Generated_Source\PSoC4/CapSense.c ****         
1155:.\Generated_Source\PSoC4/CapSense.c ****         CyExitCriticalSection(interruptState);
 484              		.loc 1 1155 0
 485 0032 FFF7FEFF 		bl	CyExitCriticalSection
 486              	.LVL52:
1156:.\Generated_Source\PSoC4/CapSense.c **** 
1157:.\Generated_Source\PSoC4/CapSense.c ****     	*CapSense_prtDRTbl[port]  &=  (uint32)~(uint32)((uint32)1u << CapSense_pinShiftTbl[sensor]); 
 487              		.loc 1 1157 0
 488 0036 074A     		ldr	r2, .L33+16
 489 0038 1368     		ldr	r3, [r2]
 490 003a 8021     		mov	r1, #128
 491 003c 8B43     		bic	r3, r1
 492 003e 1360     		str	r3, [r2]
1158:.\Generated_Source\PSoC4/CapSense.c **** 	#if(CapSense_IS_SHIELD_ENABLE != 0)
1159:.\Generated_Source\PSoC4/CapSense.c **** 	}
1160:.\Generated_Source\PSoC4/CapSense.c **** 	else
ARM GAS  C:\Users\merlin\AppData\Local\Temp\ccZOZwzR.s 			page 30


1161:.\Generated_Source\PSoC4/CapSense.c **** 	{
1162:.\Generated_Source\PSoC4/CapSense.c **** 		/* Connect to Shield */
1163:.\Generated_Source\PSoC4/CapSense.c **** 		*CapSense_prtSelTbl[port] |= (CapSense_CSD_SHIELD_PORT_MODE << pinHSIOMShift);
1164:.\Generated_Source\PSoC4/CapSense.c **** 	}
1165:.\Generated_Source\PSoC4/CapSense.c **** 	#endif /* (CapSense_IS_SHIELD_ENABLE) */
1166:.\Generated_Source\PSoC4/CapSense.c **** }
 493              		.loc 1 1166 0
 494              		@ sp needed
 495              	.LVL53:
 496 0040 10BD     		pop	{r4, pc}
 497              	.L34:
 498 0042 C046     		.align	2
 499              	.L33:
 500 0044 00000000 		.word	CapSense_unscannedSnsDriveMode
 501 0048 00030240 		.word	1073873664
 502 004c 08030440 		.word	1074004744
 503 0050 FFFF1FFF 		.word	-14680065
 504 0054 00030440 		.word	1074004736
 505              		.cfi_endproc
 506              	.LFE50:
 507              		.size	CapSense_DisableSensor, .-CapSense_DisableSensor
 508              		.section	.text.CapSense_ClearSensors,"ax",%progbits
 509              		.align	2
 510              		.global	CapSense_ClearSensors
 511              		.code	16
 512              		.thumb_func
 513              		.type	CapSense_ClearSensors, %function
 514              	CapSense_ClearSensors:
 515              	.LFB48:
 907:.\Generated_Source\PSoC4/CapSense.c **** 	uint32 snsIndex;
 516              		.loc 1 907 0
 517              		.cfi_startproc
 518 0000 10B5     		push	{r4, lr}
 519              		.cfi_def_cfa_offset 8
 520              		.cfi_offset 4, -8
 521              		.cfi_offset 14, -4
 522              	.LVL54:
 910:.\Generated_Source\PSoC4/CapSense.c ****     {
 523              		.loc 1 910 0
 524 0002 0024     		mov	r4, #0
 525 0004 03E0     		b	.L36
 526              	.LVL55:
 527              	.L37:
 912:.\Generated_Source\PSoC4/CapSense.c ****     }
 528              		.loc 1 912 0 discriminator 3
 529 0006 201C     		mov	r0, r4
 530 0008 FFF7FEFF 		bl	CapSense_DisableSensor
 531              	.LVL56:
 910:.\Generated_Source\PSoC4/CapSense.c ****     {
 532              		.loc 1 910 0 discriminator 3
 533 000c 0134     		add	r4, r4, #1
 534              	.LVL57:
 535              	.L36:
 910:.\Generated_Source\PSoC4/CapSense.c ****     {
 536              		.loc 1 910 0 is_stmt 0 discriminator 1
 537 000e 002C     		cmp	r4, #0
 538 0010 F9D0     		beq	.L37
ARM GAS  C:\Users\merlin\AppData\Local\Temp\ccZOZwzR.s 			page 31


 914:.\Generated_Source\PSoC4/CapSense.c **** 
 539              		.loc 1 914 0 is_stmt 1
 540              		@ sp needed
 541              	.LVL58:
 542 0012 10BD     		pop	{r4, pc}
 543              		.cfi_endproc
 544              	.LFE48:
 545              		.size	CapSense_ClearSensors, .-CapSense_ClearSensors
 546              		.section	.text.CapSense_SetPinDriveMode,"ax",%progbits
 547              		.align	2
 548              		.global	CapSense_SetPinDriveMode
 549              		.code	16
 550              		.thumb_func
 551              		.type	CapSense_SetPinDriveMode, %function
 552              	CapSense_SetPinDriveMode:
 553              	.LFB53:
1167:.\Generated_Source\PSoC4/CapSense.c **** 
1168:.\Generated_Source\PSoC4/CapSense.c **** 
1169:.\Generated_Source\PSoC4/CapSense.c **** /*******************************************************************************
1170:.\Generated_Source\PSoC4/CapSense.c **** * Function Name: CapSense_SetDriveModeAllPins
1171:.\Generated_Source\PSoC4/CapSense.c **** ********************************************************************************
1172:.\Generated_Source\PSoC4/CapSense.c **** *
1173:.\Generated_Source\PSoC4/CapSense.c **** * Summary:
1174:.\Generated_Source\PSoC4/CapSense.c **** * This API sets the drive mode of port pins used by the CapSense
1175:.\Generated_Source\PSoC4/CapSense.c **** * component (sensors, guard, shield, shield tank and Cmod) to drive the 
1176:.\Generated_Source\PSoC4/CapSense.c **** * mode specified by the argument.
1177:.\Generated_Source\PSoC4/CapSense.c **** *
1178:.\Generated_Source\PSoC4/CapSense.c **** * Parameters:
1179:.\Generated_Source\PSoC4/CapSense.c **** *  driveMode:  Drive mode definition.
1180:.\Generated_Source\PSoC4/CapSense.c **** *
1181:.\Generated_Source\PSoC4/CapSense.c **** * Return:
1182:.\Generated_Source\PSoC4/CapSense.c **** *  None
1183:.\Generated_Source\PSoC4/CapSense.c **** *
1184:.\Generated_Source\PSoC4/CapSense.c **** * Global Variables:
1185:.\Generated_Source\PSoC4/CapSense.c **** *  CapSense_portTable[] - used to store the port number that pin 
1186:.\Generated_Source\PSoC4/CapSense.c **** *  belongs to for each sensor.
1187:.\Generated_Source\PSoC4/CapSense.c **** *  CapSense_pinShiftTbl[] - used to store position of pin that 
1188:.\Generated_Source\PSoC4/CapSense.c **** *  configured as a sensor in the port. 
1189:.\Generated_Source\PSoC4/CapSense.c **** *
1190:.\Generated_Source\PSoC4/CapSense.c **** * Side Effects: 
1191:.\Generated_Source\PSoC4/CapSense.c **** *  This API shall be called only after CapSense component is stopped.
1192:.\Generated_Source\PSoC4/CapSense.c **** *
1193:.\Generated_Source\PSoC4/CapSense.c **** *******************************************************************************/
1194:.\Generated_Source\PSoC4/CapSense.c **** void CapSense_SetDriveModeAllPins(uint32 driveMode)
1195:.\Generated_Source\PSoC4/CapSense.c **** {
1196:.\Generated_Source\PSoC4/CapSense.c **** 	uint8 curSensor;
1197:.\Generated_Source\PSoC4/CapSense.c **** 	#if (CapSense_IS_COMPLEX_SCANSLOTS)
1198:.\Generated_Source\PSoC4/CapSense.c **** 		uint8 snsNumber;
1199:.\Generated_Source\PSoC4/CapSense.c **** 		uint8 snsType;
1200:.\Generated_Source\PSoC4/CapSense.c **** 	#endif  /* CapSense_IS_COMPLEX_SCANSLOTS */
1201:.\Generated_Source\PSoC4/CapSense.c **** 	uint32 prtNumberTmp;
1202:.\Generated_Source\PSoC4/CapSense.c **** 	uint32 pinNumberTmp;
1203:.\Generated_Source\PSoC4/CapSense.c **** 
1204:.\Generated_Source\PSoC4/CapSense.c **** 	for(curSensor = 0u; curSensor < CapSense_TOTAL_SENSOR_COUNT; curSensor++)
1205:.\Generated_Source\PSoC4/CapSense.c **** 	{	
1206:.\Generated_Source\PSoC4/CapSense.c **** 		#if (CapSense_IS_COMPLEX_SCANSLOTS)
1207:.\Generated_Source\PSoC4/CapSense.c **** 			/* Read sensor type: single or complex */
ARM GAS  C:\Users\merlin\AppData\Local\Temp\ccZOZwzR.s 			page 32


1208:.\Generated_Source\PSoC4/CapSense.c **** 			snsType = CapSense_portTable[curSensor];
1209:.\Generated_Source\PSoC4/CapSense.c **** 		
1210:.\Generated_Source\PSoC4/CapSense.c **** 			/* Check if sensor is complex */
1211:.\Generated_Source\PSoC4/CapSense.c **** 			if ((snsType & CapSense_COMPLEX_SS_FLAG) == 0u)
1212:.\Generated_Source\PSoC4/CapSense.c **** 			{
1213:.\Generated_Source\PSoC4/CapSense.c **** 				/* The sensor is not complex */
1214:.\Generated_Source\PSoC4/CapSense.c **** 				snsNumber = curSensor;
1215:.\Generated_Source\PSoC4/CapSense.c **** 			}
1216:.\Generated_Source\PSoC4/CapSense.c **** 			else
1217:.\Generated_Source\PSoC4/CapSense.c **** 			{
1218:.\Generated_Source\PSoC4/CapSense.c **** 				/* Get dedicated sensor ID of the complex sensor */
1219:.\Generated_Source\PSoC4/CapSense.c **** 				snsType &= ~CapSense_COMPLEX_SS_FLAG;
1220:.\Generated_Source\PSoC4/CapSense.c **** 				snsNumber = CapSense_indexTable[snsType];
1221:.\Generated_Source\PSoC4/CapSense.c **** 			}
1222:.\Generated_Source\PSoC4/CapSense.c **** 
1223:.\Generated_Source\PSoC4/CapSense.c **** 			prtNumberTmp = CapSense_portTable[snsNumber];
1224:.\Generated_Source\PSoC4/CapSense.c **** 			pinNumberTmp = CapSense_pinShiftTbl[snsNumber];
1225:.\Generated_Source\PSoC4/CapSense.c **** 		#else
1226:.\Generated_Source\PSoC4/CapSense.c **** 			prtNumberTmp = CapSense_portTable[curSensor];
1227:.\Generated_Source\PSoC4/CapSense.c **** 			pinNumberTmp = CapSense_pinShiftTbl[curSensor];
1228:.\Generated_Source\PSoC4/CapSense.c **** 		#endif  /* CapSense_IS_COMPLEX_SCANSLOTS */
1229:.\Generated_Source\PSoC4/CapSense.c **** 	
1230:.\Generated_Source\PSoC4/CapSense.c **** 		CapSense_SetPinDriveMode(driveMode, pinNumberTmp, prtNumberTmp);
1231:.\Generated_Source\PSoC4/CapSense.c **** 	}
1232:.\Generated_Source\PSoC4/CapSense.c **** 	
1233:.\Generated_Source\PSoC4/CapSense.c **** 	CapSense_SetPinDriveMode(driveMode, (uint32)CapSense_CMOD_PIN_NUMBER, (uint32)CapSense_CMOD_PRT_NU
1234:.\Generated_Source\PSoC4/CapSense.c **** 	
1235:.\Generated_Source\PSoC4/CapSense.c **** 	#if(0u != CapSense_CSH_TANK_ENABLE)
1236:.\Generated_Source\PSoC4/CapSense.c **** 		CapSense_SetPinDriveMode(driveMode, (uint32)CapSense_CTANK_PIN_NUMBER, (uint32)CapSense_CTANK_PRT
1237:.\Generated_Source\PSoC4/CapSense.c **** 	#endif /* (0u != CapSense_CSH_TANK_ENABLE) */	
1238:.\Generated_Source\PSoC4/CapSense.c **** 	
1239:.\Generated_Source\PSoC4/CapSense.c **** 	#if(0u != CapSense_IS_SHIELD_ENABLE)
1240:.\Generated_Source\PSoC4/CapSense.c **** 		CapSense_SetPinDriveMode(driveMode, (uint32)CapSense_SHIELD_PIN_NUMBER, (uint32)CapSense_SHIELD_P
1241:.\Generated_Source\PSoC4/CapSense.c **** 	#endif /* (0u != CapSense_IS_SHIELD_ENABLE) */	
1242:.\Generated_Source\PSoC4/CapSense.c **** }
1243:.\Generated_Source\PSoC4/CapSense.c **** 
1244:.\Generated_Source\PSoC4/CapSense.c **** 
1245:.\Generated_Source\PSoC4/CapSense.c **** /*******************************************************************************
1246:.\Generated_Source\PSoC4/CapSense.c **** * Function Name: CapSense_RestoreDriveModeAllPins
1247:.\Generated_Source\PSoC4/CapSense.c **** ********************************************************************************
1248:.\Generated_Source\PSoC4/CapSense.c **** *
1249:.\Generated_Source\PSoC4/CapSense.c **** * Summary:
1250:.\Generated_Source\PSoC4/CapSense.c **** *  This API restores the drive for all the CapSense port pins to the original
1251:.\Generated_Source\PSoC4/CapSense.c **** *  state.
1252:.\Generated_Source\PSoC4/CapSense.c **** *
1253:.\Generated_Source\PSoC4/CapSense.c **** * Parameters:
1254:.\Generated_Source\PSoC4/CapSense.c **** *  None
1255:.\Generated_Source\PSoC4/CapSense.c **** *
1256:.\Generated_Source\PSoC4/CapSense.c **** * Return:
1257:.\Generated_Source\PSoC4/CapSense.c **** *  None
1258:.\Generated_Source\PSoC4/CapSense.c **** *
1259:.\Generated_Source\PSoC4/CapSense.c **** * Global Variables:
1260:.\Generated_Source\PSoC4/CapSense.c **** *  CapSense_prtSelTbl[] - Contains pointers to the HSIOM 
1261:.\Generated_Source\PSoC4/CapSense.c **** *  registers for each port. 
1262:.\Generated_Source\PSoC4/CapSense.c **** *
1263:.\Generated_Source\PSoC4/CapSense.c **** * Side Effects: 
1264:.\Generated_Source\PSoC4/CapSense.c **** *  This API is called only after the CapSense component is stopped.
ARM GAS  C:\Users\merlin\AppData\Local\Temp\ccZOZwzR.s 			page 33


1265:.\Generated_Source\PSoC4/CapSense.c **** *
1266:.\Generated_Source\PSoC4/CapSense.c **** *******************************************************************************/
1267:.\Generated_Source\PSoC4/CapSense.c **** void CapSense_RestoreDriveModeAllPins(void)
1268:.\Generated_Source\PSoC4/CapSense.c **** {
1269:.\Generated_Source\PSoC4/CapSense.c **** 	uint32 newRegisterValue;
1270:.\Generated_Source\PSoC4/CapSense.c **** 	
1271:.\Generated_Source\PSoC4/CapSense.c **** 	CapSense_SetDriveModeAllPins(CY_SYS_PINS_DM_ALG_HIZ);
1272:.\Generated_Source\PSoC4/CapSense.c **** 	
1273:.\Generated_Source\PSoC4/CapSense.c **** 	newRegisterValue = CapSense_CMOD_CONNECTION_REG; 
1274:.\Generated_Source\PSoC4/CapSense.c ****     newRegisterValue &= ~(CapSense_CSD_CMOD_CONNECTION_MASK);
1275:.\Generated_Source\PSoC4/CapSense.c ****     newRegisterValue |= CapSense_CSD_CMOD_TO_AMUXBUS_A;
1276:.\Generated_Source\PSoC4/CapSense.c ****     CapSense_CMOD_CONNECTION_REG = newRegisterValue;
1277:.\Generated_Source\PSoC4/CapSense.c **** 	
1278:.\Generated_Source\PSoC4/CapSense.c **** 	#if(0u != CapSense_CSH_TANK_ENABLE)
1279:.\Generated_Source\PSoC4/CapSense.c **** 		newRegisterValue = CapSense_CTANK_CONNECTION_REG;
1280:.\Generated_Source\PSoC4/CapSense.c ****         newRegisterValue &= ~(CapSense_CSD_CTANK_CONNECTION_MASK);
1281:.\Generated_Source\PSoC4/CapSense.c **** 		newRegisterValue |= CapSense_CSD_CTANK_TO_AMUXBUS_B;
1282:.\Generated_Source\PSoC4/CapSense.c ****         CapSense_CTANK_CONNECTION_REG = newRegisterValue;
1283:.\Generated_Source\PSoC4/CapSense.c **** 	#endif/* (0u != CapSense_CSH_TANK_ENABLE) */
1284:.\Generated_Source\PSoC4/CapSense.c **** 	
1285:.\Generated_Source\PSoC4/CapSense.c **** 	#if(0u != CapSense_IS_SHIELD_ENABLE)
1286:.\Generated_Source\PSoC4/CapSense.c **** 		newRegisterValue = *CapSense_prtSelTbl[CapSense_SHIELD_PORT_NUMBER];
1287:.\Generated_Source\PSoC4/CapSense.c ****         newRegisterValue &= ~(CapSense_CSD_HSIOM_MASK << ((uint32)CapSense_SHIELD_PIN_NUMBER * CapS
1288:.\Generated_Source\PSoC4/CapSense.c ****         newRegisterValue |= (CapSense_CSD_SHIELD_PORT_MODE << ((uint32)CapSense_SHIELD_PIN_NUMBER *
1289:.\Generated_Source\PSoC4/CapSense.c ****         *CapSense_prtSelTbl[CapSense_SHIELD_PORT_NUMBER] = newRegisterValue;
1290:.\Generated_Source\PSoC4/CapSense.c **** 	#endif /* (0u != CapSense_IS_SHIELD_ENABLE) */	
1291:.\Generated_Source\PSoC4/CapSense.c **** }
1292:.\Generated_Source\PSoC4/CapSense.c **** 
1293:.\Generated_Source\PSoC4/CapSense.c **** 
1294:.\Generated_Source\PSoC4/CapSense.c **** /*******************************************************************************
1295:.\Generated_Source\PSoC4/CapSense.c **** * Function Name: CapSense_SetPinDriveMode
1296:.\Generated_Source\PSoC4/CapSense.c **** ********************************************************************************
1297:.\Generated_Source\PSoC4/CapSense.c **** *
1298:.\Generated_Source\PSoC4/CapSense.c **** * Summary:
1299:.\Generated_Source\PSoC4/CapSense.c **** * This API sets the drive mode for the appropriate port/pin.
1300:.\Generated_Source\PSoC4/CapSense.c **** *
1301:.\Generated_Source\PSoC4/CapSense.c **** * Parameters:
1302:.\Generated_Source\PSoC4/CapSense.c **** *  driveMode:  Drive mode definition.
1303:.\Generated_Source\PSoC4/CapSense.c **** *  portNumber: contains port number (0, 1, 2).
1304:.\Generated_Source\PSoC4/CapSense.c **** *  pinNumber: contains pin number (0, 1, 2, ... , 7).
1305:.\Generated_Source\PSoC4/CapSense.c **** *
1306:.\Generated_Source\PSoC4/CapSense.c **** * Return:
1307:.\Generated_Source\PSoC4/CapSense.c **** *  None
1308:.\Generated_Source\PSoC4/CapSense.c **** *
1309:.\Generated_Source\PSoC4/CapSense.c **** * Global Variables:
1310:.\Generated_Source\PSoC4/CapSense.c **** *  CapSense_prtSelTbl[] - Contains pointers to the HSIOM 
1311:.\Generated_Source\PSoC4/CapSense.c **** *  registers for each port. 
1312:.\Generated_Source\PSoC4/CapSense.c **** *  CapSense_prtCfgTb[] - Contains pointers to the port config 
1313:.\Generated_Source\PSoC4/CapSense.c **** *  registers for each port.
1314:.\Generated_Source\PSoC4/CapSense.c **** *
1315:.\Generated_Source\PSoC4/CapSense.c **** * Side Effects: 
1316:.\Generated_Source\PSoC4/CapSense.c **** *  This API is called only after CapSense component is stopped.
1317:.\Generated_Source\PSoC4/CapSense.c **** *
1318:.\Generated_Source\PSoC4/CapSense.c **** *******************************************************************************/
1319:.\Generated_Source\PSoC4/CapSense.c **** void CapSense_SetPinDriveMode(uint32 driveMode, uint32 pinNumber, uint32 portNumber)
1320:.\Generated_Source\PSoC4/CapSense.c **** {	
 554              		.loc 1 1320 0
ARM GAS  C:\Users\merlin\AppData\Local\Temp\ccZOZwzR.s 			page 34


 555              		.cfi_startproc
 556              	.LVL59:
 557 0000 10B5     		push	{r4, lr}
 558              		.cfi_def_cfa_offset 8
 559              		.cfi_offset 4, -8
 560              		.cfi_offset 14, -4
1321:.\Generated_Source\PSoC4/CapSense.c **** 	uint32  pinModeShift;
1322:.\Generated_Source\PSoC4/CapSense.c **** 	uint32 newRegisterValue;
1323:.\Generated_Source\PSoC4/CapSense.c **** 	
1324:.\Generated_Source\PSoC4/CapSense.c **** 	pinModeShift  = pinNumber * CapSense_PC_PIN_CFG_SIZE;
 561              		.loc 1 1324 0
 562 0002 4B00     		lsl	r3, r1, #1
 563 0004 5918     		add	r1, r3, r1
 564              	.LVL60:
1325:.\Generated_Source\PSoC4/CapSense.c **** 	
1326:.\Generated_Source\PSoC4/CapSense.c **** 	newRegisterValue = *CapSense_prtCfgTbl[portNumber];
 565              		.loc 1 1326 0
 566 0006 9200     		lsl	r2, r2, #2
 567              	.LVL61:
 568 0008 044B     		ldr	r3, .L39
 569 000a D458     		ldr	r4, [r2, r3]
 570 000c 2368     		ldr	r3, [r4]
 571              	.LVL62:
1327:.\Generated_Source\PSoC4/CapSense.c **** 	newRegisterValue &= ~(CapSense_CSD_PIN_MODE_MASK << pinModeShift);
 572              		.loc 1 1327 0
 573 000e 0722     		mov	r2, #7
 574 0010 8A40     		lsl	r2, r2, r1
 575 0012 9343     		bic	r3, r2
 576              	.LVL63:
1328:.\Generated_Source\PSoC4/CapSense.c **** 	newRegisterValue |=  (uint32)((uint32)driveMode << pinModeShift);
 577              		.loc 1 1328 0
 578 0014 8840     		lsl	r0, r0, r1
 579              	.LVL64:
 580 0016 1843     		orr	r0, r3
 581              	.LVL65:
1329:.\Generated_Source\PSoC4/CapSense.c ****     *CapSense_prtCfgTbl[portNumber] =  newRegisterValue;
 582              		.loc 1 1329 0
 583 0018 2060     		str	r0, [r4]
1330:.\Generated_Source\PSoC4/CapSense.c **** }
 584              		.loc 1 1330 0
 585              		@ sp needed
 586 001a 10BD     		pop	{r4, pc}
 587              	.L40:
 588              		.align	2
 589              	.L39:
 590 001c 00000000 		.word	.LANCHOR2
 591              		.cfi_endproc
 592              	.LFE53:
 593              		.size	CapSense_SetPinDriveMode, .-CapSense_SetPinDriveMode
 594              		.section	.text.CapSense_SetDriveModeAllPins,"ax",%progbits
 595              		.align	2
 596              		.global	CapSense_SetDriveModeAllPins
 597              		.code	16
 598              		.thumb_func
 599              		.type	CapSense_SetDriveModeAllPins, %function
 600              	CapSense_SetDriveModeAllPins:
 601              	.LFB51:
ARM GAS  C:\Users\merlin\AppData\Local\Temp\ccZOZwzR.s 			page 35


1195:.\Generated_Source\PSoC4/CapSense.c **** 	uint8 curSensor;
 602              		.loc 1 1195 0
 603              		.cfi_startproc
 604              	.LVL66:
 605 0000 38B5     		push	{r3, r4, r5, lr}
 606              		.cfi_def_cfa_offset 16
 607              		.cfi_offset 3, -16
 608              		.cfi_offset 4, -12
 609              		.cfi_offset 5, -8
 610              		.cfi_offset 14, -4
 611 0002 051C     		mov	r5, r0
 612              	.LVL67:
1204:.\Generated_Source\PSoC4/CapSense.c **** 	{	
 613              		.loc 1 1204 0
 614 0004 0024     		mov	r4, #0
 615 0006 06E0     		b	.L42
 616              	.LVL68:
 617              	.L43:
1230:.\Generated_Source\PSoC4/CapSense.c **** 	}
 618              		.loc 1 1230 0 discriminator 3
 619 0008 281C     		mov	r0, r5
 620 000a 0721     		mov	r1, #7
 621 000c 0322     		mov	r2, #3
 622 000e FFF7FEFF 		bl	CapSense_SetPinDriveMode
 623              	.LVL69:
1204:.\Generated_Source\PSoC4/CapSense.c **** 	{	
 624              		.loc 1 1204 0 discriminator 3
 625 0012 0134     		add	r4, r4, #1
 626              	.LVL70:
 627 0014 E4B2     		uxtb	r4, r4
 628              	.LVL71:
 629              	.L42:
1204:.\Generated_Source\PSoC4/CapSense.c **** 	{	
 630              		.loc 1 1204 0 is_stmt 0 discriminator 1
 631 0016 002C     		cmp	r4, #0
 632 0018 F6D0     		beq	.L43
1233:.\Generated_Source\PSoC4/CapSense.c **** 	
 633              		.loc 1 1233 0 is_stmt 1
 634 001a 281C     		mov	r0, r5
 635 001c 0221     		mov	r1, #2
 636 001e 0422     		mov	r2, #4
 637 0020 FFF7FEFF 		bl	CapSense_SetPinDriveMode
 638              	.LVL72:
1242:.\Generated_Source\PSoC4/CapSense.c **** 
 639              		.loc 1 1242 0
 640              		@ sp needed
 641              	.LVL73:
 642              	.LVL74:
 643 0024 38BD     		pop	{r3, r4, r5, pc}
 644              		.cfi_endproc
 645              	.LFE51:
 646              		.size	CapSense_SetDriveModeAllPins, .-CapSense_SetDriveModeAllPins
 647 0026 C046     		.section	.text.CapSense_RestoreDriveModeAllPins,"ax",%progbits
 648              		.align	2
 649              		.global	CapSense_RestoreDriveModeAllPins
 650              		.code	16
 651              		.thumb_func
ARM GAS  C:\Users\merlin\AppData\Local\Temp\ccZOZwzR.s 			page 36


 652              		.type	CapSense_RestoreDriveModeAllPins, %function
 653              	CapSense_RestoreDriveModeAllPins:
 654              	.LFB52:
1268:.\Generated_Source\PSoC4/CapSense.c **** 	uint32 newRegisterValue;
 655              		.loc 1 1268 0
 656              		.cfi_startproc
 657 0000 08B5     		push	{r3, lr}
 658              		.cfi_def_cfa_offset 8
 659              		.cfi_offset 3, -8
 660              		.cfi_offset 14, -4
1271:.\Generated_Source\PSoC4/CapSense.c **** 	
 661              		.loc 1 1271 0
 662 0002 0020     		mov	r0, #0
 663 0004 FFF7FEFF 		bl	CapSense_SetDriveModeAllPins
 664              	.LVL75:
1273:.\Generated_Source\PSoC4/CapSense.c ****     newRegisterValue &= ~(CapSense_CSD_CMOD_CONNECTION_MASK);
 665              		.loc 1 1273 0
 666 0008 044A     		ldr	r2, .L45
 667 000a 1168     		ldr	r1, [r2]
 668              	.LVL76:
1274:.\Generated_Source\PSoC4/CapSense.c ****     newRegisterValue |= CapSense_CSD_CMOD_TO_AMUXBUS_A;
 669              		.loc 1 1274 0
 670 000c 044B     		ldr	r3, .L45+4
 671 000e 0B40     		and	r3, r1
 672              	.LVL77:
1275:.\Generated_Source\PSoC4/CapSense.c ****     CapSense_CMOD_CONNECTION_REG = newRegisterValue;
 673              		.loc 1 1275 0
 674 0010 C021     		mov	r1, #192
 675 0012 C900     		lsl	r1, r1, #3
 676 0014 0B43     		orr	r3, r1
 677              	.LVL78:
1276:.\Generated_Source\PSoC4/CapSense.c **** 	
 678              		.loc 1 1276 0
 679 0016 1360     		str	r3, [r2]
1291:.\Generated_Source\PSoC4/CapSense.c **** 
 680              		.loc 1 1291 0
 681              		@ sp needed
 682 0018 08BD     		pop	{r3, pc}
 683              	.L46:
 684 001a C046     		.align	2
 685              	.L45:
 686 001c 00040240 		.word	1073873920
 687 0020 FFF0FFFF 		.word	-3841
 688              		.cfi_endproc
 689              	.LFE52:
 690              		.size	CapSense_RestoreDriveModeAllPins, .-CapSense_RestoreDriveModeAllPins
 691              		.section	.text.CapSense_PreScan,"ax",%progbits
 692              		.align	2
 693              		.global	CapSense_PreScan
 694              		.code	16
 695              		.thumb_func
 696              		.type	CapSense_PreScan, %function
 697              	CapSense_PreScan:
 698              	.LFB54:
1331:.\Generated_Source\PSoC4/CapSense.c **** 
1332:.\Generated_Source\PSoC4/CapSense.c **** 
1333:.\Generated_Source\PSoC4/CapSense.c **** /*******************************************************************************
ARM GAS  C:\Users\merlin\AppData\Local\Temp\ccZOZwzR.s 			page 37


1334:.\Generated_Source\PSoC4/CapSense.c **** * Function Name: CapSense_PreScan
1335:.\Generated_Source\PSoC4/CapSense.c **** ********************************************************************************
1336:.\Generated_Source\PSoC4/CapSense.c **** *
1337:.\Generated_Source\PSoC4/CapSense.c **** * Summary:
1338:.\Generated_Source\PSoC4/CapSense.c **** *  Sets required settings, enables a sensor, removes Vref from AMUX and starts the 
1339:.\Generated_Source\PSoC4/CapSense.c **** *  scanning process of the sensor.
1340:.\Generated_Source\PSoC4/CapSense.c **** *
1341:.\Generated_Source\PSoC4/CapSense.c **** * Parameters:
1342:.\Generated_Source\PSoC4/CapSense.c **** *  sensor:  Sensor number.
1343:.\Generated_Source\PSoC4/CapSense.c **** *
1344:.\Generated_Source\PSoC4/CapSense.c **** * Return:
1345:.\Generated_Source\PSoC4/CapSense.c **** *  None
1346:.\Generated_Source\PSoC4/CapSense.c **** *
1347:.\Generated_Source\PSoC4/CapSense.c **** * Global Variables:
1348:.\Generated_Source\PSoC4/CapSense.c **** * CapSense_widgetNumber[] - This array contains numbers of widgets for each sensor.
1349:.\Generated_Source\PSoC4/CapSense.c **** * CapSense_widgetResolution[] - Contains the widget resolution.
1350:.\Generated_Source\PSoC4/CapSense.c **** *
1351:.\Generated_Source\PSoC4/CapSense.c **** * Side Effects: 
1352:.\Generated_Source\PSoC4/CapSense.c **** *  None
1353:.\Generated_Source\PSoC4/CapSense.c **** *
1354:.\Generated_Source\PSoC4/CapSense.c **** *******************************************************************************/
1355:.\Generated_Source\PSoC4/CapSense.c **** void CapSense_PreScan(uint32 sensor)
1356:.\Generated_Source\PSoC4/CapSense.c **** {
 699              		.loc 1 1356 0
 700              		.cfi_startproc
 701              	.LVL79:
 702 0000 F8B5     		push	{r3, r4, r5, r6, r7, lr}
 703              		.cfi_def_cfa_offset 24
 704              		.cfi_offset 3, -24
 705              		.cfi_offset 4, -20
 706              		.cfi_offset 5, -16
 707              		.cfi_offset 6, -12
 708              		.cfi_offset 7, -8
 709              		.cfi_offset 14, -4
 710 0002 051C     		mov	r5, r0
 711              	.LVL80:
1357:.\Generated_Source\PSoC4/CapSense.c ****     uint8 widget;
1358:.\Generated_Source\PSoC4/CapSense.c ****     uint8 interruptState;
1359:.\Generated_Source\PSoC4/CapSense.c **** 	uint32 newRegValue;
1360:.\Generated_Source\PSoC4/CapSense.c **** 	uint32 counterResolution;
1361:.\Generated_Source\PSoC4/CapSense.c **** 	
1362:.\Generated_Source\PSoC4/CapSense.c **** 	#if(CapSense_PRS_OPTIONS == CapSense__PRS_AUTO)
1363:.\Generated_Source\PSoC4/CapSense.c **** 		uint8 senseClkDivMath;
1364:.\Generated_Source\PSoC4/CapSense.c **** 		uint8 sampleClkDivMath;
1365:.\Generated_Source\PSoC4/CapSense.c **** 	#endif /* (CapSense_PRS_OPTIONS == CapSense__PRS_AUTO) */	
1366:.\Generated_Source\PSoC4/CapSense.c **** 	
1367:.\Generated_Source\PSoC4/CapSense.c **** 	#if ((CapSense_TUNING_METHOD == CapSense__TUNING_AUTO) &&\
1368:.\Generated_Source\PSoC4/CapSense.c **** 		 (0 != CapSense_IS_OVERSAMPLING_EN))
1369:.\Generated_Source\PSoC4/CapSense.c **** 		uint32 oversamplingFactor;
1370:.\Generated_Source\PSoC4/CapSense.c **** 	#endif /* ((CapSense_TUNING_METHOD == CapSense__TUNING_AUTO) &&\
1371:.\Generated_Source\PSoC4/CapSense.c **** 	           (0 != CapSense_IS_OVERSAMPLING_EN)) */
1372:.\Generated_Source\PSoC4/CapSense.c **** 
1373:.\Generated_Source\PSoC4/CapSense.c ****     /* Define widget sensor belongs to */
1374:.\Generated_Source\PSoC4/CapSense.c ****     widget = CapSense_widgetNumber[sensor];
1375:.\Generated_Source\PSoC4/CapSense.c **** 
1376:.\Generated_Source\PSoC4/CapSense.c **** 	/* Recalculate Counter Resolution to MSB 16 bits */
1377:.\Generated_Source\PSoC4/CapSense.c **** 	counterResolution = CapSense_widgetResolution[widget];
ARM GAS  C:\Users\merlin\AppData\Local\Temp\ccZOZwzR.s 			page 38


 712              		.loc 1 1377 0
 713 0004 244C     		ldr	r4, .L48
 714 0006 2768     		ldr	r7, [r4]
 715              	.LVL81:
1378:.\Generated_Source\PSoC4/CapSense.c **** 	
1379:.\Generated_Source\PSoC4/CapSense.c **** 	#if ((CapSense_TUNING_METHOD == CapSense__TUNING_AUTO) &&\
1380:.\Generated_Source\PSoC4/CapSense.c **** 		 (0 != CapSense_IS_OVERSAMPLING_EN))
1381:.\Generated_Source\PSoC4/CapSense.c **** 	    oversamplingFactor = CapSense_GetBitValue(scanSpeedTbl, sensor);
1382:.\Generated_Source\PSoC4/CapSense.c **** 
1383:.\Generated_Source\PSoC4/CapSense.c **** 		if(counterResolution < CapSense_RESOLUTION_16_BITS)
1384:.\Generated_Source\PSoC4/CapSense.c **** 		{
1385:.\Generated_Source\PSoC4/CapSense.c **** 			counterResolution <<= oversamplingFactor;
1386:.\Generated_Source\PSoC4/CapSense.c **** 			counterResolution |= (uint32)(CapSense_RESOLUTION_8_BITS);
1387:.\Generated_Source\PSoC4/CapSense.c **** 		}
1388:.\Generated_Source\PSoC4/CapSense.c **** 	#endif /* ((CapSense_TUNING_METHOD == CapSense__TUNING_AUTO) &&\
1389:.\Generated_Source\PSoC4/CapSense.c **** 	           (0 != CapSense_IS_OVERSAMPLING_EN)) */
1390:.\Generated_Source\PSoC4/CapSense.c **** 	
1391:.\Generated_Source\PSoC4/CapSense.c **** 	#if (0u != CapSense_IS_M0S8PERI_BLOCK)
1392:.\Generated_Source\PSoC4/CapSense.c **** 		CapSense_SenseClk_Stop();
 716              		.loc 1 1392 0
 717 0008 FFF7FEFF 		bl	CapSense_SenseClk_Stop
 718              	.LVL82:
1393:.\Generated_Source\PSoC4/CapSense.c **** 		CapSense_SampleClk_Stop();
 719              		.loc 1 1393 0
 720 000c FFF7FEFF 		bl	CapSense_SampleClk_Stop
 721              	.LVL83:
1394:.\Generated_Source\PSoC4/CapSense.c **** 	#endif /* (0u != CapSense_IS_M0S8PERI_BLOCK) */
1395:.\Generated_Source\PSoC4/CapSense.c **** 
1396:.\Generated_Source\PSoC4/CapSense.c **** 	#if (0u != CapSense_MULTIPLE_FREQUENCY_SET)
1397:.\Generated_Source\PSoC4/CapSense.c **** 		CapSense_SampleClk_SetDividerValue((uint16)CapSense_sampleClkDividerVal[sensor]);
 722              		.loc 1 1397 0
 723 0010 6419     		add	r4, r4, r5
 724 0012 2079     		ldrb	r0, [r4, #4]
 725 0014 0138     		sub	r0, r0, #1
 726 0016 80B2     		uxth	r0, r0
 727 0018 0021     		mov	r1, #0
 728 001a FFF7FEFF 		bl	CapSense_SampleClk_SetFractionalDividerRegister
 729              	.LVL84:
1398:.\Generated_Source\PSoC4/CapSense.c **** 		CapSense_SenseClk_SetDividerValue((uint16)CapSense_senseClkDividerVal[sensor]);
 730              		.loc 1 1398 0
 731 001e 207A     		ldrb	r0, [r4, #8]
 732 0020 0138     		sub	r0, r0, #1
 733 0022 80B2     		uxth	r0, r0
 734 0024 0021     		mov	r1, #0
 735 0026 FFF7FEFF 		bl	CapSense_SenseClk_SetFractionalDividerRegister
 736              	.LVL85:
1399:.\Generated_Source\PSoC4/CapSense.c **** 	#else
1400:.\Generated_Source\PSoC4/CapSense.c **** 		CapSense_SampleClk_SetDividerValue((uint16)CapSense_sampleClkDividerVal);
1401:.\Generated_Source\PSoC4/CapSense.c **** 		CapSense_SenseClk_SetDividerValue((uint16)CapSense_senseClkDividerVal);
1402:.\Generated_Source\PSoC4/CapSense.c **** 	#endif /* (0u != CapSense_MULTIPLE_FREQUENCY_SET) */
1403:.\Generated_Source\PSoC4/CapSense.c **** 
1404:.\Generated_Source\PSoC4/CapSense.c **** 	#if (0u != CapSense_IS_M0S8PERI_BLOCK)
1405:.\Generated_Source\PSoC4/CapSense.c **** 		CapSense_SampleClk_Start();
 737              		.loc 1 1405 0
 738 002a FF20     		mov	r0, #255
 739 002c FFF7FEFF 		bl	CapSense_SampleClk_StartEx
 740              	.LVL86:
ARM GAS  C:\Users\merlin\AppData\Local\Temp\ccZOZwzR.s 			page 39


1406:.\Generated_Source\PSoC4/CapSense.c **** 		CapSense_SenseClk_StartEx(CapSense_SampleClk__DIV_ID);
 741              		.loc 1 1406 0
 742 0030 4020     		mov	r0, #64
 743 0032 FFF7FEFF 		bl	CapSense_SenseClk_StartEx
 744              	.LVL87:
1407:.\Generated_Source\PSoC4/CapSense.c **** 		
1408:.\Generated_Source\PSoC4/CapSense.c **** 		#if(CapSense_PRS_OPTIONS == CapSense__PRS_NONE)
1409:.\Generated_Source\PSoC4/CapSense.c **** 			CyIntDisable(CapSense_ISR_NUMBER);
1410:.\Generated_Source\PSoC4/CapSense.c **** 			CapSense_CSD_CNT_REG = CapSense_ONE_CYCLE;
1411:.\Generated_Source\PSoC4/CapSense.c **** 			while(0u != (CapSense_CSD_CNT_REG & CapSense_RESOLUTION_16_BITS))
1412:.\Generated_Source\PSoC4/CapSense.c **** 			{
1413:.\Generated_Source\PSoC4/CapSense.c **** 			/* Wait until scanning is complete */ 
1414:.\Generated_Source\PSoC4/CapSense.c **** 			}
1415:.\Generated_Source\PSoC4/CapSense.c **** 			CapSense_CSD_INTR_REG = 1u;
1416:.\Generated_Source\PSoC4/CapSense.c **** 			CyIntClearPending(CapSense_ISR_NUMBER);
1417:.\Generated_Source\PSoC4/CapSense.c **** 			CyIntEnable(CapSense_ISR_NUMBER); 
1418:.\Generated_Source\PSoC4/CapSense.c **** 		#endif /* CapSense_PRS_OPTIONS == CapSense__PRS_NONE */
1419:.\Generated_Source\PSoC4/CapSense.c **** 	#endif /* (0u != CapSense_IS_M0S8PERI_BLOCK) */
1420:.\Generated_Source\PSoC4/CapSense.c **** 
1421:.\Generated_Source\PSoC4/CapSense.c **** #if(CapSense_PRS_OPTIONS != CapSense__PRS_NONE)
1422:.\Generated_Source\PSoC4/CapSense.c **** 
1423:.\Generated_Source\PSoC4/CapSense.c **** 	#if(CapSense_TUNING_METHOD == CapSense__TUNING_AUTO)
1424:.\Generated_Source\PSoC4/CapSense.c **** 		if(CapSense_prescalersTuningDone != 0u)
1425:.\Generated_Source\PSoC4/CapSense.c **** 		{
1426:.\Generated_Source\PSoC4/CapSense.c **** 	#endif /* (CapSense_TUNING_METHOD == CapSense__TUNING_AUTO) */
1427:.\Generated_Source\PSoC4/CapSense.c **** 			
1428:.\Generated_Source\PSoC4/CapSense.c **** 			CyIntDisable(CapSense_ISR_NUMBER);
 745              		.loc 1 1428 0
 746 0036 1120     		mov	r0, #17
 747 0038 FFF7FEFF 		bl	CyIntDisable
 748              	.LVL88:
1429:.\Generated_Source\PSoC4/CapSense.c **** 			
1430:.\Generated_Source\PSoC4/CapSense.c **** 			newRegValue = CapSense_CSD_CFG_REG;
 749              		.loc 1 1430 0
 750 003c 174E     		ldr	r6, .L48+4
 751 003e 3268     		ldr	r2, [r6]
 752              	.LVL89:
1431:.\Generated_Source\PSoC4/CapSense.c **** 			newRegValue |= CapSense_CSD_CFG_PRS_SELECT;
 753              		.loc 1 1431 0
 754 0040 4023     		mov	r3, #64
 755 0042 1343     		orr	r3, r2
 756              	.LVL90:
1432:.\Generated_Source\PSoC4/CapSense.c **** 			
1433:.\Generated_Source\PSoC4/CapSense.c **** 			#if(CapSense_PRS_OPTIONS == CapSense__PRS_AUTO)
1434:.\Generated_Source\PSoC4/CapSense.c **** 				
1435:.\Generated_Source\PSoC4/CapSense.c **** 				newRegValue &= ~(CapSense_PRS_MODE_MASK);
1436:.\Generated_Source\PSoC4/CapSense.c **** 				
1437:.\Generated_Source\PSoC4/CapSense.c **** 				#if (0u != CapSense_MULTIPLE_FREQUENCY_SET)
1438:.\Generated_Source\PSoC4/CapSense.c **** 					senseClkDivMath = CapSense_senseClkDividerVal[sensor];
1439:.\Generated_Source\PSoC4/CapSense.c **** 					sampleClkDivMath = CapSense_sampleClkDividerVal[sensor];
1440:.\Generated_Source\PSoC4/CapSense.c **** 				#else
1441:.\Generated_Source\PSoC4/CapSense.c **** 					senseClkDivMath = CapSense_senseClkDividerVal;
1442:.\Generated_Source\PSoC4/CapSense.c **** 					sampleClkDivMath = CapSense_sampleClkDividerVal;
1443:.\Generated_Source\PSoC4/CapSense.c **** 				#endif /* ( CapSense_MULTIPLE_FREQUENCY_SET) */
1444:.\Generated_Source\PSoC4/CapSense.c **** 				
1445:.\Generated_Source\PSoC4/CapSense.c **** 				#if(0u == CapSense_IS_M0S8PERI_BLOCK)
1446:.\Generated_Source\PSoC4/CapSense.c **** 					senseClkDivMath *= sampleClkDivMath;
ARM GAS  C:\Users\merlin\AppData\Local\Temp\ccZOZwzR.s 			page 40


1447:.\Generated_Source\PSoC4/CapSense.c **** 				#endif /* (0u == CapSense_IS_M0S8PERI_BLOCK) */	
1448:.\Generated_Source\PSoC4/CapSense.c **** 				
1449:.\Generated_Source\PSoC4/CapSense.c **** 				if((senseClkDivMath * CapSense_RESOLUTION_12_BITS) <
1450:.\Generated_Source\PSoC4/CapSense.c **** 				   (sampleClkDivMath * CapSense_widgetResolution[widget]))
1451:.\Generated_Source\PSoC4/CapSense.c **** 				{
1452:.\Generated_Source\PSoC4/CapSense.c **** 					newRegValue |= CapSense_CSD_PRS_12_BIT;
1453:.\Generated_Source\PSoC4/CapSense.c **** 				}
1454:.\Generated_Source\PSoC4/CapSense.c **** 			#endif /* (CapSense_PRS_OPTIONS == CapSense__PRS_AUTO) */
1455:.\Generated_Source\PSoC4/CapSense.c **** 			
1456:.\Generated_Source\PSoC4/CapSense.c **** 			CapSense_CSD_CFG_REG = newRegValue;
 757              		.loc 1 1456 0
 758 0044 3360     		str	r3, [r6]
1457:.\Generated_Source\PSoC4/CapSense.c **** 			
1458:.\Generated_Source\PSoC4/CapSense.c **** 			CyIntEnable(CapSense_ISR_NUMBER);
 759              		.loc 1 1458 0
 760 0046 1120     		mov	r0, #17
 761 0048 FFF7FEFF 		bl	CyIntEnable
 762              	.LVL91:
1459:.\Generated_Source\PSoC4/CapSense.c **** 			
1460:.\Generated_Source\PSoC4/CapSense.c **** 	#if(CapSense_TUNING_METHOD == CapSense__TUNING_AUTO)	
1461:.\Generated_Source\PSoC4/CapSense.c **** 		}
1462:.\Generated_Source\PSoC4/CapSense.c **** 	#endif /* (CapSense_PRS_OPTIONS != CapSense__PRS_NONE) */
1463:.\Generated_Source\PSoC4/CapSense.c **** 
1464:.\Generated_Source\PSoC4/CapSense.c **** #endif /* (CapSense_PRS_OPTIONS == CapSense__PRS_NONE) */
1465:.\Generated_Source\PSoC4/CapSense.c **** 	
1466:.\Generated_Source\PSoC4/CapSense.c **** 	/* Set Idac Value */
1467:.\Generated_Source\PSoC4/CapSense.c **** 	CyIntDisable(CapSense_ISR_NUMBER);
 763              		.loc 1 1467 0
 764 004c 1120     		mov	r0, #17
 765 004e FFF7FEFF 		bl	CyIntDisable
 766              	.LVL92:
1468:.\Generated_Source\PSoC4/CapSense.c ****     newRegValue = CapSense_CSD_IDAC_REG;
 767              		.loc 1 1468 0
 768 0052 1349     		ldr	r1, .L48+8
 769 0054 0A68     		ldr	r2, [r1]
 770              	.LVL93:
1469:.\Generated_Source\PSoC4/CapSense.c ****  
1470:.\Generated_Source\PSoC4/CapSense.c **** #if (CapSense_IDAC_CNT == 1u)    
1471:.\Generated_Source\PSoC4/CapSense.c **** 	newRegValue &= ~(CapSense_CSD_IDAC1_DATA_MASK);
1472:.\Generated_Source\PSoC4/CapSense.c **** 	newRegValue |= CapSense_modulationIDAC[sensor];
1473:.\Generated_Source\PSoC4/CapSense.c **** #else
1474:.\Generated_Source\PSoC4/CapSense.c **** 	newRegValue &= ~(CapSense_CSD_IDAC1_DATA_MASK | CapSense_CSD_IDAC2_DATA_MASK);
 771              		.loc 1 1474 0
 772 0056 134B     		ldr	r3, .L48+12
 773 0058 1A40     		and	r2, r3
 774              	.LVL94:
1475:.\Generated_Source\PSoC4/CapSense.c **** 	newRegValue |= (CapSense_modulationIDAC[sensor] | 
 775              		.loc 1 1475 0
 776 005a 207B     		ldrb	r0, [r4, #12]
1476:.\Generated_Source\PSoC4/CapSense.c **** 							(uint32)((uint32)CapSense_compensationIDAC[sensor] <<
 777              		.loc 1 1476 0
 778 005c 237C     		ldrb	r3, [r4, #16]
 779 005e 1B04     		lsl	r3, r3, #16
1475:.\Generated_Source\PSoC4/CapSense.c **** 	newRegValue |= (CapSense_modulationIDAC[sensor] | 
 780              		.loc 1 1475 0
 781 0060 0343     		orr	r3, r0
 782 0062 1343     		orr	r3, r2
ARM GAS  C:\Users\merlin\AppData\Local\Temp\ccZOZwzR.s 			page 41


 783              	.LVL95:
1477:.\Generated_Source\PSoC4/CapSense.c **** 							CapSense_CSD_IDAC2_DATA_OFFSET));                               
1478:.\Generated_Source\PSoC4/CapSense.c **** #endif /* (CapSense_IDAC_CNT == 1u) */
1479:.\Generated_Source\PSoC4/CapSense.c **** 	
1480:.\Generated_Source\PSoC4/CapSense.c **** 	CapSense_CSD_IDAC_REG = newRegValue;
 784              		.loc 1 1480 0
 785 0064 0B60     		str	r3, [r1]
1481:.\Generated_Source\PSoC4/CapSense.c **** 
1482:.\Generated_Source\PSoC4/CapSense.c **** #if(CapSense_CMOD_PREGARGE_OPTION == CapSense__CAPPRIOBUF)
1483:.\Generated_Source\PSoC4/CapSense.c **** 	newRegValue = CapSense_CMOD_CONNECTION_REG;
1484:.\Generated_Source\PSoC4/CapSense.c **** 	newRegValue &= ~(CapSense_CSD_CMOD_CONNECTION_MASK);
1485:.\Generated_Source\PSoC4/CapSense.c **** 	newRegValue |= CapSense_CSD_CMOD_TO_AMUXBUS_A;
1486:.\Generated_Source\PSoC4/CapSense.c **** 	CapSense_CMOD_CONNECTION_REG = newRegValue;
1487:.\Generated_Source\PSoC4/CapSense.c **** 	
1488:.\Generated_Source\PSoC4/CapSense.c **** 	newRegValue = CapSense_CMOD_PORT_PC_REG;
1489:.\Generated_Source\PSoC4/CapSense.c **** 	newRegValue &= ~(CapSense_CSD_CMOD_PC_MASK);
1490:.\Generated_Source\PSoC4/CapSense.c **** 	newRegValue |= CapSense_CMOD_PC_HIGH_Z_MODE;
1491:.\Generated_Source\PSoC4/CapSense.c **** 	CapSense_CMOD_PORT_PC_REG = newRegValue;
1492:.\Generated_Source\PSoC4/CapSense.c **** #endif /* (CapSense_CMOD_PREGARGE_OPTION == CapSense__CAPPRIOBUF) */
1493:.\Generated_Source\PSoC4/CapSense.c **** 
1494:.\Generated_Source\PSoC4/CapSense.c ****     /* Disconnect Vref Buffer from AMUX */
1495:.\Generated_Source\PSoC4/CapSense.c **** 	newRegValue = CapSense_CSD_CFG_REG;
 786              		.loc 1 1495 0
 787 0066 3468     		ldr	r4, [r6]
 788              	.LVL96:
1496:.\Generated_Source\PSoC4/CapSense.c **** 	newRegValue &= ~(CapSense_PRECHARGE_CONFIG_MASK);
 789              		.loc 1 1496 0
 790 0068 0F4B     		ldr	r3, .L48+16
 791 006a 1C40     		and	r4, r3
 792              	.LVL97:
1497:.\Generated_Source\PSoC4/CapSense.c **** 	newRegValue |= CapSense_CTANK_PRECHARGE_CONFIG;
 793              		.loc 1 1497 0
 794 006c 0F4B     		ldr	r3, .L48+20
 795 006e 1C43     		orr	r4, r3
 796              	.LVL98:
1498:.\Generated_Source\PSoC4/CapSense.c **** 	
1499:.\Generated_Source\PSoC4/CapSense.c **** 	CyIntEnable(CapSense_ISR_NUMBER);
 797              		.loc 1 1499 0
 798 0070 1120     		mov	r0, #17
 799 0072 FFF7FEFF 		bl	CyIntEnable
 800              	.LVL99:
1500:.\Generated_Source\PSoC4/CapSense.c **** 	
1501:.\Generated_Source\PSoC4/CapSense.c ****     /* Enable Sensor */
1502:.\Generated_Source\PSoC4/CapSense.c ****     CapSense_EnableScanSlot(sensor);
 801              		.loc 1 1502 0
 802 0076 281C     		mov	r0, r5
 803 0078 FFF7FEFF 		bl	CapSense_EnableSensor
 804              	.LVL100:
1503:.\Generated_Source\PSoC4/CapSense.c ****     
1504:.\Generated_Source\PSoC4/CapSense.c **** 	interruptState = CyEnterCriticalSection();
 805              		.loc 1 1504 0
 806 007c FFF7FEFF 		bl	CyEnterCriticalSection
 807              	.LVL101:
 808 0080 051C     		mov	r5, r0
 809              	.LVL102:
1505:.\Generated_Source\PSoC4/CapSense.c **** 	CapSense_CSD_CFG_REG = newRegValue;
 810              		.loc 1 1505 0
ARM GAS  C:\Users\merlin\AppData\Local\Temp\ccZOZwzR.s 			page 42


 811 0082 3460     		str	r4, [r6]
1506:.\Generated_Source\PSoC4/CapSense.c **** 	
1507:.\Generated_Source\PSoC4/CapSense.c **** 	/* `#START CapSense_PreSettlingDelay_Debug` */
1508:.\Generated_Source\PSoC4/CapSense.c **** 
1509:.\Generated_Source\PSoC4/CapSense.c **** 	/* `#END` */
1510:.\Generated_Source\PSoC4/CapSense.c **** 	
1511:.\Generated_Source\PSoC4/CapSense.c **** 	CyDelayCycles(CapSense_GLITCH_ELIMINATION_CYCLES);
 812              		.loc 1 1511 0
 813 0084 0020     		mov	r0, #0
 814 0086 FFF7FEFF 		bl	CyDelayCycles
 815              	.LVL103:
1512:.\Generated_Source\PSoC4/CapSense.c **** 	
1513:.\Generated_Source\PSoC4/CapSense.c **** 	/* `#START CapSense_PreScan_Debug` */
1514:.\Generated_Source\PSoC4/CapSense.c **** 
1515:.\Generated_Source\PSoC4/CapSense.c **** 	/* `#END` */
1516:.\Generated_Source\PSoC4/CapSense.c **** 	
1517:.\Generated_Source\PSoC4/CapSense.c ****     CapSense_CSD_CNT_REG = counterResolution;
 816              		.loc 1 1517 0
 817 008a 094B     		ldr	r3, .L48+24
 818 008c 1F60     		str	r7, [r3]
1518:.\Generated_Source\PSoC4/CapSense.c ****     CyExitCriticalSection(interruptState);
 819              		.loc 1 1518 0
 820 008e 281C     		mov	r0, r5
 821 0090 FFF7FEFF 		bl	CyExitCriticalSection
 822              	.LVL104:
1519:.\Generated_Source\PSoC4/CapSense.c **** }
 823              		.loc 1 1519 0
 824              		@ sp needed
 825              	.LVL105:
 826              	.LVL106:
 827              	.LVL107:
 828 0094 F8BD     		pop	{r3, r4, r5, r6, r7, pc}
 829              	.L49:
 830 0096 C046     		.align	2
 831              	.L48:
 832 0098 00000000 		.word	.LANCHOR1
 833 009c 04002840 		.word	1076363268
 834 00a0 08002840 		.word	1076363272
 835 00a4 00FF80FF 		.word	-8323328
 836 00a8 FF1FDFFF 		.word	-2154497
 837 00ac 20002000 		.word	2097184
 838 00b0 0C002840 		.word	1076363276
 839              		.cfi_endproc
 840              	.LFE54:
 841              		.size	CapSense_PreScan, .-CapSense_PreScan
 842              		.section	.text.CapSense_ScanSensor,"ax",%progbits
 843              		.align	2
 844              		.global	CapSense_ScanSensor
 845              		.code	16
 846              		.thumb_func
 847              		.type	CapSense_ScanSensor, %function
 848              	CapSense_ScanSensor:
 849              	.LFB40:
 575:.\Generated_Source\PSoC4/CapSense.c ****     /* Clears status/control variable and set sensorIndex */
 850              		.loc 1 575 0
 851              		.cfi_startproc
 852              	.LVL108:
ARM GAS  C:\Users\merlin\AppData\Local\Temp\ccZOZwzR.s 			page 43


 853 0000 08B5     		push	{r3, lr}
 854              		.cfi_def_cfa_offset 8
 855              		.cfi_offset 3, -8
 856              		.cfi_offset 14, -4
 577:.\Generated_Source\PSoC4/CapSense.c ****     CapSense_sensorIndex = (uint8)sensor;
 857              		.loc 1 577 0
 858 0002 054B     		ldr	r3, .L51
 859 0004 0022     		mov	r2, #0
 860 0006 1A70     		strb	r2, [r3]
 578:.\Generated_Source\PSoC4/CapSense.c ****     
 861              		.loc 1 578 0
 862 0008 C2B2     		uxtb	r2, r0
 863 000a 9A71     		strb	r2, [r3, #6]
 581:.\Generated_Source\PSoC4/CapSense.c ****     CapSense_PreScan(sensor);
 864              		.loc 1 581 0
 865 000c 8122     		mov	r2, #129
 866 000e 1A70     		strb	r2, [r3]
 582:.\Generated_Source\PSoC4/CapSense.c **** }
 867              		.loc 1 582 0
 868 0010 FFF7FEFF 		bl	CapSense_PreScan
 869              	.LVL109:
 583:.\Generated_Source\PSoC4/CapSense.c **** 
 870              		.loc 1 583 0
 871              		@ sp needed
 872 0014 08BD     		pop	{r3, pc}
 873              	.L52:
 874 0016 C046     		.align	2
 875              	.L51:
 876 0018 00000000 		.word	.LANCHOR0
 877              		.cfi_endproc
 878              	.LFE40:
 879              		.size	CapSense_ScanSensor, .-CapSense_ScanSensor
 880              		.section	.text.CapSense_PostScan,"ax",%progbits
 881              		.align	2
 882              		.global	CapSense_PostScan
 883              		.code	16
 884              		.thumb_func
 885              		.type	CapSense_PostScan, %function
 886              	CapSense_PostScan:
 887              	.LFB55:
1520:.\Generated_Source\PSoC4/CapSense.c **** 
1521:.\Generated_Source\PSoC4/CapSense.c **** 
1522:.\Generated_Source\PSoC4/CapSense.c **** /*******************************************************************************
1523:.\Generated_Source\PSoC4/CapSense.c **** * Function Name: CapSense_PostScan
1524:.\Generated_Source\PSoC4/CapSense.c **** ********************************************************************************
1525:.\Generated_Source\PSoC4/CapSense.c **** *
1526:.\Generated_Source\PSoC4/CapSense.c **** * Summary:
1527:.\Generated_Source\PSoC4/CapSense.c **** *  Stores the results of measurement in the CapSense_sensorRaw[] array,
1528:.\Generated_Source\PSoC4/CapSense.c **** *  sets the scanning sensor in the non-sampling state, turns off Idac(Current Source IDAC),
1529:.\Generated_Source\PSoC4/CapSense.c **** *  disconnects the IDAC(Sink mode), and applies Vref on AMUX.
1530:.\Generated_Source\PSoC4/CapSense.c **** *
1531:.\Generated_Source\PSoC4/CapSense.c **** * Parameters:
1532:.\Generated_Source\PSoC4/CapSense.c **** *  sensor:  Sensor number.
1533:.\Generated_Source\PSoC4/CapSense.c **** *
1534:.\Generated_Source\PSoC4/CapSense.c **** * Return:
1535:.\Generated_Source\PSoC4/CapSense.c **** *  None
1536:.\Generated_Source\PSoC4/CapSense.c **** *
ARM GAS  C:\Users\merlin\AppData\Local\Temp\ccZOZwzR.s 			page 44


1537:.\Generated_Source\PSoC4/CapSense.c **** * Global Variables:
1538:.\Generated_Source\PSoC4/CapSense.c **** *  CapSense_sensorRaw[] - used to store sensors raw data.
1539:.\Generated_Source\PSoC4/CapSense.c **** *
1540:.\Generated_Source\PSoC4/CapSense.c **** * Side Effects: 
1541:.\Generated_Source\PSoC4/CapSense.c **** *  None
1542:.\Generated_Source\PSoC4/CapSense.c **** *
1543:.\Generated_Source\PSoC4/CapSense.c **** *******************************************************************************/
1544:.\Generated_Source\PSoC4/CapSense.c **** void CapSense_PostScan(uint32 sensor)
1545:.\Generated_Source\PSoC4/CapSense.c **** {	
 888              		.loc 1 1545 0
 889              		.cfi_startproc
 890              	.LVL110:
 891 0000 08B5     		push	{r3, lr}
 892              		.cfi_def_cfa_offset 8
 893              		.cfi_offset 3, -8
 894              		.cfi_offset 14, -4
1546:.\Generated_Source\PSoC4/CapSense.c **** 	uint32 newRegValue;
1547:.\Generated_Source\PSoC4/CapSense.c **** #if ((CapSense_TUNING_METHOD == CapSense__TUNING_AUTO) &&\
1548:.\Generated_Source\PSoC4/CapSense.c **** 	 (0 != CapSense_IS_OVERSAMPLING_EN))
1549:.\Generated_Source\PSoC4/CapSense.c ****     uint32 oversamplingFactor;
1550:.\Generated_Source\PSoC4/CapSense.c ****     uint32 widget;
1551:.\Generated_Source\PSoC4/CapSense.c **** #endif /* ((CapSense_TUNING_METHOD == CapSense__TUNING_AUTO) &&\
1552:.\Generated_Source\PSoC4/CapSense.c **** 		   (0 != CapSense_IS_OVERSAMPLING_EN)) */	
1553:.\Generated_Source\PSoC4/CapSense.c **** 
1554:.\Generated_Source\PSoC4/CapSense.c **** 	/* `#START CapSense_PostScan_Debug` */
1555:.\Generated_Source\PSoC4/CapSense.c **** 
1556:.\Generated_Source\PSoC4/CapSense.c **** 	/* `#END` */
1557:.\Generated_Source\PSoC4/CapSense.c **** 
1558:.\Generated_Source\PSoC4/CapSense.c **** 
1559:.\Generated_Source\PSoC4/CapSense.c ****     /* Read SlotResult from Raw Counter */
1560:.\Generated_Source\PSoC4/CapSense.c ****     CapSense_sensorRaw[sensor]  = (uint16)CapSense_CSD_CNT_REG;
 895              		.loc 1 1560 0
 896 0002 0E4B     		ldr	r3, .L54
 897 0004 1A68     		ldr	r2, [r3]
 898 0006 4300     		lsl	r3, r0, #1
 899 0008 0D49     		ldr	r1, .L54+4
 900 000a CB18     		add	r3, r1, r3
 901 000c 9A80     		strh	r2, [r3, #4]
1561:.\Generated_Source\PSoC4/CapSense.c **** 	
1562:.\Generated_Source\PSoC4/CapSense.c **** #if ((CapSense_TUNING_METHOD == CapSense__TUNING_AUTO) &&\
1563:.\Generated_Source\PSoC4/CapSense.c **** 	 (0 != CapSense_IS_OVERSAMPLING_EN))
1564:.\Generated_Source\PSoC4/CapSense.c **** 	widget = CapSense_widgetNumber[sensor];
1565:.\Generated_Source\PSoC4/CapSense.c **** 	if(CapSense_widgetResolution[widget] < CapSense_RESOLUTION_16_BITS)
1566:.\Generated_Source\PSoC4/CapSense.c **** 	{
1567:.\Generated_Source\PSoC4/CapSense.c **** 		oversamplingFactor = CapSense_GetBitValue(scanSpeedTbl, sensor);
1568:.\Generated_Source\PSoC4/CapSense.c **** 		CapSense_sensorRaw[sensor] >>= oversamplingFactor;
1569:.\Generated_Source\PSoC4/CapSense.c **** 	}
1570:.\Generated_Source\PSoC4/CapSense.c **** #endif /* ((CapSense_TUNING_METHOD == CapSense__TUNING_AUTO) &&\
1571:.\Generated_Source\PSoC4/CapSense.c **** 		   (0 != CapSense_IS_OVERSAMPLING_EN)) */
1572:.\Generated_Source\PSoC4/CapSense.c **** 
1573:.\Generated_Source\PSoC4/CapSense.c ****     /* Disable Sensor */
1574:.\Generated_Source\PSoC4/CapSense.c ****     CapSense_DisableScanSlot(sensor);
 902              		.loc 1 1574 0
 903 000e FFF7FEFF 		bl	CapSense_DisableSensor
 904              	.LVL111:
1575:.\Generated_Source\PSoC4/CapSense.c **** 
1576:.\Generated_Source\PSoC4/CapSense.c **** 	CyIntDisable(CapSense_ISR_NUMBER);
ARM GAS  C:\Users\merlin\AppData\Local\Temp\ccZOZwzR.s 			page 45


 905              		.loc 1 1576 0
 906 0012 1120     		mov	r0, #17
 907 0014 FFF7FEFF 		bl	CyIntDisable
 908              	.LVL112:
1577:.\Generated_Source\PSoC4/CapSense.c **** 	
1578:.\Generated_Source\PSoC4/CapSense.c **** #if(CapSense_CMOD_PREGARGE_OPTION == CapSense__CAPPRIOBUF)
1579:.\Generated_Source\PSoC4/CapSense.c **** 	newRegValue = CapSense_CMOD_CONNECTION_REG;
1580:.\Generated_Source\PSoC4/CapSense.c **** 	newRegValue &= ~(CapSense_CSD_CMOD_CONNECTION_MASK);
1581:.\Generated_Source\PSoC4/CapSense.c **** 	newRegValue |= CapSense_CSD_CMOD_TO_AMUXBUS_B;
1582:.\Generated_Source\PSoC4/CapSense.c **** 	CapSense_CMOD_CONNECTION_REG = newRegValue;
1583:.\Generated_Source\PSoC4/CapSense.c **** 	
1584:.\Generated_Source\PSoC4/CapSense.c **** 	newRegValue = CapSense_CMOD_PORT_PC_REG;
1585:.\Generated_Source\PSoC4/CapSense.c **** 	newRegValue &= ~(CapSense_CSD_CMOD_PC_MASK);
1586:.\Generated_Source\PSoC4/CapSense.c **** 	newRegValue |= CapSense_CMOD_PC_STRONG_MODE;
1587:.\Generated_Source\PSoC4/CapSense.c **** 	CapSense_CMOD_PORT_PC_REG = newRegValue;
1588:.\Generated_Source\PSoC4/CapSense.c **** 		
1589:.\Generated_Source\PSoC4/CapSense.c **** 	newRegValue = CapSense_CMOD_PORT_DR_REG;
1590:.\Generated_Source\PSoC4/CapSense.c ****     newRegValue &= ~(CapSense_CMOD_DR_MASK);
1591:.\Generated_Source\PSoC4/CapSense.c **** 	newRegValue |= CapSense_CMOD_DR_CONFIG;
1592:.\Generated_Source\PSoC4/CapSense.c ****     CapSense_CMOD_PORT_DR_REG = newRegValue;    
1593:.\Generated_Source\PSoC4/CapSense.c **** #endif /* (CapSense_CMOD_PREGARGE_OPTION == CapSense__CAPPRIOBUF) */
1594:.\Generated_Source\PSoC4/CapSense.c **** 	
1595:.\Generated_Source\PSoC4/CapSense.c **** 	/* Connect Vref Buffer to AMUX bus  */
1596:.\Generated_Source\PSoC4/CapSense.c **** 	newRegValue = CapSense_CSD_CFG_REG;
 909              		.loc 1 1596 0
 910 0018 0A4A     		ldr	r2, .L54+8
 911 001a 1168     		ldr	r1, [r2]
 912              	.LVL113:
1597:.\Generated_Source\PSoC4/CapSense.c **** 	newRegValue &= ~(CapSense_PRECHARGE_CONFIG_MASK);
 913              		.loc 1 1597 0
 914 001c 0A4B     		ldr	r3, .L54+12
 915 001e 0B40     		and	r3, r1
 916              	.LVL114:
1598:.\Generated_Source\PSoC4/CapSense.c **** 	newRegValue |= CapSense_CMOD_PRECHARGE_CONFIG;
 917              		.loc 1 1598 0
 918 0020 A021     		mov	r1, #160
 919 0022 0902     		lsl	r1, r1, #8
 920 0024 0B43     		orr	r3, r1
 921              	.LVL115:
1599:.\Generated_Source\PSoC4/CapSense.c **** 	CapSense_CSD_CFG_REG = newRegValue;
 922              		.loc 1 1599 0
 923 0026 1360     		str	r3, [r2]
1600:.\Generated_Source\PSoC4/CapSense.c **** 
1601:.\Generated_Source\PSoC4/CapSense.c **** 	/* Set Idac Value = 0 */
1602:.\Generated_Source\PSoC4/CapSense.c **** #if (CapSense_IDAC_CNT == 1u)   
1603:.\Generated_Source\PSoC4/CapSense.c **** 	CapSense_CSD_IDAC_REG &= ~(CapSense_CSD_IDAC1_DATA_MASK);
1604:.\Generated_Source\PSoC4/CapSense.c **** #else
1605:.\Generated_Source\PSoC4/CapSense.c **** 	CapSense_CSD_IDAC_REG &= ~(CapSense_CSD_IDAC1_DATA_MASK | CapSense_CSD_IDAC2_DATA_MASK);          
 924              		.loc 1 1605 0
 925 0028 084A     		ldr	r2, .L54+16
 926 002a 1168     		ldr	r1, [r2]
 927 002c 084B     		ldr	r3, .L54+20
 928              	.LVL116:
 929 002e 0B40     		and	r3, r1
 930 0030 1360     		str	r3, [r2]
 931              	.LVL117:
1606:.\Generated_Source\PSoC4/CapSense.c **** #endif /* (CapSense_IDAC_CNT == 1u) */
ARM GAS  C:\Users\merlin\AppData\Local\Temp\ccZOZwzR.s 			page 46


1607:.\Generated_Source\PSoC4/CapSense.c **** 
1608:.\Generated_Source\PSoC4/CapSense.c **** 	CyIntEnable(CapSense_ISR_NUMBER);
 932              		.loc 1 1608 0
 933 0032 1120     		mov	r0, #17
 934 0034 FFF7FEFF 		bl	CyIntEnable
 935              	.LVL118:
1609:.\Generated_Source\PSoC4/CapSense.c **** }
 936              		.loc 1 1609 0
 937              		@ sp needed
 938 0038 08BD     		pop	{r3, pc}
 939              	.L55:
 940 003a C046     		.align	2
 941              	.L54:
 942 003c 0C002840 		.word	1076363276
 943 0040 00000000 		.word	.LANCHOR0
 944 0044 04002840 		.word	1076363268
 945 0048 FF1FDFFF 		.word	-2154497
 946 004c 08002840 		.word	1076363272
 947 0050 00FF80FF 		.word	-8323328
 948              		.cfi_endproc
 949              	.LFE55:
 950              		.size	CapSense_PostScan, .-CapSense_PostScan
 951              		.section	.text.CapSense_EnableShieldElectrode,"ax",%progbits
 952              		.align	2
 953              		.global	CapSense_EnableShieldElectrode
 954              		.code	16
 955              		.thumb_func
 956              		.type	CapSense_EnableShieldElectrode, %function
 957              	CapSense_EnableShieldElectrode:
 958              	.LFB56:
1610:.\Generated_Source\PSoC4/CapSense.c **** 
1611:.\Generated_Source\PSoC4/CapSense.c **** 
1612:.\Generated_Source\PSoC4/CapSense.c **** /*******************************************************************************
1613:.\Generated_Source\PSoC4/CapSense.c **** * Function Name: CapSense_EnableShieldElectrode
1614:.\Generated_Source\PSoC4/CapSense.c **** ********************************************************************************
1615:.\Generated_Source\PSoC4/CapSense.c **** *
1616:.\Generated_Source\PSoC4/CapSense.c **** * Summary:
1617:.\Generated_Source\PSoC4/CapSense.c **** *  This API enables or disables the shield electrode on a specified port pin.
1618:.\Generated_Source\PSoC4/CapSense.c **** *
1619:.\Generated_Source\PSoC4/CapSense.c **** * Parameters:
1620:.\Generated_Source\PSoC4/CapSense.c **** *  portNumber: contains the shield electrode port number (0, 1, 2).
1621:.\Generated_Source\PSoC4/CapSense.c **** *  pinNumber: contains the shield electrode pin number (0, 1, 2, ... , 7).
1622:.\Generated_Source\PSoC4/CapSense.c **** *
1623:.\Generated_Source\PSoC4/CapSense.c **** * Return:
1624:.\Generated_Source\PSoC4/CapSense.c **** *  None
1625:.\Generated_Source\PSoC4/CapSense.c **** *
1626:.\Generated_Source\PSoC4/CapSense.c **** * Global Variables:
1627:.\Generated_Source\PSoC4/CapSense.c **** *  CapSense_prtCfgTbl[] - Contains pointers to the port config registers for each port.
1628:.\Generated_Source\PSoC4/CapSense.c **** *  CapSense_prtSelTbl[] - Contains pointers to the HSIOM registers for each port.
1629:.\Generated_Source\PSoC4/CapSense.c **** *
1630:.\Generated_Source\PSoC4/CapSense.c **** * Side Effects: 
1631:.\Generated_Source\PSoC4/CapSense.c **** *  None
1632:.\Generated_Source\PSoC4/CapSense.c **** *
1633:.\Generated_Source\PSoC4/CapSense.c **** *******************************************************************************/
1634:.\Generated_Source\PSoC4/CapSense.c **** void CapSense_EnableShieldElectrode(uint32 pinNumber, uint32 portNumber)
1635:.\Generated_Source\PSoC4/CapSense.c **** {
 959              		.loc 1 1635 0
ARM GAS  C:\Users\merlin\AppData\Local\Temp\ccZOZwzR.s 			page 47


 960              		.cfi_startproc
 961              	.LVL119:
 962 0000 70B5     		push	{r4, r5, r6, lr}
 963              		.cfi_def_cfa_offset 16
 964              		.cfi_offset 4, -16
 965              		.cfi_offset 5, -12
 966              		.cfi_offset 6, -8
 967              		.cfi_offset 14, -4
1636:.\Generated_Source\PSoC4/CapSense.c **** 	uint32 newRegValue;
1637:.\Generated_Source\PSoC4/CapSense.c **** 	
1638:.\Generated_Source\PSoC4/CapSense.c **** 	*CapSense_prtCfgTbl[portNumber] &= ~(CapSense_CSD_PIN_MODE_MASK << (pinNumber * CapSense_PC_PIN_CF
 968              		.loc 1 1638 0
 969 0002 0B4D     		ldr	r5, .L57
 970 0004 8900     		lsl	r1, r1, #2
 971              	.LVL120:
 972 0006 4E59     		ldr	r6, [r1, r5]
 973 0008 3368     		ldr	r3, [r6]
 974 000a 4200     		lsl	r2, r0, #1
 975 000c 1218     		add	r2, r2, r0
 976 000e 0724     		mov	r4, #7
 977 0010 9440     		lsl	r4, r4, r2
 978 0012 A343     		bic	r3, r4
 979 0014 3360     		str	r3, [r6]
1639:.\Generated_Source\PSoC4/CapSense.c **** 	newRegValue = *CapSense_prtSelTbl[portNumber];
 980              		.loc 1 1639 0
 981 0016 6918     		add	r1, r5, r1
 982 0018 096A     		ldr	r1, [r1, #32]
 983 001a 0B68     		ldr	r3, [r1]
 984              	.LVL121:
1640:.\Generated_Source\PSoC4/CapSense.c ****     newRegValue &= ~(CapSense_CSD_HSIOM_MASK << (pinNumber * CapSense_HSIOM_PIN_CFG_SIZE));
 985              		.loc 1 1640 0
 986 001c 8000     		lsl	r0, r0, #2
 987              	.LVL122:
 988 001e 0F22     		mov	r2, #15
 989 0020 8240     		lsl	r2, r2, r0
 990 0022 9343     		bic	r3, r2
 991              	.LVL123:
1641:.\Generated_Source\PSoC4/CapSense.c ****     newRegValue |= (CapSense_CSD_SHIELD_PORT_MODE << (pinNumber * CapSense_HSIOM_PIN_CFG_SIZE));
 992              		.loc 1 1641 0
 993 0024 0522     		mov	r2, #5
 994 0026 8240     		lsl	r2, r2, r0
 995 0028 101C     		mov	r0, r2
 996 002a 1843     		orr	r0, r3
 997              	.LVL124:
1642:.\Generated_Source\PSoC4/CapSense.c ****     *CapSense_prtSelTbl[portNumber] = newRegValue;
 998              		.loc 1 1642 0
 999 002c 0860     		str	r0, [r1]
1643:.\Generated_Source\PSoC4/CapSense.c **** }
 1000              		.loc 1 1643 0
 1001              		@ sp needed
 1002 002e 70BD     		pop	{r4, r5, r6, pc}
 1003              	.L58:
 1004              		.align	2
 1005              	.L57:
 1006 0030 00000000 		.word	.LANCHOR2
 1007              		.cfi_endproc
 1008              	.LFE56:
ARM GAS  C:\Users\merlin\AppData\Local\Temp\ccZOZwzR.s 			page 48


 1009              		.size	CapSense_EnableShieldElectrode, .-CapSense_EnableShieldElectrode
 1010              		.section	.text.CapSense_SetShieldDelay,"ax",%progbits
 1011              		.align	2
 1012              		.global	CapSense_SetShieldDelay
 1013              		.code	16
 1014              		.thumb_func
 1015              		.type	CapSense_SetShieldDelay, %function
 1016              	CapSense_SetShieldDelay:
 1017              	.LFB57:
1644:.\Generated_Source\PSoC4/CapSense.c **** 
1645:.\Generated_Source\PSoC4/CapSense.c **** 
1646:.\Generated_Source\PSoC4/CapSense.c **** /*******************************************************************************
1647:.\Generated_Source\PSoC4/CapSense.c **** * Function Name: CapSense_SetShieldDelay
1648:.\Generated_Source\PSoC4/CapSense.c **** ********************************************************************************
1649:.\Generated_Source\PSoC4/CapSense.c **** *
1650:.\Generated_Source\PSoC4/CapSense.c **** * Summary:
1651:.\Generated_Source\PSoC4/CapSense.c **** *  This API sets a shield delay.
1652:.\Generated_Source\PSoC4/CapSense.c **** *
1653:.\Generated_Source\PSoC4/CapSense.c **** * Parameters:
1654:.\Generated_Source\PSoC4/CapSense.c **** *  delay:  shield delay value:
1655:.\Generated_Source\PSoC4/CapSense.c **** *                               0 - no delay
1656:.\Generated_Source\PSoC4/CapSense.c **** *                               1 - 1 cycle delay
1657:.\Generated_Source\PSoC4/CapSense.c **** *                               2 - 2 cycles delay
1658:.\Generated_Source\PSoC4/CapSense.c **** *
1659:.\Generated_Source\PSoC4/CapSense.c **** * Return:
1660:.\Generated_Source\PSoC4/CapSense.c **** *  None
1661:.\Generated_Source\PSoC4/CapSense.c **** *
1662:.\Generated_Source\PSoC4/CapSense.c **** * Global Variables:
1663:.\Generated_Source\PSoC4/CapSense.c **** *  None
1664:.\Generated_Source\PSoC4/CapSense.c **** *
1665:.\Generated_Source\PSoC4/CapSense.c **** * Side Effects: 
1666:.\Generated_Source\PSoC4/CapSense.c **** *  None
1667:.\Generated_Source\PSoC4/CapSense.c **** *
1668:.\Generated_Source\PSoC4/CapSense.c **** *******************************************************************************/
1669:.\Generated_Source\PSoC4/CapSense.c **** void CapSense_SetShieldDelay(uint32 delay)
1670:.\Generated_Source\PSoC4/CapSense.c **** {
 1018              		.loc 1 1670 0
 1019              		.cfi_startproc
 1020              	.LVL125:
1671:.\Generated_Source\PSoC4/CapSense.c ****     uint32 newRegValue;
1672:.\Generated_Source\PSoC4/CapSense.c ****     
1673:.\Generated_Source\PSoC4/CapSense.c ****     delay &= 0x03u;
 1021              		.loc 1 1673 0
 1022 0000 0323     		mov	r3, #3
 1023 0002 1840     		and	r0, r3
 1024              	.LVL126:
1674:.\Generated_Source\PSoC4/CapSense.c ****     
1675:.\Generated_Source\PSoC4/CapSense.c ****     newRegValue = CapSense_CSD_CFG_REG;
 1025              		.loc 1 1675 0
 1026 0004 024B     		ldr	r3, .L60
 1027 0006 1A68     		ldr	r2, [r3]
 1028              	.LVL127:
1676:.\Generated_Source\PSoC4/CapSense.c ****     newRegValue &= (uint32)(~(uint32)CapSense_SHIELD_DELAY);    
1677:.\Generated_Source\PSoC4/CapSense.c ****     newRegValue |= (delay << CapSense_CSD_CFG_SHIELD_DELAY_POS);    
 1029              		.loc 1 1677 0
 1030 0008 4002     		lsl	r0, r0, #9
 1031              	.LVL128:
ARM GAS  C:\Users\merlin\AppData\Local\Temp\ccZOZwzR.s 			page 49


 1032 000a 1043     		orr	r0, r2
 1033              	.LVL129:
1678:.\Generated_Source\PSoC4/CapSense.c ****     CapSense_CSD_CFG_REG = newRegValue;
 1034              		.loc 1 1678 0
 1035 000c 1860     		str	r0, [r3]
1679:.\Generated_Source\PSoC4/CapSense.c **** }
 1036              		.loc 1 1679 0
 1037              		@ sp needed
 1038 000e 7047     		bx	lr
 1039              	.L61:
 1040              		.align	2
 1041              	.L60:
 1042 0010 04002840 		.word	1076363268
 1043              		.cfi_endproc
 1044              	.LFE57:
 1045              		.size	CapSense_SetShieldDelay, .-CapSense_SetShieldDelay
 1046              		.section	.text.CapSense_Init,"ax",%progbits
 1047              		.align	2
 1048              		.global	CapSense_Init
 1049              		.code	16
 1050              		.thumb_func
 1051              		.type	CapSense_Init, %function
 1052              	CapSense_Init:
 1053              	.LFB34:
 188:.\Generated_Source\PSoC4/CapSense.c **** 	uint32 curSensor;
 1054              		.loc 1 188 0
 1055              		.cfi_startproc
 1056 0000 08B5     		push	{r3, lr}
 1057              		.cfi_def_cfa_offset 8
 1058              		.cfi_offset 3, -8
 1059              		.cfi_offset 14, -4
 1060              	.LVL130:
 219:.\Generated_Source\PSoC4/CapSense.c **** 	{
 1061              		.loc 1 219 0
 1062 0002 0023     		mov	r3, #0
 1063 0004 03E0     		b	.L63
 1064              	.LVL131:
 1065              	.L64:
 221:.\Generated_Source\PSoC4/CapSense.c **** 	}
 1066              		.loc 1 221 0 discriminator 3
 1067 0006 0021     		mov	r1, #0
 1068 0008 064A     		ldr	r2, .L65
 1069 000a D154     		strb	r1, [r2, r3]
 219:.\Generated_Source\PSoC4/CapSense.c **** 	{
 1070              		.loc 1 219 0 discriminator 3
 1071 000c 0133     		add	r3, r3, #1
 1072              	.LVL132:
 1073              	.L63:
 219:.\Generated_Source\PSoC4/CapSense.c **** 	{
 1074              		.loc 1 219 0 is_stmt 0 discriminator 1
 1075 000e 002B     		cmp	r3, #0
 1076 0010 F9D0     		beq	.L64
 224:.\Generated_Source\PSoC4/CapSense.c ****     CapSense_SetShieldDelay(CapSense_SHIELD_DELAY );
 1077              		.loc 1 224 0 is_stmt 1
 1078 0012 FFF7FEFF 		bl	CapSense_CsdHwBlockInit
 1079              	.LVL133:
 225:.\Generated_Source\PSoC4/CapSense.c **** 	
ARM GAS  C:\Users\merlin\AppData\Local\Temp\ccZOZwzR.s 			page 50


 1080              		.loc 1 225 0
 1081 0016 0020     		mov	r0, #0
 1082 0018 FFF7FEFF 		bl	CapSense_SetShieldDelay
 1083              	.LVL134:
 228:.\Generated_Source\PSoC4/CapSense.c **** }
 1084              		.loc 1 228 0
 1085 001c FFF7FEFF 		bl	CapSense_ClearSensors
 1086              	.LVL135:
 229:.\Generated_Source\PSoC4/CapSense.c **** 
 1087              		.loc 1 229 0
 1088              		@ sp needed
 1089 0020 08BD     		pop	{r3, pc}
 1090              	.L66:
 1091 0022 C046     		.align	2
 1092              	.L65:
 1093 0024 00000000 		.word	CapSense_unscannedSnsDriveMode
 1094              		.cfi_endproc
 1095              	.LFE34:
 1096              		.size	CapSense_Init, .-CapSense_Init
 1097              		.section	.text.CapSense_ReadCurrentScanningSensor,"ax",%progbits
 1098              		.align	2
 1099              		.global	CapSense_ReadCurrentScanningSensor
 1100              		.code	16
 1101              		.thumb_func
 1102              		.type	CapSense_ReadCurrentScanningSensor, %function
 1103              	CapSense_ReadCurrentScanningSensor:
 1104              	.LFB58:
1680:.\Generated_Source\PSoC4/CapSense.c **** 
1681:.\Generated_Source\PSoC4/CapSense.c **** 
1682:.\Generated_Source\PSoC4/CapSense.c **** /*******************************************************************************
1683:.\Generated_Source\PSoC4/CapSense.c **** * Function Name: CapSense_ReadCurrentScanningSensor
1684:.\Generated_Source\PSoC4/CapSense.c **** ********************************************************************************
1685:.\Generated_Source\PSoC4/CapSense.c **** *
1686:.\Generated_Source\PSoC4/CapSense.c **** * Summary:
1687:.\Generated_Source\PSoC4/CapSense.c **** *  This API returns scanning sensor number when sensor scan is in progress. 
1688:.\Generated_Source\PSoC4/CapSense.c **** *  When sensor scan is completed the API returns 
1689:.\Generated_Source\PSoC4/CapSense.c **** *  $INSTANCE_NAME`_NOT_SENSOR (0xFFFFFFFF) (when no sensor is scanned).
1690:.\Generated_Source\PSoC4/CapSense.c **** *
1691:.\Generated_Source\PSoC4/CapSense.c **** * Parameters:
1692:.\Generated_Source\PSoC4/CapSense.c **** *	None.
1693:.\Generated_Source\PSoC4/CapSense.c **** *
1694:.\Generated_Source\PSoC4/CapSense.c **** * Return:
1695:.\Generated_Source\PSoC4/CapSense.c **** *  Returns Sensor number if sensor is being scanned and 
1696:.\Generated_Source\PSoC4/CapSense.c **** *  $INSTANCE_NAME`_NOT_SENSOR (0xFFFFFFFF) if scanning is complete.
1697:.\Generated_Source\PSoC4/CapSense.c **** *
1698:.\Generated_Source\PSoC4/CapSense.c **** * Global Variables:
1699:.\Generated_Source\PSoC4/CapSense.c **** *  CapSense_sensorIndex - the sensor number is being scanned.
1700:.\Generated_Source\PSoC4/CapSense.c **** *
1701:.\Generated_Source\PSoC4/CapSense.c **** * Side Effects: 
1702:.\Generated_Source\PSoC4/CapSense.c **** *  None
1703:.\Generated_Source\PSoC4/CapSense.c **** *
1704:.\Generated_Source\PSoC4/CapSense.c **** *******************************************************************************/
1705:.\Generated_Source\PSoC4/CapSense.c **** uint32 CapSense_ReadCurrentScanningSensor(void)
1706:.\Generated_Source\PSoC4/CapSense.c **** {
 1105              		.loc 1 1706 0
 1106              		.cfi_startproc
1707:.\Generated_Source\PSoC4/CapSense.c ****     return ((uint32)(( 0u != (CapSense_csdStatusVar & CapSense_SW_STS_BUSY)) ? 
ARM GAS  C:\Users\merlin\AppData\Local\Temp\ccZOZwzR.s 			page 51


 1107              		.loc 1 1707 0
 1108 0000 054B     		ldr	r3, .L70
 1109 0002 1B78     		ldrb	r3, [r3]
 1110 0004 DB07     		lsl	r3, r3, #31
 1111 0006 03D5     		bpl	.L69
 1112              		.loc 1 1707 0 is_stmt 0 discriminator 1
 1113 0008 034B     		ldr	r3, .L70
 1114 000a 9879     		ldrb	r0, [r3, #6]
 1115 000c C0B2     		uxtb	r0, r0
 1116 000e 01E0     		b	.L68
 1117              	.L69:
 1118              		.loc 1 1707 0
 1119 0010 0120     		mov	r0, #1
 1120 0012 4042     		neg	r0, r0
 1121              	.L68:
1708:.\Generated_Source\PSoC4/CapSense.c ****                      CapSense_sensorIndex : CapSense_NOT_SENSOR));
1709:.\Generated_Source\PSoC4/CapSense.c **** }
 1122              		.loc 1 1709 0 is_stmt 1 discriminator 4
 1123              		@ sp needed
 1124 0014 7047     		bx	lr
 1125              	.L71:
 1126 0016 C046     		.align	2
 1127              	.L70:
 1128 0018 00000000 		.word	.LANCHOR0
 1129              		.cfi_endproc
 1130              	.LFE58:
 1131              		.size	CapSense_ReadCurrentScanningSensor, .-CapSense_ReadCurrentScanningSensor
 1132              		.section	.text.CapSense_GetBitValue,"ax",%progbits
 1133              		.align	2
 1134              		.global	CapSense_GetBitValue
 1135              		.code	16
 1136              		.thumb_func
 1137              		.type	CapSense_GetBitValue, %function
 1138              	CapSense_GetBitValue:
 1139              	.LFB59:
1710:.\Generated_Source\PSoC4/CapSense.c **** 
1711:.\Generated_Source\PSoC4/CapSense.c **** 
1712:.\Generated_Source\PSoC4/CapSense.c **** /*******************************************************************************
1713:.\Generated_Source\PSoC4/CapSense.c **** * Function Name: CapSense_GetBitValue
1714:.\Generated_Source\PSoC4/CapSense.c **** ********************************************************************************
1715:.\Generated_Source\PSoC4/CapSense.c **** *
1716:.\Generated_Source\PSoC4/CapSense.c **** * Summary:
1717:.\Generated_Source\PSoC4/CapSense.c **** *  The API returns a bit status of the bit in the table array which contains the masks.
1718:.\Generated_Source\PSoC4/CapSense.c **** * 
1719:.\Generated_Source\PSoC4/CapSense.c **** * Parameters:
1720:.\Generated_Source\PSoC4/CapSense.c **** *  table[] - array with bit masks.
1721:.\Generated_Source\PSoC4/CapSense.c **** *  position - position of bit in the table[] array.
1722:.\Generated_Source\PSoC4/CapSense.c **** *
1723:.\Generated_Source\PSoC4/CapSense.c **** * Return:
1724:.\Generated_Source\PSoC4/CapSense.c **** *  0 - bit is not set; 1 - bit is set.
1725:.\Generated_Source\PSoC4/CapSense.c **** *
1726:.\Generated_Source\PSoC4/CapSense.c **** * Global Variables:
1727:.\Generated_Source\PSoC4/CapSense.c **** *  None
1728:.\Generated_Source\PSoC4/CapSense.c **** *
1729:.\Generated_Source\PSoC4/CapSense.c **** * Side Effects:
1730:.\Generated_Source\PSoC4/CapSense.c **** *  None
1731:.\Generated_Source\PSoC4/CapSense.c **** *
ARM GAS  C:\Users\merlin\AppData\Local\Temp\ccZOZwzR.s 			page 52


1732:.\Generated_Source\PSoC4/CapSense.c **** *******************************************************************************/
1733:.\Generated_Source\PSoC4/CapSense.c **** uint32 CapSense_GetBitValue(const uint8 table[], uint32 position)
1734:.\Generated_Source\PSoC4/CapSense.c **** {
 1140              		.loc 1 1734 0
 1141              		.cfi_startproc
 1142              	.LVL136:
1735:.\Generated_Source\PSoC4/CapSense.c ****     uint32 offset;
1736:.\Generated_Source\PSoC4/CapSense.c **** 	uint8 enMask;
1737:.\Generated_Source\PSoC4/CapSense.c **** 	
1738:.\Generated_Source\PSoC4/CapSense.c **** 	/* position is divided by 8 to calculate the element of the 
1739:.\Generated_Source\PSoC4/CapSense.c **** 	   table[] array that contains the enable bit 
1740:.\Generated_Source\PSoC4/CapSense.c **** 	   for an appropriate sensor.
1741:.\Generated_Source\PSoC4/CapSense.c **** 	*/
1742:.\Generated_Source\PSoC4/CapSense.c **** 	offset = (position >> 3u);
 1143              		.loc 1 1742 0
 1144 0000 CA08     		lsr	r2, r1, #3
 1145              	.LVL137:
1743:.\Generated_Source\PSoC4/CapSense.c **** 	
1744:.\Generated_Source\PSoC4/CapSense.c **** 	/* The enMask calculation for the appropriate sensor. Operation (position & 0x07u) 
1745:.\Generated_Source\PSoC4/CapSense.c **** 	   intends to calculate the enable bit offset for the 8-bit element of the 
1746:.\Generated_Source\PSoC4/CapSense.c **** 	   table[] array.
1747:.\Generated_Source\PSoC4/CapSense.c **** 	*/
1748:.\Generated_Source\PSoC4/CapSense.c **** 	enMask = 0x01u << (position & 0x07u);
 1146              		.loc 1 1748 0
 1147 0002 0723     		mov	r3, #7
 1148 0004 1940     		and	r1, r3
 1149              	.LVL138:
 1150 0006 063B     		sub	r3, r3, #6
 1151 0008 8B40     		lsl	r3, r3, r1
 1152 000a 191C     		mov	r1, r3
 1153              	.LVL139:
1749:.\Generated_Source\PSoC4/CapSense.c ****     
1750:.\Generated_Source\PSoC4/CapSense.c ****     return ((0u !=(table[offset] & enMask)) ? 1Lu : 0Lu);
 1154              		.loc 1 1750 0
 1155 000c 835C     		ldrb	r3, [r0, r2]
 1156 000e 1942     		tst	r1, r3
 1157 0010 01D0     		beq	.L74
 1158 0012 0120     		mov	r0, #1
 1159              	.LVL140:
 1160 0014 00E0     		b	.L73
 1161              	.LVL141:
 1162              	.L74:
 1163 0016 0020     		mov	r0, #0
 1164              	.LVL142:
 1165              	.L73:
1751:.\Generated_Source\PSoC4/CapSense.c **** }
 1166              		.loc 1 1751 0 discriminator 4
 1167              		@ sp needed
 1168 0018 7047     		bx	lr
 1169              		.cfi_endproc
 1170              	.LFE59:
 1171              		.size	CapSense_GetBitValue, .-CapSense_GetBitValue
 1172 001a C046     		.section	.text.CapSense_FindNextSensor,"ax",%progbits
 1173              		.align	2
 1174              		.global	CapSense_FindNextSensor
 1175              		.code	16
 1176              		.thumb_func
ARM GAS  C:\Users\merlin\AppData\Local\Temp\ccZOZwzR.s 			page 53


 1177              		.type	CapSense_FindNextSensor, %function
 1178              	CapSense_FindNextSensor:
 1179              	.LFB39:
 527:.\Generated_Source\PSoC4/CapSense.c ****     uint32 enableFlag;
 1180              		.loc 1 527 0
 1181              		.cfi_startproc
 1182              	.LVL143:
 1183 0000 10B5     		push	{r4, lr}
 1184              		.cfi_def_cfa_offset 8
 1185              		.cfi_offset 4, -8
 1186              		.cfi_offset 14, -4
 1187 0002 041C     		mov	r4, r0
 1188              	.LVL144:
 1189              	.L77:
 534:.\Generated_Source\PSoC4/CapSense.c ****         if(snsIndex == CapSense_TOTAL_SENSOR_COUNT)
 1190              		.loc 1 534 0
 1191 0004 0134     		add	r4, r4, #1
 1192              	.LVL145:
 1193 0006 E4B2     		uxtb	r4, r4
 1194              	.LVL146:
 535:.\Generated_Source\PSoC4/CapSense.c ****         {
 1195              		.loc 1 535 0
 1196 0008 012C     		cmp	r4, #1
 1197 000a 06D0     		beq	.L76
 539:.\Generated_Source\PSoC4/CapSense.c ****     }    
 1198              		.loc 1 539 0
 1199 000c 0448     		ldr	r0, .L78
 1200 000e 0830     		add	r0, r0, #8
 1201 0010 211C     		mov	r1, r4
 1202 0012 FFF7FEFF 		bl	CapSense_GetBitValue
 1203              	.LVL147:
 541:.\Generated_Source\PSoC4/CapSense.c ****     
 1204              		.loc 1 541 0
 1205 0016 0028     		cmp	r0, #0
 1206 0018 F4D0     		beq	.L77
 1207              	.LVL148:
 1208              	.L76:
 544:.\Generated_Source\PSoC4/CapSense.c **** 
 1209              		.loc 1 544 0
 1210 001a 201C     		mov	r0, r4
 1211              		@ sp needed
 1212              	.LVL149:
 1213 001c 10BD     		pop	{r4, pc}
 1214              	.L79:
 1215 001e C046     		.align	2
 1216              	.L78:
 1217 0020 00000000 		.word	.LANCHOR0
 1218              		.cfi_endproc
 1219              	.LFE39:
 1220              		.size	CapSense_FindNextSensor, .-CapSense_FindNextSensor
 1221              		.section	.text.CapSense_ScanEnabledWidgets,"ax",%progbits
 1222              		.align	2
 1223              		.global	CapSense_ScanEnabledWidgets
 1224              		.code	16
 1225              		.thumb_func
 1226              		.type	CapSense_ScanEnabledWidgets, %function
 1227              	CapSense_ScanEnabledWidgets:
ARM GAS  C:\Users\merlin\AppData\Local\Temp\ccZOZwzR.s 			page 54


 1228              	.LFB42:
 699:.\Generated_Source\PSoC4/CapSense.c ****     /* Clears status/control variable and set sensorIndex */
 1229              		.loc 1 699 0
 1230              		.cfi_startproc
 1231 0000 10B5     		push	{r4, lr}
 1232              		.cfi_def_cfa_offset 8
 1233              		.cfi_offset 4, -8
 1234              		.cfi_offset 14, -4
 701:.\Generated_Source\PSoC4/CapSense.c ****     CapSense_sensorIndex = 0xFFu;
 1235              		.loc 1 701 0
 1236 0002 0B4C     		ldr	r4, .L82
 1237 0004 0023     		mov	r3, #0
 1238 0006 2370     		strb	r3, [r4]
 702:.\Generated_Source\PSoC4/CapSense.c ****     
 1239              		.loc 1 702 0
 1240 0008 FF33     		add	r3, r3, #255
 1241 000a A371     		strb	r3, [r4, #6]
 705:.\Generated_Source\PSoC4/CapSense.c **** 
 1242              		.loc 1 705 0
 1243 000c A079     		ldrb	r0, [r4, #6]
 1244 000e C0B2     		uxtb	r0, r0
 1245 0010 FFF7FEFF 		bl	CapSense_FindNextSensor
 1246              	.LVL150:
 1247 0014 A071     		strb	r0, [r4, #6]
 708:.\Generated_Source\PSoC4/CapSense.c ****     {
 1248              		.loc 1 708 0
 1249 0016 A379     		ldrb	r3, [r4, #6]
 1250 0018 002B     		cmp	r3, #0
 1251 001a 07D1     		bne	.L80
 710:.\Generated_Source\PSoC4/CapSense.c ****         CapSense_PreScan((uint32)CapSense_sensorIndex);
 1252              		.loc 1 710 0
 1253 001c 2178     		ldrb	r1, [r4]
 1254 001e 0122     		mov	r2, #1
 1255 0020 0A43     		orr	r2, r1
 1256 0022 2270     		strb	r2, [r4]
 711:.\Generated_Source\PSoC4/CapSense.c ****     }
 1257              		.loc 1 711 0
 1258 0024 A079     		ldrb	r0, [r4, #6]
 1259 0026 C0B2     		uxtb	r0, r0
 1260 0028 FFF7FEFF 		bl	CapSense_PreScan
 1261              	.LVL151:
 1262              	.L80:
 713:.\Generated_Source\PSoC4/CapSense.c **** 
 1263              		.loc 1 713 0
 1264              		@ sp needed
 1265 002c 10BD     		pop	{r4, pc}
 1266              	.L83:
 1267 002e C046     		.align	2
 1268              	.L82:
 1269 0030 00000000 		.word	.LANCHOR0
 1270              		.cfi_endproc
 1271              	.LFE42:
 1272              		.size	CapSense_ScanEnabledWidgets, .-CapSense_ScanEnabledWidgets
 1273              		.section	.text.CapSense_SetBitValue,"ax",%progbits
 1274              		.align	2
 1275              		.global	CapSense_SetBitValue
 1276              		.code	16
ARM GAS  C:\Users\merlin\AppData\Local\Temp\ccZOZwzR.s 			page 55


 1277              		.thumb_func
 1278              		.type	CapSense_SetBitValue, %function
 1279              	CapSense_SetBitValue:
 1280              	.LFB60:
1752:.\Generated_Source\PSoC4/CapSense.c **** 
1753:.\Generated_Source\PSoC4/CapSense.c **** 
1754:.\Generated_Source\PSoC4/CapSense.c **** /*******************************************************************************
1755:.\Generated_Source\PSoC4/CapSense.c **** * Function Name: CapSense_SetBitValue
1756:.\Generated_Source\PSoC4/CapSense.c **** ********************************************************************************
1757:.\Generated_Source\PSoC4/CapSense.c **** *
1758:.\Generated_Source\PSoC4/CapSense.c **** * Summary:
1759:.\Generated_Source\PSoC4/CapSense.c **** *  The API sets a bit status of the bit in the table array which contains masks.
1760:.\Generated_Source\PSoC4/CapSense.c **** * 
1761:.\Generated_Source\PSoC4/CapSense.c **** * Parameters:
1762:.\Generated_Source\PSoC4/CapSense.c **** *  table[] - array with bit masks.
1763:.\Generated_Source\PSoC4/CapSense.c **** *  position - position of bit in the table[] array.
1764:.\Generated_Source\PSoC4/CapSense.c **** *  value: 0 - bit is not set; 1 - bit is set.
1765:.\Generated_Source\PSoC4/CapSense.c **** *
1766:.\Generated_Source\PSoC4/CapSense.c **** * Return:
1767:.\Generated_Source\PSoC4/CapSense.c **** *  None
1768:.\Generated_Source\PSoC4/CapSense.c **** *
1769:.\Generated_Source\PSoC4/CapSense.c **** * Global Variables:
1770:.\Generated_Source\PSoC4/CapSense.c **** *  None
1771:.\Generated_Source\PSoC4/CapSense.c **** *
1772:.\Generated_Source\PSoC4/CapSense.c **** * Side Effects:
1773:.\Generated_Source\PSoC4/CapSense.c **** *  None
1774:.\Generated_Source\PSoC4/CapSense.c **** *
1775:.\Generated_Source\PSoC4/CapSense.c **** *******************************************************************************/
1776:.\Generated_Source\PSoC4/CapSense.c **** void CapSense_SetBitValue(uint8 table[], uint32 position, uint32 value)
1777:.\Generated_Source\PSoC4/CapSense.c **** {
 1281              		.loc 1 1777 0
 1282              		.cfi_startproc
 1283              	.LVL152:
 1284 0000 10B5     		push	{r4, lr}
 1285              		.cfi_def_cfa_offset 8
 1286              		.cfi_offset 4, -8
 1287              		.cfi_offset 14, -4
1778:.\Generated_Source\PSoC4/CapSense.c ****     uint32 offset;
1779:.\Generated_Source\PSoC4/CapSense.c **** 	uint8 enMask;
1780:.\Generated_Source\PSoC4/CapSense.c **** 	
1781:.\Generated_Source\PSoC4/CapSense.c **** 	/* position is divided by 8 to calculate the element of the 
1782:.\Generated_Source\PSoC4/CapSense.c **** 	   table[] array that contains the enable bit 
1783:.\Generated_Source\PSoC4/CapSense.c **** 	   for an appropriate sensor.
1784:.\Generated_Source\PSoC4/CapSense.c **** 	*/
1785:.\Generated_Source\PSoC4/CapSense.c **** 	offset = (position >> 3u);
 1288              		.loc 1 1785 0
 1289 0002 CC08     		lsr	r4, r1, #3
 1290              	.LVL153:
1786:.\Generated_Source\PSoC4/CapSense.c **** 	
1787:.\Generated_Source\PSoC4/CapSense.c **** 	/* The enMask calculation for the appropriate sensor. Operation (position & 0x07u) 
1788:.\Generated_Source\PSoC4/CapSense.c **** 	   intends to calculate the enable bit offset for the 8-bit element of the 
1789:.\Generated_Source\PSoC4/CapSense.c **** 	   table[] array.
1790:.\Generated_Source\PSoC4/CapSense.c **** 	*/
1791:.\Generated_Source\PSoC4/CapSense.c **** 	enMask = 0x01u << (position & 0x07u);
 1291              		.loc 1 1791 0
 1292 0004 0723     		mov	r3, #7
 1293 0006 1940     		and	r1, r3
ARM GAS  C:\Users\merlin\AppData\Local\Temp\ccZOZwzR.s 			page 56


 1294              	.LVL154:
 1295 0008 063B     		sub	r3, r3, #6
 1296 000a 8B40     		lsl	r3, r3, r1
 1297 000c D9B2     		uxtb	r1, r3
 1298              	.LVL155:
1792:.\Generated_Source\PSoC4/CapSense.c **** 	
1793:.\Generated_Source\PSoC4/CapSense.c **** 	if(0u != value)
 1299              		.loc 1 1793 0
 1300 000e 002A     		cmp	r2, #0
 1301 0010 04D0     		beq	.L85
1794:.\Generated_Source\PSoC4/CapSense.c **** 	{
1795:.\Generated_Source\PSoC4/CapSense.c **** 		table[offset] |= enMask;
 1302              		.loc 1 1795 0
 1303 0012 0419     		add	r4, r0, r4
 1304              	.LVL156:
 1305 0014 2378     		ldrb	r3, [r4]
 1306 0016 1943     		orr	r1, r3
 1307              	.LVL157:
 1308 0018 2170     		strb	r1, [r4]
 1309 001a 03E0     		b	.L84
 1310              	.LVL158:
 1311              	.L85:
1796:.\Generated_Source\PSoC4/CapSense.c **** 	}
1797:.\Generated_Source\PSoC4/CapSense.c **** 	else
1798:.\Generated_Source\PSoC4/CapSense.c **** 	{
1799:.\Generated_Source\PSoC4/CapSense.c **** 		table[offset] &= (uint8)~(enMask);
 1312              		.loc 1 1799 0
 1313 001c 0419     		add	r4, r0, r4
 1314              	.LVL159:
 1315 001e 2378     		ldrb	r3, [r4]
 1316 0020 8B43     		bic	r3, r1
 1317 0022 2370     		strb	r3, [r4]
 1318              	.LVL160:
 1319              	.L84:
1800:.\Generated_Source\PSoC4/CapSense.c **** 	}
1801:.\Generated_Source\PSoC4/CapSense.c **** }
 1320              		.loc 1 1801 0
 1321              		@ sp needed
 1322 0024 10BD     		pop	{r4, pc}
 1323              		.cfi_endproc
 1324              	.LFE60:
 1325              		.size	CapSense_SetBitValue, .-CapSense_SetBitValue
 1326 0026 C046     		.section	.text.CapSense_ScanWidget,"ax",%progbits
 1327              		.align	2
 1328              		.global	CapSense_ScanWidget
 1329              		.code	16
 1330              		.thumb_func
 1331              		.type	CapSense_ScanWidget, %function
 1332              	CapSense_ScanWidget:
 1333              	.LFB41:
 614:.\Generated_Source\PSoC4/CapSense.c ****     uint32 sensorsPerWidget;
 1334              		.loc 1 614 0
 1335              		.cfi_startproc
 1336              	.LVL161:
 1337 0000 38B5     		push	{r3, r4, r5, lr}
 1338              		.cfi_def_cfa_offset 16
 1339              		.cfi_offset 3, -16
ARM GAS  C:\Users\merlin\AppData\Local\Temp\ccZOZwzR.s 			page 57


 1340              		.cfi_offset 4, -12
 1341              		.cfi_offset 5, -8
 1342              		.cfi_offset 14, -4
 620:.\Generated_Source\PSoC4/CapSense.c **** 	
 1343              		.loc 1 620 0
 1344 0002 1D4B     		ldr	r3, .L97
 1345 0004 1D5C     		ldrb	r5, [r3, r0]
 1346 0006 1D4B     		ldr	r3, .L97+4
 1347 0008 9D71     		strb	r5, [r3, #6]
 623:.\Generated_Source\PSoC4/CapSense.c **** 	
 1348              		.loc 1 623 0
 1349 000a 1D4B     		ldr	r3, .L97+8
 1350 000c 1B5C     		ldrb	r3, [r3, r0]
 1351              	.LVL162:
 626:.\Generated_Source\PSoC4/CapSense.c **** 	{
 1352              		.loc 1 626 0
 1353 000e 002B     		cmp	r3, #0
 1354 0010 00D1     		bne	.L88
 628:.\Generated_Source\PSoC4/CapSense.c **** 	}
 1355              		.loc 1 628 0
 1356 0012 0133     		add	r3, r3, #1
 1357              	.LVL163:
 1358              	.L88:
 632:.\Generated_Source\PSoC4/CapSense.c **** 
 1359              		.loc 1 632 0
 1360 0014 ED18     		add	r5, r5, r3
 1361 0016 013D     		sub	r5, r5, #1
 1362              	.LVL164:
 635:.\Generated_Source\PSoC4/CapSense.c **** 	{
 1363              		.loc 1 635 0
 1364 0018 0023     		mov	r3, #0
 1365              	.LVL165:
 1366 001a 05E0     		b	.L89
 1367              	.LVL166:
 1368              	.L90:
 638:.\Generated_Source\PSoC4/CapSense.c **** 	}
 1369              		.loc 1 638 0 discriminator 3
 1370 001c 174A     		ldr	r2, .L97+4
 1371 001e D218     		add	r2, r2, r3
 1372 0020 117A     		ldrb	r1, [r2, #8]
 1373 0022 184A     		ldr	r2, .L97+12
 1374 0024 D154     		strb	r1, [r2, r3]
 635:.\Generated_Source\PSoC4/CapSense.c **** 	{
 1375              		.loc 1 635 0 discriminator 3
 1376 0026 0133     		add	r3, r3, #1
 1377              	.LVL167:
 1378              	.L89:
 635:.\Generated_Source\PSoC4/CapSense.c **** 	{
 1379              		.loc 1 635 0 is_stmt 0 discriminator 1
 1380 0028 002B     		cmp	r3, #0
 1381 002a F7D0     		beq	.L90
 1382 002c 0024     		mov	r4, #0
 1383 002e 14E0     		b	.L91
 1384              	.LVL168:
 1385              	.L94:
 645:.\Generated_Source\PSoC4/CapSense.c **** 		{
 1386              		.loc 1 645 0 is_stmt 1
ARM GAS  C:\Users\merlin\AppData\Local\Temp\ccZOZwzR.s 			page 58


 1387 0030 124B     		ldr	r3, .L97+4
 1388 0032 9B79     		ldrb	r3, [r3, #6]
 1389 0034 DBB2     		uxtb	r3, r3
 1390 0036 A342     		cmp	r3, r4
 1391 0038 08D8     		bhi	.L92
 645:.\Generated_Source\PSoC4/CapSense.c **** 		{
 1392              		.loc 1 645 0 is_stmt 0 discriminator 1
 1393 003a AC42     		cmp	r4, r5
 1394 003c 06D8     		bhi	.L92
 648:.\Generated_Source\PSoC4/CapSense.c **** 		}
 1395              		.loc 1 648 0 is_stmt 1
 1396 003e 0F48     		ldr	r0, .L97+4
 1397 0040 0830     		add	r0, r0, #8
 1398 0042 211C     		mov	r1, r4
 1399 0044 0122     		mov	r2, #1
 1400 0046 FFF7FEFF 		bl	CapSense_SetBitValue
 1401              	.LVL169:
 1402 004a 05E0     		b	.L93
 1403              	.L92:
 653:.\Generated_Source\PSoC4/CapSense.c **** 		}
 1404              		.loc 1 653 0
 1405 004c 0B48     		ldr	r0, .L97+4
 1406 004e 0830     		add	r0, r0, #8
 1407 0050 211C     		mov	r1, r4
 1408 0052 0022     		mov	r2, #0
 1409 0054 FFF7FEFF 		bl	CapSense_SetBitValue
 1410              	.LVL170:
 1411              	.L93:
 642:.\Generated_Source\PSoC4/CapSense.c **** 	{
 1412              		.loc 1 642 0 discriminator 2
 1413 0058 0134     		add	r4, r4, #1
 1414              	.LVL171:
 1415              	.L91:
 642:.\Generated_Source\PSoC4/CapSense.c **** 	{
 1416              		.loc 1 642 0 is_stmt 0 discriminator 1
 1417 005a 002C     		cmp	r4, #0
 1418 005c E8D0     		beq	.L94
 658:.\Generated_Source\PSoC4/CapSense.c ****     {
 1419              		.loc 1 658 0 is_stmt 1
 1420 005e 074B     		ldr	r3, .L97+4
 1421 0060 9B79     		ldrb	r3, [r3, #6]
 1422 0062 002B     		cmp	r3, #0
 1423 0064 06D1     		bne	.L87
 661:.\Generated_Source\PSoC4/CapSense.c **** 		/* Scan first sensor of widget*/ 
 1424              		.loc 1 661 0
 1425 0066 054B     		ldr	r3, .L97+4
 1426 0068 4122     		mov	r2, #65
 1427 006a 1A70     		strb	r2, [r3]
 663:.\Generated_Source\PSoC4/CapSense.c ****     }
 1428              		.loc 1 663 0
 1429 006c 9879     		ldrb	r0, [r3, #6]
 1430 006e C0B2     		uxtb	r0, r0
 1431 0070 FFF7FEFF 		bl	CapSense_PreScan
 1432              	.LVL172:
 1433              	.L87:
 665:.\Generated_Source\PSoC4/CapSense.c **** #endif /* (0u != CapSense_CSHL_API_GENERATE) */
 1434              		.loc 1 665 0
ARM GAS  C:\Users\merlin\AppData\Local\Temp\ccZOZwzR.s 			page 59


 1435              		@ sp needed
 1436              	.LVL173:
 1437              	.LVL174:
 1438 0074 38BD     		pop	{r3, r4, r5, pc}
 1439              	.L98:
 1440 0076 C046     		.align	2
 1441              	.L97:
 1442 0078 00000000 		.word	CapSense_rawDataIndex
 1443 007c 00000000 		.word	.LANCHOR0
 1444 0080 00000000 		.word	CapSense_numberOfSensors
 1445 0084 00000000 		.word	CapSense_sensorEnableMaskBackup
 1446              		.cfi_endproc
 1447              	.LFE41:
 1448              		.size	CapSense_ScanWidget, .-CapSense_ScanWidget
 1449              		.section	.text.CapSense_GetSenseClkDivider,"ax",%progbits
 1450              		.align	2
 1451              		.global	CapSense_GetSenseClkDivider
 1452              		.code	16
 1453              		.thumb_func
 1454              		.type	CapSense_GetSenseClkDivider, %function
 1455              	CapSense_GetSenseClkDivider:
 1456              	.LFB61:
1802:.\Generated_Source\PSoC4/CapSense.c **** 
1803:.\Generated_Source\PSoC4/CapSense.c **** 
1804:.\Generated_Source\PSoC4/CapSense.c **** 
1805:.\Generated_Source\PSoC4/CapSense.c **** /*******************************************************************************
1806:.\Generated_Source\PSoC4/CapSense.c **** * Function Name: CapSense_GetSenseClkDivider
1807:.\Generated_Source\PSoC4/CapSense.c **** ********************************************************************************
1808:.\Generated_Source\PSoC4/CapSense.c **** *
1809:.\Generated_Source\PSoC4/CapSense.c **** * Summary:
1810:.\Generated_Source\PSoC4/CapSense.c **** *  This API returns a value of the sense clock divider for the  sensor.
1811:.\Generated_Source\PSoC4/CapSense.c **** *
1812:.\Generated_Source\PSoC4/CapSense.c **** * Parameters:
1813:.\Generated_Source\PSoC4/CapSense.c **** *  sensor: sensor index. The index value can be 
1814:.\Generated_Source\PSoC4/CapSense.c **** *  from 0 to (CapSense_TOTAL_SENSOR_COUNT-1).
1815:.\Generated_Source\PSoC4/CapSense.c **** *
1816:.\Generated_Source\PSoC4/CapSense.c **** * Return:
1817:.\Generated_Source\PSoC4/CapSense.c **** *  This API returns the sense clock divider of the sensor. 
1818:.\Generated_Source\PSoC4/CapSense.c **** *
1819:.\Generated_Source\PSoC4/CapSense.c **** * Global Variables:
1820:.\Generated_Source\PSoC4/CapSense.c **** *  CapSense_senseClkDividerVal[] - stores the sense clock divider values.
1821:.\Generated_Source\PSoC4/CapSense.c **** * 
1822:.\Generated_Source\PSoC4/CapSense.c **** * Side Effects:
1823:.\Generated_Source\PSoC4/CapSense.c **** *  None
1824:.\Generated_Source\PSoC4/CapSense.c **** *
1825:.\Generated_Source\PSoC4/CapSense.c **** *******************************************************************************/
1826:.\Generated_Source\PSoC4/CapSense.c **** uint32 CapSense_GetSenseClkDivider(uint32 sensor)
1827:.\Generated_Source\PSoC4/CapSense.c **** {
 1457              		.loc 1 1827 0
 1458              		.cfi_startproc
 1459              	.LVL175:
1828:.\Generated_Source\PSoC4/CapSense.c **** 	#if(0u != CapSense_MULTIPLE_FREQUENCY_SET)
1829:.\Generated_Source\PSoC4/CapSense.c **** 		return((uint32)CapSense_senseClkDividerVal[sensor]);
 1460              		.loc 1 1829 0
 1461 0000 014B     		ldr	r3, .L100
 1462 0002 1818     		add	r0, r3, r0
 1463              	.LVL176:
ARM GAS  C:\Users\merlin\AppData\Local\Temp\ccZOZwzR.s 			page 60


 1464 0004 007A     		ldrb	r0, [r0, #8]
1830:.\Generated_Source\PSoC4/CapSense.c **** 	#else
1831:.\Generated_Source\PSoC4/CapSense.c **** 		return((uint32)CapSense_senseClkDividerVal);
1832:.\Generated_Source\PSoC4/CapSense.c **** 	#endif /* (0u != CapSense_MULTIPLE_FREQUENCY_SET) */
1833:.\Generated_Source\PSoC4/CapSense.c **** }
 1465              		.loc 1 1833 0
 1466              		@ sp needed
 1467 0006 7047     		bx	lr
 1468              	.L101:
 1469              		.align	2
 1470              	.L100:
 1471 0008 00000000 		.word	.LANCHOR1
 1472              		.cfi_endproc
 1473              	.LFE61:
 1474              		.size	CapSense_GetSenseClkDivider, .-CapSense_GetSenseClkDivider
 1475              		.section	.text.CapSense_SetSenseClkDivider,"ax",%progbits
 1476              		.align	2
 1477              		.global	CapSense_SetSenseClkDivider
 1478              		.code	16
 1479              		.thumb_func
 1480              		.type	CapSense_SetSenseClkDivider, %function
 1481              	CapSense_SetSenseClkDivider:
 1482              	.LFB62:
1834:.\Generated_Source\PSoC4/CapSense.c **** 
1835:.\Generated_Source\PSoC4/CapSense.c **** #if (CapSense_TUNING_METHOD != CapSense__TUNING_NONE)
1836:.\Generated_Source\PSoC4/CapSense.c **** 	/*******************************************************************************
1837:.\Generated_Source\PSoC4/CapSense.c **** 	* Function Name: CapSense_SetSenseClkDivider
1838:.\Generated_Source\PSoC4/CapSense.c **** 	********************************************************************************
1839:.\Generated_Source\PSoC4/CapSense.c **** 	*
1840:.\Generated_Source\PSoC4/CapSense.c **** 	* Summary:
1841:.\Generated_Source\PSoC4/CapSense.c **** 	*  This API sets a value of the sense clock divider for the  sensor. 
1842:.\Generated_Source\PSoC4/CapSense.c **** 	*
1843:.\Generated_Source\PSoC4/CapSense.c **** 	* Parameters:
1844:.\Generated_Source\PSoC4/CapSense.c **** 	*  sensor:  Sensor index.
1845:.\Generated_Source\PSoC4/CapSense.c **** 	*  senseClk: represents the sense clock value.
1846:.\Generated_Source\PSoC4/CapSense.c **** 	*
1847:.\Generated_Source\PSoC4/CapSense.c **** 	* Return:
1848:.\Generated_Source\PSoC4/CapSense.c **** 	*  None.
1849:.\Generated_Source\PSoC4/CapSense.c **** 	*
1850:.\Generated_Source\PSoC4/CapSense.c **** 	* Global Variables:
1851:.\Generated_Source\PSoC4/CapSense.c **** 	*  CapSense_senseClkDividerVal[] - stores the sense clock divider values.
1852:.\Generated_Source\PSoC4/CapSense.c **** 	* 
1853:.\Generated_Source\PSoC4/CapSense.c **** 	* Side Effects:
1854:.\Generated_Source\PSoC4/CapSense.c **** 	*  None
1855:.\Generated_Source\PSoC4/CapSense.c **** 	*
1856:.\Generated_Source\PSoC4/CapSense.c **** 	*******************************************************************************/
1857:.\Generated_Source\PSoC4/CapSense.c **** 	void CapSense_SetSenseClkDivider(uint32 sensor, uint32 senseClk)
1858:.\Generated_Source\PSoC4/CapSense.c **** 	{
 1483              		.loc 1 1858 0
 1484              		.cfi_startproc
 1485              	.LVL177:
1859:.\Generated_Source\PSoC4/CapSense.c **** 		#if(0u != CapSense_MULTIPLE_FREQUENCY_SET)
1860:.\Generated_Source\PSoC4/CapSense.c **** 			CapSense_senseClkDividerVal[sensor] = (uint8)senseClk;
 1486              		.loc 1 1860 0
 1487 0000 014B     		ldr	r3, .L103
 1488 0002 1818     		add	r0, r3, r0
 1489              	.LVL178:
ARM GAS  C:\Users\merlin\AppData\Local\Temp\ccZOZwzR.s 			page 61


 1490 0004 0172     		strb	r1, [r0, #8]
1861:.\Generated_Source\PSoC4/CapSense.c **** 		#else
1862:.\Generated_Source\PSoC4/CapSense.c **** 			CapSense_senseClkDividerVal = (uint8)senseClk;
1863:.\Generated_Source\PSoC4/CapSense.c **** 		#endif /* (0u != CapSense_MULTIPLE_FREQUENCY_SET) */
1864:.\Generated_Source\PSoC4/CapSense.c **** 	}
 1491              		.loc 1 1864 0
 1492              		@ sp needed
 1493 0006 7047     		bx	lr
 1494              	.L104:
 1495              		.align	2
 1496              	.L103:
 1497 0008 00000000 		.word	.LANCHOR1
 1498              		.cfi_endproc
 1499              	.LFE62:
 1500              		.size	CapSense_SetSenseClkDivider, .-CapSense_SetSenseClkDivider
 1501              		.section	.text.CapSense_GetModulatorClkDivider,"ax",%progbits
 1502              		.align	2
 1503              		.global	CapSense_GetModulatorClkDivider
 1504              		.code	16
 1505              		.thumb_func
 1506              		.type	CapSense_GetModulatorClkDivider, %function
 1507              	CapSense_GetModulatorClkDivider:
 1508              	.LFB63:
1865:.\Generated_Source\PSoC4/CapSense.c **** #endif /* (CapSense_TUNING_METHOD != CapSense__TUNING_NONE) */
1866:.\Generated_Source\PSoC4/CapSense.c **** 
1867:.\Generated_Source\PSoC4/CapSense.c **** 
1868:.\Generated_Source\PSoC4/CapSense.c **** /*******************************************************************************
1869:.\Generated_Source\PSoC4/CapSense.c **** * Function Name: CapSense_GetModulatorClkDivider
1870:.\Generated_Source\PSoC4/CapSense.c **** ********************************************************************************
1871:.\Generated_Source\PSoC4/CapSense.c **** *
1872:.\Generated_Source\PSoC4/CapSense.c **** * Summary:
1873:.\Generated_Source\PSoC4/CapSense.c **** *  This API returns a value of the modulator sample clock divider for the  sensor.
1874:.\Generated_Source\PSoC4/CapSense.c **** *
1875:.\Generated_Source\PSoC4/CapSense.c **** * Parameters:
1876:.\Generated_Source\PSoC4/CapSense.c **** *  sensor: sensor index. The value of index can be 
1877:.\Generated_Source\PSoC4/CapSense.c **** *  from 0 to (CapSense_TOTAL_SENSOR_COUNT-1).
1878:.\Generated_Source\PSoC4/CapSense.c **** *
1879:.\Generated_Source\PSoC4/CapSense.c **** * Return:
1880:.\Generated_Source\PSoC4/CapSense.c **** *  This API returns the modulator sample clock divider for the  sensor.
1881:.\Generated_Source\PSoC4/CapSense.c **** *
1882:.\Generated_Source\PSoC4/CapSense.c **** * Global Variables:
1883:.\Generated_Source\PSoC4/CapSense.c **** *  CapSense_sampleClkDividerVal[] - stores the modulator sample divider values.
1884:.\Generated_Source\PSoC4/CapSense.c **** * 
1885:.\Generated_Source\PSoC4/CapSense.c **** * Side Effects:
1886:.\Generated_Source\PSoC4/CapSense.c **** *  None
1887:.\Generated_Source\PSoC4/CapSense.c **** *
1888:.\Generated_Source\PSoC4/CapSense.c **** *******************************************************************************/
1889:.\Generated_Source\PSoC4/CapSense.c **** uint32 CapSense_GetModulatorClkDivider(uint32 sensor)
1890:.\Generated_Source\PSoC4/CapSense.c **** {
 1509              		.loc 1 1890 0
 1510              		.cfi_startproc
 1511              	.LVL179:
1891:.\Generated_Source\PSoC4/CapSense.c **** 	#if(0u != CapSense_MULTIPLE_FREQUENCY_SET)
1892:.\Generated_Source\PSoC4/CapSense.c **** 		return((uint32)CapSense_sampleClkDividerVal[sensor]);
 1512              		.loc 1 1892 0
 1513 0000 014B     		ldr	r3, .L106
 1514 0002 1818     		add	r0, r3, r0
ARM GAS  C:\Users\merlin\AppData\Local\Temp\ccZOZwzR.s 			page 62


 1515              	.LVL180:
 1516 0004 0079     		ldrb	r0, [r0, #4]
1893:.\Generated_Source\PSoC4/CapSense.c **** 	#else
1894:.\Generated_Source\PSoC4/CapSense.c **** 		return((uint32)CapSense_sampleClkDividerVal);
1895:.\Generated_Source\PSoC4/CapSense.c **** 	#endif /* (0u != CapSense_MULTIPLE_FREQUENCY_SET) */
1896:.\Generated_Source\PSoC4/CapSense.c **** }
 1517              		.loc 1 1896 0
 1518              		@ sp needed
 1519 0006 7047     		bx	lr
 1520              	.L107:
 1521              		.align	2
 1522              	.L106:
 1523 0008 00000000 		.word	.LANCHOR1
 1524              		.cfi_endproc
 1525              	.LFE63:
 1526              		.size	CapSense_GetModulatorClkDivider, .-CapSense_GetModulatorClkDivider
 1527              		.section	.text.CapSense_SetModulatorClkDivider,"ax",%progbits
 1528              		.align	2
 1529              		.global	CapSense_SetModulatorClkDivider
 1530              		.code	16
 1531              		.thumb_func
 1532              		.type	CapSense_SetModulatorClkDivider, %function
 1533              	CapSense_SetModulatorClkDivider:
 1534              	.LFB64:
1897:.\Generated_Source\PSoC4/CapSense.c **** 
1898:.\Generated_Source\PSoC4/CapSense.c **** #if (CapSense_TUNING_METHOD != CapSense__TUNING_NONE)
1899:.\Generated_Source\PSoC4/CapSense.c **** 	/*******************************************************************************
1900:.\Generated_Source\PSoC4/CapSense.c **** 	* Function Name: CapSense_SetModulatorClkDivider
1901:.\Generated_Source\PSoC4/CapSense.c **** 	********************************************************************************
1902:.\Generated_Source\PSoC4/CapSense.c **** 	*
1903:.\Generated_Source\PSoC4/CapSense.c **** 	* Summary:
1904:.\Generated_Source\PSoC4/CapSense.c **** 	*  This API sets a value of the modulator sample clock divider for the  sensor.
1905:.\Generated_Source\PSoC4/CapSense.c **** 	*
1906:.\Generated_Source\PSoC4/CapSense.c **** 	* Parameters:
1907:.\Generated_Source\PSoC4/CapSense.c **** 	*  sensor:  Sensor index.
1908:.\Generated_Source\PSoC4/CapSense.c **** 	*  modulatorClk: represents the modulator sample clock value.
1909:.\Generated_Source\PSoC4/CapSense.c **** 	*
1910:.\Generated_Source\PSoC4/CapSense.c **** 	* Return:
1911:.\Generated_Source\PSoC4/CapSense.c **** 	*  None.
1912:.\Generated_Source\PSoC4/CapSense.c **** 	*
1913:.\Generated_Source\PSoC4/CapSense.c **** 	* Global Variables:
1914:.\Generated_Source\PSoC4/CapSense.c **** 	*  CapSense_sampleClkDividerVal[] - stores the modulator sample divider values.
1915:.\Generated_Source\PSoC4/CapSense.c **** 	* 
1916:.\Generated_Source\PSoC4/CapSense.c **** 	* Side Effects:
1917:.\Generated_Source\PSoC4/CapSense.c **** 	*  None
1918:.\Generated_Source\PSoC4/CapSense.c **** 	*
1919:.\Generated_Source\PSoC4/CapSense.c **** 	*******************************************************************************/
1920:.\Generated_Source\PSoC4/CapSense.c **** 	void CapSense_SetModulatorClkDivider(uint32 sensor, uint32 modulatorClk)
1921:.\Generated_Source\PSoC4/CapSense.c **** 	{
 1535              		.loc 1 1921 0
 1536              		.cfi_startproc
 1537              	.LVL181:
1922:.\Generated_Source\PSoC4/CapSense.c **** 		#if(0u != CapSense_MULTIPLE_FREQUENCY_SET)
1923:.\Generated_Source\PSoC4/CapSense.c **** 			CapSense_sampleClkDividerVal[sensor] = (uint8)modulatorClk;
 1538              		.loc 1 1923 0
 1539 0000 014B     		ldr	r3, .L109
 1540 0002 1818     		add	r0, r3, r0
ARM GAS  C:\Users\merlin\AppData\Local\Temp\ccZOZwzR.s 			page 63


 1541              	.LVL182:
 1542 0004 0171     		strb	r1, [r0, #4]
1924:.\Generated_Source\PSoC4/CapSense.c **** 		#else
1925:.\Generated_Source\PSoC4/CapSense.c **** 			CapSense_sampleClkDividerVal = (uint8)modulatorClk;
1926:.\Generated_Source\PSoC4/CapSense.c **** 		#endif /* (0u != CapSense_MULTIPLE_FREQUENCY_SET) */
1927:.\Generated_Source\PSoC4/CapSense.c **** 	}
 1543              		.loc 1 1927 0
 1544              		@ sp needed
 1545 0006 7047     		bx	lr
 1546              	.L110:
 1547              		.align	2
 1548              	.L109:
 1549 0008 00000000 		.word	.LANCHOR1
 1550              		.cfi_endproc
 1551              	.LFE64:
 1552              		.size	CapSense_SetModulatorClkDivider, .-CapSense_SetModulatorClkDivider
 1553              		.section	.text.CapSense_GetModulationIDAC,"ax",%progbits
 1554              		.align	2
 1555              		.global	CapSense_GetModulationIDAC
 1556              		.code	16
 1557              		.thumb_func
 1558              		.type	CapSense_GetModulationIDAC, %function
 1559              	CapSense_GetModulationIDAC:
 1560              	.LFB65:
1928:.\Generated_Source\PSoC4/CapSense.c **** #endif /* (CapSense_TUNING_METHOD != CapSense__TUNING_NONE) */
1929:.\Generated_Source\PSoC4/CapSense.c **** 
1930:.\Generated_Source\PSoC4/CapSense.c **** /*******************************************************************************
1931:.\Generated_Source\PSoC4/CapSense.c **** * Function Name: CapSense_GetModulationIDAC
1932:.\Generated_Source\PSoC4/CapSense.c **** ********************************************************************************
1933:.\Generated_Source\PSoC4/CapSense.c **** *
1934:.\Generated_Source\PSoC4/CapSense.c **** * Summary:
1935:.\Generated_Source\PSoC4/CapSense.c **** *  This API returns a value of the modulation IDAC for the  sensor.
1936:.\Generated_Source\PSoC4/CapSense.c **** *
1937:.\Generated_Source\PSoC4/CapSense.c **** * Parameters:
1938:.\Generated_Source\PSoC4/CapSense.c **** *  sensor: sensor index. The index value can be 
1939:.\Generated_Source\PSoC4/CapSense.c **** *  from 0 to (CapSense_TOTAL_SENSOR_COUNT-1).
1940:.\Generated_Source\PSoC4/CapSense.c **** *
1941:.\Generated_Source\PSoC4/CapSense.c **** * Return:
1942:.\Generated_Source\PSoC4/CapSense.c **** *  This API returns the modulation IDAC of the sensor. 
1943:.\Generated_Source\PSoC4/CapSense.c **** *
1944:.\Generated_Source\PSoC4/CapSense.c **** * Global Variables:
1945:.\Generated_Source\PSoC4/CapSense.c **** *  CapSense_modulationIDAC[] - stores modulation IDAC values.
1946:.\Generated_Source\PSoC4/CapSense.c **** * 
1947:.\Generated_Source\PSoC4/CapSense.c **** * Side Effects:
1948:.\Generated_Source\PSoC4/CapSense.c **** *  None
1949:.\Generated_Source\PSoC4/CapSense.c **** *
1950:.\Generated_Source\PSoC4/CapSense.c **** *******************************************************************************/
1951:.\Generated_Source\PSoC4/CapSense.c **** uint32 CapSense_GetModulationIDAC(uint32 sensor)
1952:.\Generated_Source\PSoC4/CapSense.c **** {
 1561              		.loc 1 1952 0
 1562              		.cfi_startproc
 1563              	.LVL183:
1953:.\Generated_Source\PSoC4/CapSense.c **** 		return((uint32)CapSense_modulationIDAC[sensor]);
 1564              		.loc 1 1953 0
 1565 0000 014B     		ldr	r3, .L112
 1566 0002 1818     		add	r0, r3, r0
 1567              	.LVL184:
ARM GAS  C:\Users\merlin\AppData\Local\Temp\ccZOZwzR.s 			page 64


 1568 0004 007B     		ldrb	r0, [r0, #12]
1954:.\Generated_Source\PSoC4/CapSense.c **** }
 1569              		.loc 1 1954 0
 1570              		@ sp needed
 1571 0006 7047     		bx	lr
 1572              	.L113:
 1573              		.align	2
 1574              	.L112:
 1575 0008 00000000 		.word	.LANCHOR1
 1576              		.cfi_endproc
 1577              	.LFE65:
 1578              		.size	CapSense_GetModulationIDAC, .-CapSense_GetModulationIDAC
 1579              		.section	.text.CapSense_SetModulationIDAC,"ax",%progbits
 1580              		.align	2
 1581              		.global	CapSense_SetModulationIDAC
 1582              		.code	16
 1583              		.thumb_func
 1584              		.type	CapSense_SetModulationIDAC, %function
 1585              	CapSense_SetModulationIDAC:
 1586              	.LFB66:
1955:.\Generated_Source\PSoC4/CapSense.c **** 
1956:.\Generated_Source\PSoC4/CapSense.c **** #if (CapSense_TUNING_METHOD != CapSense__TUNING_NONE)
1957:.\Generated_Source\PSoC4/CapSense.c **** 	/*******************************************************************************
1958:.\Generated_Source\PSoC4/CapSense.c **** 	* Function Name: CapSense_SetModulationIDAC
1959:.\Generated_Source\PSoC4/CapSense.c **** 	********************************************************************************
1960:.\Generated_Source\PSoC4/CapSense.c **** 	*
1961:.\Generated_Source\PSoC4/CapSense.c **** 	* Summary:
1962:.\Generated_Source\PSoC4/CapSense.c **** 	*  This API sets a value of the modulation IDAC for the  sensor.
1963:.\Generated_Source\PSoC4/CapSense.c **** 	*
1964:.\Generated_Source\PSoC4/CapSense.c **** 	* Parameters:
1965:.\Generated_Source\PSoC4/CapSense.c **** 	*  sensor:  Sensor index.
1966:.\Generated_Source\PSoC4/CapSense.c **** 	*  compIdacValue: represents the modulation IDAC data register value.
1967:.\Generated_Source\PSoC4/CapSense.c **** 	*
1968:.\Generated_Source\PSoC4/CapSense.c **** 	* Return:
1969:.\Generated_Source\PSoC4/CapSense.c **** 	*  None.
1970:.\Generated_Source\PSoC4/CapSense.c **** 	*
1971:.\Generated_Source\PSoC4/CapSense.c **** 	* Global Variables:
1972:.\Generated_Source\PSoC4/CapSense.c **** 	*  CapSense_modulationIDAC[] - array with modulation IDAC values
1973:.\Generated_Source\PSoC4/CapSense.c **** 	* 
1974:.\Generated_Source\PSoC4/CapSense.c **** 	* Side Effects:
1975:.\Generated_Source\PSoC4/CapSense.c **** 	*  None
1976:.\Generated_Source\PSoC4/CapSense.c **** 	*
1977:.\Generated_Source\PSoC4/CapSense.c **** 	*******************************************************************************/
1978:.\Generated_Source\PSoC4/CapSense.c **** 	void CapSense_SetModulationIDAC(uint32 sensor, uint32 modIdacValue)
1979:.\Generated_Source\PSoC4/CapSense.c **** 	{
 1587              		.loc 1 1979 0
 1588              		.cfi_startproc
 1589              	.LVL185:
1980:.\Generated_Source\PSoC4/CapSense.c **** 		CapSense_modulationIDAC[sensor] = (uint8)modIdacValue;
 1590              		.loc 1 1980 0
 1591 0000 014B     		ldr	r3, .L115
 1592 0002 1818     		add	r0, r3, r0
 1593              	.LVL186:
 1594 0004 0173     		strb	r1, [r0, #12]
1981:.\Generated_Source\PSoC4/CapSense.c **** 	}
 1595              		.loc 1 1981 0
 1596              		@ sp needed
ARM GAS  C:\Users\merlin\AppData\Local\Temp\ccZOZwzR.s 			page 65


 1597 0006 7047     		bx	lr
 1598              	.L116:
 1599              		.align	2
 1600              	.L115:
 1601 0008 00000000 		.word	.LANCHOR1
 1602              		.cfi_endproc
 1603              	.LFE66:
 1604              		.size	CapSense_SetModulationIDAC, .-CapSense_SetModulationIDAC
 1605              		.section	.text.CapSense_GetCompensationIDAC,"ax",%progbits
 1606              		.align	2
 1607              		.global	CapSense_GetCompensationIDAC
 1608              		.code	16
 1609              		.thumb_func
 1610              		.type	CapSense_GetCompensationIDAC, %function
 1611              	CapSense_GetCompensationIDAC:
 1612              	.LFB67:
1982:.\Generated_Source\PSoC4/CapSense.c **** #endif /* (CapSense_TUNING_METHOD != CapSense__TUNING_NONE) */
1983:.\Generated_Source\PSoC4/CapSense.c **** 
1984:.\Generated_Source\PSoC4/CapSense.c **** 
1985:.\Generated_Source\PSoC4/CapSense.c **** #if(CapSense_IDAC_CNT > 1u)
1986:.\Generated_Source\PSoC4/CapSense.c **** 	/*******************************************************************************
1987:.\Generated_Source\PSoC4/CapSense.c **** 	* Function Name: CapSense_GetCompensationIDAC
1988:.\Generated_Source\PSoC4/CapSense.c **** 	********************************************************************************
1989:.\Generated_Source\PSoC4/CapSense.c **** 	*
1990:.\Generated_Source\PSoC4/CapSense.c **** 	* Summary:
1991:.\Generated_Source\PSoC4/CapSense.c **** 	*  This API returns a value of the compensation IDAC for the  sensor.
1992:.\Generated_Source\PSoC4/CapSense.c **** 	*
1993:.\Generated_Source\PSoC4/CapSense.c **** 	* Parameters:
1994:.\Generated_Source\PSoC4/CapSense.c **** 	*  sensor: sensor index. The index value can be 
1995:.\Generated_Source\PSoC4/CapSense.c **** 	*  from 0 to (CapSense_TOTAL_SENSOR_COUNT-1).
1996:.\Generated_Source\PSoC4/CapSense.c **** 	*
1997:.\Generated_Source\PSoC4/CapSense.c **** 	* Return:
1998:.\Generated_Source\PSoC4/CapSense.c **** 	*  This API returns the compensation IDAC of the sensor. 
1999:.\Generated_Source\PSoC4/CapSense.c **** 	*
2000:.\Generated_Source\PSoC4/CapSense.c **** 	* Global Variables:
2001:.\Generated_Source\PSoC4/CapSense.c **** 	*  CapSense_compensationIDAC[] - stores the compensation IDAC values.
2002:.\Generated_Source\PSoC4/CapSense.c **** 	* 
2003:.\Generated_Source\PSoC4/CapSense.c **** 	* Side Effects:
2004:.\Generated_Source\PSoC4/CapSense.c **** 	*  None
2005:.\Generated_Source\PSoC4/CapSense.c **** 	*
2006:.\Generated_Source\PSoC4/CapSense.c **** 	*******************************************************************************/
2007:.\Generated_Source\PSoC4/CapSense.c **** 	uint32 CapSense_GetCompensationIDAC(uint32 sensor)
2008:.\Generated_Source\PSoC4/CapSense.c **** 	{
 1613              		.loc 1 2008 0
 1614              		.cfi_startproc
 1615              	.LVL187:
2009:.\Generated_Source\PSoC4/CapSense.c **** 		return((uint32)CapSense_compensationIDAC[sensor]);
 1616              		.loc 1 2009 0
 1617 0000 014B     		ldr	r3, .L118
 1618 0002 1818     		add	r0, r3, r0
 1619              	.LVL188:
 1620 0004 007C     		ldrb	r0, [r0, #16]
2010:.\Generated_Source\PSoC4/CapSense.c **** 	}
 1621              		.loc 1 2010 0
 1622              		@ sp needed
 1623 0006 7047     		bx	lr
 1624              	.L119:
ARM GAS  C:\Users\merlin\AppData\Local\Temp\ccZOZwzR.s 			page 66


 1625              		.align	2
 1626              	.L118:
 1627 0008 00000000 		.word	.LANCHOR1
 1628              		.cfi_endproc
 1629              	.LFE67:
 1630              		.size	CapSense_GetCompensationIDAC, .-CapSense_GetCompensationIDAC
 1631              		.section	.text.CapSense_SetCompensationIDAC,"ax",%progbits
 1632              		.align	2
 1633              		.global	CapSense_SetCompensationIDAC
 1634              		.code	16
 1635              		.thumb_func
 1636              		.type	CapSense_SetCompensationIDAC, %function
 1637              	CapSense_SetCompensationIDAC:
 1638              	.LFB68:
2011:.\Generated_Source\PSoC4/CapSense.c **** #endif /* (CapSense_IDAC_CNT > 1u) */
2012:.\Generated_Source\PSoC4/CapSense.c **** 
2013:.\Generated_Source\PSoC4/CapSense.c **** 
2014:.\Generated_Source\PSoC4/CapSense.c **** #if((CapSense_TUNING_METHOD != CapSense__TUNING_NONE) && (CapSense_IDAC_CNT > 1u))
2015:.\Generated_Source\PSoC4/CapSense.c **** 	/*******************************************************************************
2016:.\Generated_Source\PSoC4/CapSense.c **** 	* Function Name: CapSense_SetCompensationIDAC
2017:.\Generated_Source\PSoC4/CapSense.c **** 	********************************************************************************
2018:.\Generated_Source\PSoC4/CapSense.c **** 	*
2019:.\Generated_Source\PSoC4/CapSense.c **** 	* Summary:
2020:.\Generated_Source\PSoC4/CapSense.c **** 	*  This API sets a value of compensation IDAC for the  sensor.
2021:.\Generated_Source\PSoC4/CapSense.c **** 	*
2022:.\Generated_Source\PSoC4/CapSense.c **** 	* Parameters:
2023:.\Generated_Source\PSoC4/CapSense.c **** 	*  sensor:  Sensor index.
2024:.\Generated_Source\PSoC4/CapSense.c **** 	*  compIdacValue: represents the compensation IDAC data register value.
2025:.\Generated_Source\PSoC4/CapSense.c **** 	*
2026:.\Generated_Source\PSoC4/CapSense.c **** 	* Return:
2027:.\Generated_Source\PSoC4/CapSense.c **** 	*  None.
2028:.\Generated_Source\PSoC4/CapSense.c **** 	*
2029:.\Generated_Source\PSoC4/CapSense.c **** 	* Global Variables:
2030:.\Generated_Source\PSoC4/CapSense.c **** 	*  CapSense_compensationIDAC[] - an array with compensation IDAC values
2031:.\Generated_Source\PSoC4/CapSense.c **** 	* 
2032:.\Generated_Source\PSoC4/CapSense.c **** 	* Side Effects:
2033:.\Generated_Source\PSoC4/CapSense.c **** 	*  None
2034:.\Generated_Source\PSoC4/CapSense.c **** 	*
2035:.\Generated_Source\PSoC4/CapSense.c **** 	*******************************************************************************/
2036:.\Generated_Source\PSoC4/CapSense.c **** 	void CapSense_SetCompensationIDAC(uint32 sensor, uint32 compIdacValue)
2037:.\Generated_Source\PSoC4/CapSense.c **** 	{
 1639              		.loc 1 2037 0
 1640              		.cfi_startproc
 1641              	.LVL189:
2038:.\Generated_Source\PSoC4/CapSense.c **** 		CapSense_compensationIDAC[sensor] = (uint8)compIdacValue;
 1642              		.loc 1 2038 0
 1643 0000 014B     		ldr	r3, .L121
 1644 0002 1818     		add	r0, r3, r0
 1645              	.LVL190:
 1646 0004 0174     		strb	r1, [r0, #16]
2039:.\Generated_Source\PSoC4/CapSense.c **** 	}
 1647              		.loc 1 2039 0
 1648              		@ sp needed
 1649 0006 7047     		bx	lr
 1650              	.L122:
 1651              		.align	2
 1652              	.L121:
ARM GAS  C:\Users\merlin\AppData\Local\Temp\ccZOZwzR.s 			page 67


 1653 0008 00000000 		.word	.LANCHOR1
 1654              		.cfi_endproc
 1655              	.LFE68:
 1656              		.size	CapSense_SetCompensationIDAC, .-CapSense_SetCompensationIDAC
 1657              		.section	.text.CapSense_GetIDACRange,"ax",%progbits
 1658              		.align	2
 1659              		.global	CapSense_GetIDACRange
 1660              		.code	16
 1661              		.thumb_func
 1662              		.type	CapSense_GetIDACRange, %function
 1663              	CapSense_GetIDACRange:
 1664              	.LFB69:
2040:.\Generated_Source\PSoC4/CapSense.c **** #endif /* ((CapSense_TUNING_METHOD != CapSense__TUNING_NONE) && (CapSense_IDAC_CNT > 1u)) */
2041:.\Generated_Source\PSoC4/CapSense.c **** 
2042:.\Generated_Source\PSoC4/CapSense.c **** /*******************************************************************************
2043:.\Generated_Source\PSoC4/CapSense.c **** * Function Name: CapSense_GetIDACRange
2044:.\Generated_Source\PSoC4/CapSense.c **** ********************************************************************************
2045:.\Generated_Source\PSoC4/CapSense.c **** *
2046:.\Generated_Source\PSoC4/CapSense.c **** * Summary:
2047:.\Generated_Source\PSoC4/CapSense.c **** *  This API returns a value that indicates the IDAC range used by the 
2048:.\Generated_Source\PSoC4/CapSense.c **** *  component to scan sensors. The IDAC range is common for all the sensors.
2049:.\Generated_Source\PSoC4/CapSense.c **** *
2050:.\Generated_Source\PSoC4/CapSense.c **** * Parameters:
2051:.\Generated_Source\PSoC4/CapSense.c **** *  None
2052:.\Generated_Source\PSoC4/CapSense.c **** *
2053:.\Generated_Source\PSoC4/CapSense.c **** * Return:
2054:.\Generated_Source\PSoC4/CapSense.c **** *  This API Returns a value that indicates the IDAC range:
2055:.\Generated_Source\PSoC4/CapSense.c **** *      0 - IDAC range set to 4x
2056:.\Generated_Source\PSoC4/CapSense.c **** *      1 - IDAC range set to 8x
2057:.\Generated_Source\PSoC4/CapSense.c **** *
2058:.\Generated_Source\PSoC4/CapSense.c **** * Global Variables:
2059:.\Generated_Source\PSoC4/CapSense.c **** *  None
2060:.\Generated_Source\PSoC4/CapSense.c **** * 
2061:.\Generated_Source\PSoC4/CapSense.c **** * Side Effects:
2062:.\Generated_Source\PSoC4/CapSense.c **** *  None
2063:.\Generated_Source\PSoC4/CapSense.c **** *
2064:.\Generated_Source\PSoC4/CapSense.c **** *******************************************************************************/
2065:.\Generated_Source\PSoC4/CapSense.c **** uint32 CapSense_GetIDACRange(void)
2066:.\Generated_Source\PSoC4/CapSense.c **** {
 1665              		.loc 1 2066 0
 1666              		.cfi_startproc
2067:.\Generated_Source\PSoC4/CapSense.c **** 	return((0u != (CapSense_CSD_IDAC_REG & CapSense_CSD_IDAC1_RANGE_8X)) ? 1uL : 0uL);
 1667              		.loc 1 2067 0
 1668 0000 034B     		ldr	r3, .L125
 1669 0002 1868     		ldr	r0, [r3]
 1670 0004 8023     		mov	r3, #128
 1671 0006 DB00     		lsl	r3, r3, #3
 1672 0008 1840     		and	r0, r3
 1673 000a 00D0     		beq	.L124
 1674 000c 0120     		mov	r0, #1
 1675              	.L124:
2068:.\Generated_Source\PSoC4/CapSense.c **** }
 1676              		.loc 1 2068 0 discriminator 4
 1677              		@ sp needed
 1678 000e 7047     		bx	lr
 1679              	.L126:
 1680              		.align	2
ARM GAS  C:\Users\merlin\AppData\Local\Temp\ccZOZwzR.s 			page 68


 1681              	.L125:
 1682 0010 08002840 		.word	1076363272
 1683              		.cfi_endproc
 1684              	.LFE69:
 1685              		.size	CapSense_GetIDACRange, .-CapSense_GetIDACRange
 1686              		.section	.text.CapSense_SetIDACRange,"ax",%progbits
 1687              		.align	2
 1688              		.global	CapSense_SetIDACRange
 1689              		.code	16
 1690              		.thumb_func
 1691              		.type	CapSense_SetIDACRange, %function
 1692              	CapSense_SetIDACRange:
 1693              	.LFB70:
2069:.\Generated_Source\PSoC4/CapSense.c **** 
2070:.\Generated_Source\PSoC4/CapSense.c **** #if (CapSense_TUNING_METHOD != CapSense__TUNING_NONE)
2071:.\Generated_Source\PSoC4/CapSense.c **** 	/*******************************************************************************
2072:.\Generated_Source\PSoC4/CapSense.c **** 	* Function Name: CapSense_SetIDACRange
2073:.\Generated_Source\PSoC4/CapSense.c **** 	********************************************************************************
2074:.\Generated_Source\PSoC4/CapSense.c **** 	*
2075:.\Generated_Source\PSoC4/CapSense.c **** 	* Summary:
2076:.\Generated_Source\PSoC4/CapSense.c **** 	*  This API sets the IDAC range to the 4x (1.2uA/bit) or 8x (2.4uA/bit) mode.
2077:.\Generated_Source\PSoC4/CapSense.c ****     *  The IDAC range is common for all the sensors and common for the modulation and 
2078:.\Generated_Source\PSoC4/CapSense.c **** 	*  compensation IDACs.
2079:.\Generated_Source\PSoC4/CapSense.c **** 	*
2080:.\Generated_Source\PSoC4/CapSense.c **** 	* Parameters:
2081:.\Generated_Source\PSoC4/CapSense.c **** 	*  iDacRange:  represents value for IDAC range 
2082:.\Generated_Source\PSoC4/CapSense.c **** 	*  0 -  IDAC range set to 4x (1.2uA/bit)
2083:.\Generated_Source\PSoC4/CapSense.c **** 	*  1 or >1 - IDAC range set to 8x (2.4uA/bit)
2084:.\Generated_Source\PSoC4/CapSense.c **** 	*
2085:.\Generated_Source\PSoC4/CapSense.c **** 	* Return:
2086:.\Generated_Source\PSoC4/CapSense.c **** 	*  None.
2087:.\Generated_Source\PSoC4/CapSense.c **** 	*
2088:.\Generated_Source\PSoC4/CapSense.c **** 	* Global Variables:
2089:.\Generated_Source\PSoC4/CapSense.c **** 	*  None
2090:.\Generated_Source\PSoC4/CapSense.c **** 	* 
2091:.\Generated_Source\PSoC4/CapSense.c **** 	* Side Effects:
2092:.\Generated_Source\PSoC4/CapSense.c **** 	*  None
2093:.\Generated_Source\PSoC4/CapSense.c **** 	*
2094:.\Generated_Source\PSoC4/CapSense.c **** 	*******************************************************************************/
2095:.\Generated_Source\PSoC4/CapSense.c **** 	void CapSense_SetIDACRange(uint32 iDacRange)
2096:.\Generated_Source\PSoC4/CapSense.c **** 	{
 1694              		.loc 1 2096 0
 1695              		.cfi_startproc
 1696              	.LVL191:
2097:.\Generated_Source\PSoC4/CapSense.c **** 	    if(iDacRange != 0u)
 1697              		.loc 1 2097 0
 1698 0000 0028     		cmp	r0, #0
 1699 0002 05D0     		beq	.L128
2098:.\Generated_Source\PSoC4/CapSense.c **** 		{
2099:.\Generated_Source\PSoC4/CapSense.c **** 		    /*  IDAC range = 8x (2.4uA/bit) */ 
2100:.\Generated_Source\PSoC4/CapSense.c **** 		    CapSense_CSD_IDAC_REG |= (CapSense_CSD_IDAC1_RANGE_8X |\
 1700              		.loc 1 2100 0
 1701 0004 054A     		ldr	r2, .L130
 1702 0006 1368     		ldr	r3, [r2]
 1703 0008 0549     		ldr	r1, .L130+4
 1704 000a 0B43     		orr	r3, r1
 1705 000c 1360     		str	r3, [r2]
ARM GAS  C:\Users\merlin\AppData\Local\Temp\ccZOZwzR.s 			page 69


 1706 000e 04E0     		b	.L127
 1707              	.L128:
2101:.\Generated_Source\PSoC4/CapSense.c **** 											  CapSense_CSD_IDAC2_RANGE_8X);
2102:.\Generated_Source\PSoC4/CapSense.c **** 		}
2103:.\Generated_Source\PSoC4/CapSense.c **** 		else
2104:.\Generated_Source\PSoC4/CapSense.c **** 		{
2105:.\Generated_Source\PSoC4/CapSense.c **** 		    /*  IDAC range = 4x (1.2uA/bit) */ 
2106:.\Generated_Source\PSoC4/CapSense.c **** 		    /*  IDAC range = 8x (2.4uA/bit) */ 
2107:.\Generated_Source\PSoC4/CapSense.c **** 		    CapSense_CSD_IDAC_REG &= ~(CapSense_CSD_IDAC1_RANGE_8X |\
 1708              		.loc 1 2107 0
 1709 0010 024A     		ldr	r2, .L130
 1710 0012 1168     		ldr	r1, [r2]
 1711 0014 034B     		ldr	r3, .L130+8
 1712 0016 0B40     		and	r3, r1
 1713 0018 1360     		str	r3, [r2]
 1714              	.L127:
2108:.\Generated_Source\PSoC4/CapSense.c **** 											   CapSense_CSD_IDAC2_RANGE_8X);
2109:.\Generated_Source\PSoC4/CapSense.c **** 		}
2110:.\Generated_Source\PSoC4/CapSense.c **** 	}
 1715              		.loc 1 2110 0
 1716              		@ sp needed
 1717 001a 7047     		bx	lr
 1718              	.L131:
 1719              		.align	2
 1720              	.L130:
 1721 001c 08002840 		.word	1076363272
 1722 0020 00040004 		.word	67109888
 1723 0024 FFFBFFFB 		.word	-67109889
 1724              		.cfi_endproc
 1725              	.LFE70:
 1726              		.size	CapSense_SetIDACRange, .-CapSense_SetIDACRange
 1727              		.section	.text.CapSense_GetSensorRaw,"ax",%progbits
 1728              		.align	2
 1729              		.global	CapSense_GetSensorRaw
 1730              		.code	16
 1731              		.thumb_func
 1732              		.type	CapSense_GetSensorRaw, %function
 1733              	CapSense_GetSensorRaw:
 1734              	.LFB71:
2111:.\Generated_Source\PSoC4/CapSense.c **** #endif /* (CapSense_TUNING_METHOD != CapSense__TUNING_NONE) */
2112:.\Generated_Source\PSoC4/CapSense.c **** 
2113:.\Generated_Source\PSoC4/CapSense.c **** 
2114:.\Generated_Source\PSoC4/CapSense.c **** #if((0u != CapSense_AUTOCALIBRATION_ENABLE) || (CapSense_TUNING_METHOD == CapSense__TUNING_AUTO))
2115:.\Generated_Source\PSoC4/CapSense.c **** 	/*******************************************************************************
2116:.\Generated_Source\PSoC4/CapSense.c **** 	* Function Name: CapSense_GetSensorRaw
2117:.\Generated_Source\PSoC4/CapSense.c **** 	********************************************************************************
2118:.\Generated_Source\PSoC4/CapSense.c **** 	*
2119:.\Generated_Source\PSoC4/CapSense.c **** 	* Summary:
2120:.\Generated_Source\PSoC4/CapSense.c **** 	*  The API updates and gets uprated raw data from the sensor.
2121:.\Generated_Source\PSoC4/CapSense.c **** 	*
2122:.\Generated_Source\PSoC4/CapSense.c **** 	* Parameters:
2123:.\Generated_Source\PSoC4/CapSense.c **** 	*  sensor - Sensor number.
2124:.\Generated_Source\PSoC4/CapSense.c **** 	*
2125:.\Generated_Source\PSoC4/CapSense.c **** 	* Return:
2126:.\Generated_Source\PSoC4/CapSense.c **** 	*  Returns the current raw data value for a defined sensor number.
2127:.\Generated_Source\PSoC4/CapSense.c **** 	*
2128:.\Generated_Source\PSoC4/CapSense.c **** 	* Global Variables:
ARM GAS  C:\Users\merlin\AppData\Local\Temp\ccZOZwzR.s 			page 70


2129:.\Generated_Source\PSoC4/CapSense.c **** 	*  None
2130:.\Generated_Source\PSoC4/CapSense.c **** 	*
2131:.\Generated_Source\PSoC4/CapSense.c **** 	* Side Effects:
2132:.\Generated_Source\PSoC4/CapSense.c **** 	*  None
2133:.\Generated_Source\PSoC4/CapSense.c **** 	*
2134:.\Generated_Source\PSoC4/CapSense.c **** 	*******************************************************************************/
2135:.\Generated_Source\PSoC4/CapSense.c **** 	uint16  CapSense_GetSensorRaw(uint32 sensor)
2136:.\Generated_Source\PSoC4/CapSense.c **** 	{
 1735              		.loc 1 2136 0
 1736              		.cfi_startproc
 1737              	.LVL192:
 1738 0000 70B5     		push	{r4, r5, r6, lr}
 1739              		.cfi_def_cfa_offset 16
 1740              		.cfi_offset 4, -16
 1741              		.cfi_offset 5, -12
 1742              		.cfi_offset 6, -8
 1743              		.cfi_offset 14, -4
 1744 0002 061C     		mov	r6, r0
 1745              	.LVL193:
2137:.\Generated_Source\PSoC4/CapSense.c **** 		uint32 curSample;
2138:.\Generated_Source\PSoC4/CapSense.c **** 		uint32 avgVal = 0u;
 1746              		.loc 1 2138 0
 1747 0004 0024     		mov	r4, #0
2139:.\Generated_Source\PSoC4/CapSense.c **** 		
2140:.\Generated_Source\PSoC4/CapSense.c **** 		for(curSample = 0u; curSample < CapSense_AVG_SAMPLES_NUM; curSample++)
 1748              		.loc 1 2140 0
 1749 0006 0025     		mov	r5, #0
 1750 0008 0BE0     		b	.L133
 1751              	.LVL194:
 1752              	.L135:
2141:.\Generated_Source\PSoC4/CapSense.c **** 		{
2142:.\Generated_Source\PSoC4/CapSense.c **** 	    
2143:.\Generated_Source\PSoC4/CapSense.c **** 			CapSense_ScanSensor((uint32)sensor);
 1753              		.loc 1 2143 0
 1754 000a 301C     		mov	r0, r6
 1755 000c FFF7FEFF 		bl	CapSense_ScanSensor
 1756              	.LVL195:
 1757              	.L134:
2144:.\Generated_Source\PSoC4/CapSense.c **** 		    while(CapSense_IsBusy() == 1u)
 1758              		.loc 1 2144 0 discriminator 1
 1759 0010 FFF7FEFF 		bl	CapSense_IsBusy
 1760              	.LVL196:
 1761 0014 0128     		cmp	r0, #1
 1762 0016 FBD0     		beq	.L134
2145:.\Generated_Source\PSoC4/CapSense.c **** 			{
2146:.\Generated_Source\PSoC4/CapSense.c **** 				/* Wait while sensor is busy */
2147:.\Generated_Source\PSoC4/CapSense.c **** 			}
2148:.\Generated_Source\PSoC4/CapSense.c **** 			avgVal += CapSense_ReadSensorRaw((uint32)sensor);
 1763              		.loc 1 2148 0 discriminator 2
 1764 0018 301C     		mov	r0, r6
 1765 001a FFF7FEFF 		bl	CapSense_ReadSensorRaw
 1766              	.LVL197:
 1767 001e 2418     		add	r4, r4, r0
 1768              	.LVL198:
2140:.\Generated_Source\PSoC4/CapSense.c **** 		{
 1769              		.loc 1 2140 0 discriminator 2
 1770 0020 0135     		add	r5, r5, #1
ARM GAS  C:\Users\merlin\AppData\Local\Temp\ccZOZwzR.s 			page 71


 1771              	.LVL199:
 1772              	.L133:
2140:.\Generated_Source\PSoC4/CapSense.c **** 		{
 1773              		.loc 1 2140 0 is_stmt 0 discriminator 1
 1774 0022 002D     		cmp	r5, #0
 1775 0024 F1D0     		beq	.L135
2149:.\Generated_Source\PSoC4/CapSense.c **** 		}
2150:.\Generated_Source\PSoC4/CapSense.c **** 	    
2151:.\Generated_Source\PSoC4/CapSense.c **** 	    return((uint16)(avgVal / CapSense_AVG_SAMPLES_NUM));
 1776              		.loc 1 2151 0 is_stmt 1
 1777 0026 A0B2     		uxth	r0, r4
2152:.\Generated_Source\PSoC4/CapSense.c **** 	}
 1778              		.loc 1 2152 0
 1779              		@ sp needed
 1780              	.LVL200:
 1781              	.LVL201:
 1782              	.LVL202:
 1783 0028 70BD     		pop	{r4, r5, r6, pc}
 1784              		.cfi_endproc
 1785              	.LFE71:
 1786              		.size	CapSense_GetSensorRaw, .-CapSense_GetSensorRaw
 1787 002a C046     		.section	.text.CapSense_CalibrateSensor,"ax",%progbits
 1788              		.align	2
 1789              		.global	CapSense_CalibrateSensor
 1790              		.code	16
 1791              		.thumb_func
 1792              		.type	CapSense_CalibrateSensor, %function
 1793              	CapSense_CalibrateSensor:
 1794              	.LFB72:
2153:.\Generated_Source\PSoC4/CapSense.c **** #endif /* ((0u != CapSense_AUTOCALIBRATION_ENABLE) && (CapSense_TUNING_METHOD == CapSense__TUNING_A
2154:.\Generated_Source\PSoC4/CapSense.c **** 
2155:.\Generated_Source\PSoC4/CapSense.c **** 
2156:.\Generated_Source\PSoC4/CapSense.c **** #if((0u != CapSense_AUTOCALIBRATION_ENABLE) && (CapSense_TUNING_METHOD != CapSense__TUNING_AUTO))
2157:.\Generated_Source\PSoC4/CapSense.c **** 	/*******************************************************************************
2158:.\Generated_Source\PSoC4/CapSense.c **** 	* Function Name: CapSense_CalibrateSensor
2159:.\Generated_Source\PSoC4/CapSense.c **** 	********************************************************************************
2160:.\Generated_Source\PSoC4/CapSense.c **** 	*
2161:.\Generated_Source\PSoC4/CapSense.c **** 	* Summary:
2162:.\Generated_Source\PSoC4/CapSense.c **** 	*  Computes the one sensor IDAC value, which provides the raw signal on
2163:.\Generated_Source\PSoC4/CapSense.c **** 	*  a specified level, with a specified prescaler, speed, and resolution.
2164:.\Generated_Source\PSoC4/CapSense.c **** 	*
2165:.\Generated_Source\PSoC4/CapSense.c **** 	* Parameters:
2166:.\Generated_Source\PSoC4/CapSense.c **** 	*  sensor - Sensor Number.
2167:.\Generated_Source\PSoC4/CapSense.c **** 	*
2168:.\Generated_Source\PSoC4/CapSense.c **** 	*  rawLevel -  Raw data level which should be reached during the calibration
2169:.\Generated_Source\PSoC4/CapSense.c **** 	*              procedure.
2170:.\Generated_Source\PSoC4/CapSense.c **** 	*
2171:.\Generated_Source\PSoC4/CapSense.c **** 	*  idacLevelsTbl - Pointer to the modulatorIdac data register configuration table.            
2172:.\Generated_Source\PSoC4/CapSense.c **** 	*
2173:.\Generated_Source\PSoC4/CapSense.c **** 	* Return:       
2174:.\Generated_Source\PSoC4/CapSense.c **** 	*  None
2175:.\Generated_Source\PSoC4/CapSense.c **** 	*
2176:.\Generated_Source\PSoC4/CapSense.c **** 	*******************************************************************************/
2177:.\Generated_Source\PSoC4/CapSense.c **** 	void CapSense_CalibrateSensor(uint32 sensor, uint32 rawLevel, uint8 idacLevelsTbl[])
2178:.\Generated_Source\PSoC4/CapSense.c **** 	{
 1795              		.loc 1 2178 0
 1796              		.cfi_startproc
ARM GAS  C:\Users\merlin\AppData\Local\Temp\ccZOZwzR.s 			page 72


 1797              	.LVL203:
 1798 0000 F8B5     		push	{r3, r4, r5, r6, r7, lr}
 1799              		.cfi_def_cfa_offset 24
 1800              		.cfi_offset 3, -24
 1801              		.cfi_offset 4, -20
 1802              		.cfi_offset 5, -16
 1803              		.cfi_offset 6, -12
 1804              		.cfi_offset 7, -8
 1805              		.cfi_offset 14, -4
 1806 0002 051C     		mov	r5, r0
 1807 0004 0F1C     		mov	r7, r1
 1808              	.LVL204:
2179:.\Generated_Source\PSoC4/CapSense.c **** 		uint8 mask;
2180:.\Generated_Source\PSoC4/CapSense.c **** 		uint16 rawData;
2181:.\Generated_Source\PSoC4/CapSense.c **** 		
2182:.\Generated_Source\PSoC4/CapSense.c **** 		rawData = 0u;
2183:.\Generated_Source\PSoC4/CapSense.c **** 		
2184:.\Generated_Source\PSoC4/CapSense.c **** 		mask = 0x80u;
2185:.\Generated_Source\PSoC4/CapSense.c **** 		/* Init IDAC for null Channel */
2186:.\Generated_Source\PSoC4/CapSense.c **** 		idacLevelsTbl[sensor] = 0x00u;
