ARM GAS  C:\Users\merlin\AppData\Local\Temp\cchF7ckV.s 			page 1


   1              		.cpu cortex-m0
   2              		.fpu softvfp
   3              		.eabi_attribute 20, 1
   4              		.eabi_attribute 21, 1
   5              		.eabi_attribute 23, 3
   6              		.eabi_attribute 24, 1
   7              		.eabi_attribute 25, 1
   8              		.eabi_attribute 26, 1
   9              		.eabi_attribute 30, 1
  10              		.eabi_attribute 34, 0
  11              		.eabi_attribute 18, 4
  12              		.code	16
  13              		.file	"cyfitter_cfg.c"
  14              		.text
  15              	.Ltext0:
  16              		.cfi_sections	.debug_frame
  17              		.section	.text.cfg_write_bytes32,"ax",%progbits
  18              		.align	2
  19              		.code	16
  20              		.thumb_func
  21              		.type	cfg_write_bytes32, %function
  22              	cfg_write_bytes32:
  23              	.LFB4:
  24              		.file 1 ".\\Generated_Source\\PSoC4\\cyfitter_cfg.c"
   1:.\Generated_Source\PSoC4/cyfitter_cfg.c **** /*******************************************************************************
   2:.\Generated_Source\PSoC4/cyfitter_cfg.c **** * File Name: cyfitter_cfg.c
   3:.\Generated_Source\PSoC4/cyfitter_cfg.c **** * 
   4:.\Generated_Source\PSoC4/cyfitter_cfg.c **** * PSoC Creator  3.3 SP1
   5:.\Generated_Source\PSoC4/cyfitter_cfg.c **** *
   6:.\Generated_Source\PSoC4/cyfitter_cfg.c **** * Description:
   7:.\Generated_Source\PSoC4/cyfitter_cfg.c **** * This file contains device initialization code.
   8:.\Generated_Source\PSoC4/cyfitter_cfg.c **** * Except for the user defined sections in CyClockStartupError(), this file should not be modified.
   9:.\Generated_Source\PSoC4/cyfitter_cfg.c **** * This file is automatically generated by PSoC Creator.
  10:.\Generated_Source\PSoC4/cyfitter_cfg.c **** *
  11:.\Generated_Source\PSoC4/cyfitter_cfg.c **** ********************************************************************************
  12:.\Generated_Source\PSoC4/cyfitter_cfg.c **** * Copyright (c) 2007-2015 Cypress Semiconductor.  All rights reserved.
  13:.\Generated_Source\PSoC4/cyfitter_cfg.c **** * You may use this file only in accordance with the license, terms, conditions, 
  14:.\Generated_Source\PSoC4/cyfitter_cfg.c **** * disclaimers, and limitations in the end user license agreement accompanying 
  15:.\Generated_Source\PSoC4/cyfitter_cfg.c **** * the software package with which this file was provided.
  16:.\Generated_Source\PSoC4/cyfitter_cfg.c **** ********************************************************************************/
  17:.\Generated_Source\PSoC4/cyfitter_cfg.c **** 
  18:.\Generated_Source\PSoC4/cyfitter_cfg.c **** #include <string.h>
  19:.\Generated_Source\PSoC4/cyfitter_cfg.c **** #include "cytypes.h"
  20:.\Generated_Source\PSoC4/cyfitter_cfg.c **** #include "cydevice_trm.h"
  21:.\Generated_Source\PSoC4/cyfitter_cfg.c **** #include "cyfitter.h"
  22:.\Generated_Source\PSoC4/cyfitter_cfg.c **** #include "CyLib.h"
  23:.\Generated_Source\PSoC4/cyfitter_cfg.c **** #include "CyLFClk.h"
  24:.\Generated_Source\PSoC4/cyfitter_cfg.c **** #include "cyfitter_cfg.h"
  25:.\Generated_Source\PSoC4/cyfitter_cfg.c **** 
  26:.\Generated_Source\PSoC4/cyfitter_cfg.c **** 
  27:.\Generated_Source\PSoC4/cyfitter_cfg.c **** #if defined(__GNUC__) || defined(__ARMCC_VERSION)
  28:.\Generated_Source\PSoC4/cyfitter_cfg.c ****     #define CYPACKED 
  29:.\Generated_Source\PSoC4/cyfitter_cfg.c ****     #define CYPACKED_ATTR __attribute__ ((packed))
  30:.\Generated_Source\PSoC4/cyfitter_cfg.c ****     #define CYALIGNED __attribute__ ((aligned))
  31:.\Generated_Source\PSoC4/cyfitter_cfg.c ****     #define CY_CFG_UNUSED __attribute__ ((unused))
  32:.\Generated_Source\PSoC4/cyfitter_cfg.c ****     #ifndef CY_CFG_SECTION
  33:.\Generated_Source\PSoC4/cyfitter_cfg.c ****         #define CY_CFG_SECTION __attribute__ ((section(".psocinit")))
ARM GAS  C:\Users\merlin\AppData\Local\Temp\cchF7ckV.s 			page 2


  34:.\Generated_Source\PSoC4/cyfitter_cfg.c ****     #endif
  35:.\Generated_Source\PSoC4/cyfitter_cfg.c ****     
  36:.\Generated_Source\PSoC4/cyfitter_cfg.c ****     #if defined(__ARMCC_VERSION)
  37:.\Generated_Source\PSoC4/cyfitter_cfg.c ****         #define CY_CFG_MEMORY_BARRIER() __memory_changed()
  38:.\Generated_Source\PSoC4/cyfitter_cfg.c ****     #else
  39:.\Generated_Source\PSoC4/cyfitter_cfg.c ****         #define CY_CFG_MEMORY_BARRIER() __sync_synchronize()
  40:.\Generated_Source\PSoC4/cyfitter_cfg.c ****     #endif
  41:.\Generated_Source\PSoC4/cyfitter_cfg.c ****     
  42:.\Generated_Source\PSoC4/cyfitter_cfg.c **** #elif defined(__ICCARM__)
  43:.\Generated_Source\PSoC4/cyfitter_cfg.c ****     #include <intrinsics.h>
  44:.\Generated_Source\PSoC4/cyfitter_cfg.c **** 
  45:.\Generated_Source\PSoC4/cyfitter_cfg.c ****     #define CYPACKED __packed
  46:.\Generated_Source\PSoC4/cyfitter_cfg.c ****     #define CYPACKED_ATTR 
  47:.\Generated_Source\PSoC4/cyfitter_cfg.c ****     #define CYALIGNED _Pragma("data_alignment=4")
  48:.\Generated_Source\PSoC4/cyfitter_cfg.c ****     #define CY_CFG_UNUSED _Pragma("diag_suppress=Pe177")
  49:.\Generated_Source\PSoC4/cyfitter_cfg.c ****     #define CY_CFG_SECTION _Pragma("location=\".psocinit\"")
  50:.\Generated_Source\PSoC4/cyfitter_cfg.c ****     
  51:.\Generated_Source\PSoC4/cyfitter_cfg.c ****     #define CY_CFG_MEMORY_BARRIER() __DMB()
  52:.\Generated_Source\PSoC4/cyfitter_cfg.c ****     
  53:.\Generated_Source\PSoC4/cyfitter_cfg.c **** #else
  54:.\Generated_Source\PSoC4/cyfitter_cfg.c ****     #error Unsupported toolchain
  55:.\Generated_Source\PSoC4/cyfitter_cfg.c **** #endif
  56:.\Generated_Source\PSoC4/cyfitter_cfg.c **** 
  57:.\Generated_Source\PSoC4/cyfitter_cfg.c **** 
  58:.\Generated_Source\PSoC4/cyfitter_cfg.c **** CY_CFG_UNUSED
  59:.\Generated_Source\PSoC4/cyfitter_cfg.c **** static void CYMEMZERO(void *s, size_t n);
  60:.\Generated_Source\PSoC4/cyfitter_cfg.c **** CY_CFG_UNUSED
  61:.\Generated_Source\PSoC4/cyfitter_cfg.c **** static void CYMEMZERO(void *s, size_t n)
  62:.\Generated_Source\PSoC4/cyfitter_cfg.c **** {
  63:.\Generated_Source\PSoC4/cyfitter_cfg.c **** 	(void)memset(s, 0, n);
  64:.\Generated_Source\PSoC4/cyfitter_cfg.c **** }
  65:.\Generated_Source\PSoC4/cyfitter_cfg.c **** CY_CFG_UNUSED
  66:.\Generated_Source\PSoC4/cyfitter_cfg.c **** static void CYCONFIGCPY(void *dest, const void *src, size_t n);
  67:.\Generated_Source\PSoC4/cyfitter_cfg.c **** CY_CFG_UNUSED
  68:.\Generated_Source\PSoC4/cyfitter_cfg.c **** static void CYCONFIGCPY(void *dest, const void *src, size_t n)
  69:.\Generated_Source\PSoC4/cyfitter_cfg.c **** {
  70:.\Generated_Source\PSoC4/cyfitter_cfg.c **** 	(void)memcpy(dest, src, n);
  71:.\Generated_Source\PSoC4/cyfitter_cfg.c **** }
  72:.\Generated_Source\PSoC4/cyfitter_cfg.c **** CY_CFG_UNUSED
  73:.\Generated_Source\PSoC4/cyfitter_cfg.c **** static void CYCONFIGCPYCODE(void *dest, const void *src, size_t n);
  74:.\Generated_Source\PSoC4/cyfitter_cfg.c **** CY_CFG_UNUSED
  75:.\Generated_Source\PSoC4/cyfitter_cfg.c **** static void CYCONFIGCPYCODE(void *dest, const void *src, size_t n)
  76:.\Generated_Source\PSoC4/cyfitter_cfg.c **** {
  77:.\Generated_Source\PSoC4/cyfitter_cfg.c **** 	(void)memcpy(dest, src, n);
  78:.\Generated_Source\PSoC4/cyfitter_cfg.c **** }
  79:.\Generated_Source\PSoC4/cyfitter_cfg.c **** 
  80:.\Generated_Source\PSoC4/cyfitter_cfg.c **** 
  81:.\Generated_Source\PSoC4/cyfitter_cfg.c **** 
  82:.\Generated_Source\PSoC4/cyfitter_cfg.c **** /* Clock startup error codes                                                   */
  83:.\Generated_Source\PSoC4/cyfitter_cfg.c **** #define CYCLOCKSTART_NO_ERROR    0u
  84:.\Generated_Source\PSoC4/cyfitter_cfg.c **** #define CYCLOCKSTART_XTAL_ERROR  1u
  85:.\Generated_Source\PSoC4/cyfitter_cfg.c **** #define CYCLOCKSTART_32KHZ_ERROR 2u
  86:.\Generated_Source\PSoC4/cyfitter_cfg.c **** #define CYCLOCKSTART_PLL_ERROR   3u
  87:.\Generated_Source\PSoC4/cyfitter_cfg.c **** 
  88:.\Generated_Source\PSoC4/cyfitter_cfg.c **** #ifdef CY_NEED_CYCLOCKSTARTUPERROR
  89:.\Generated_Source\PSoC4/cyfitter_cfg.c **** /*******************************************************************************
  90:.\Generated_Source\PSoC4/cyfitter_cfg.c **** * Function Name: CyClockStartupError
ARM GAS  C:\Users\merlin\AppData\Local\Temp\cchF7ckV.s 			page 3


  91:.\Generated_Source\PSoC4/cyfitter_cfg.c **** ********************************************************************************
  92:.\Generated_Source\PSoC4/cyfitter_cfg.c **** * Summary:
  93:.\Generated_Source\PSoC4/cyfitter_cfg.c **** *  If an error is encountered during clock configuration (crystal startup error,
  94:.\Generated_Source\PSoC4/cyfitter_cfg.c **** *  PLL lock error, etc.), the system will end up here.  Unless reimplemented by
  95:.\Generated_Source\PSoC4/cyfitter_cfg.c **** *  the customer, this function will stop in an infinite loop.
  96:.\Generated_Source\PSoC4/cyfitter_cfg.c **** *
  97:.\Generated_Source\PSoC4/cyfitter_cfg.c **** * Parameters:
  98:.\Generated_Source\PSoC4/cyfitter_cfg.c **** *   void
  99:.\Generated_Source\PSoC4/cyfitter_cfg.c **** *
 100:.\Generated_Source\PSoC4/cyfitter_cfg.c **** * Return:
 101:.\Generated_Source\PSoC4/cyfitter_cfg.c **** *   void
 102:.\Generated_Source\PSoC4/cyfitter_cfg.c **** *
 103:.\Generated_Source\PSoC4/cyfitter_cfg.c **** *******************************************************************************/
 104:.\Generated_Source\PSoC4/cyfitter_cfg.c **** CY_CFG_UNUSED
 105:.\Generated_Source\PSoC4/cyfitter_cfg.c **** static void CyClockStartupError(uint8 errorCode);
 106:.\Generated_Source\PSoC4/cyfitter_cfg.c **** CY_CFG_UNUSED
 107:.\Generated_Source\PSoC4/cyfitter_cfg.c **** static void CyClockStartupError(uint8 errorCode)
 108:.\Generated_Source\PSoC4/cyfitter_cfg.c **** {
 109:.\Generated_Source\PSoC4/cyfitter_cfg.c ****     /* To remove the compiler warning if errorCode not used.                */
 110:.\Generated_Source\PSoC4/cyfitter_cfg.c ****     errorCode = errorCode;
 111:.\Generated_Source\PSoC4/cyfitter_cfg.c **** 
 112:.\Generated_Source\PSoC4/cyfitter_cfg.c ****     /* `#START CyClockStartupError` */
 113:.\Generated_Source\PSoC4/cyfitter_cfg.c **** 
 114:.\Generated_Source\PSoC4/cyfitter_cfg.c ****     /* If we have a clock startup error (bad MHz crystal, PLL lock, etc.),  */
 115:.\Generated_Source\PSoC4/cyfitter_cfg.c ****     /* we will end up here to allow the customer to implement something to  */
 116:.\Generated_Source\PSoC4/cyfitter_cfg.c ****     /* deal with the clock condition.                                       */
 117:.\Generated_Source\PSoC4/cyfitter_cfg.c **** 
 118:.\Generated_Source\PSoC4/cyfitter_cfg.c ****     /* `#END` */
 119:.\Generated_Source\PSoC4/cyfitter_cfg.c **** 
 120:.\Generated_Source\PSoC4/cyfitter_cfg.c ****     /* If nothing else, stop here since the clocks have not started         */
 121:.\Generated_Source\PSoC4/cyfitter_cfg.c ****     /* correctly.                                                           */
 122:.\Generated_Source\PSoC4/cyfitter_cfg.c ****     while(1) {}
 123:.\Generated_Source\PSoC4/cyfitter_cfg.c **** }
 124:.\Generated_Source\PSoC4/cyfitter_cfg.c **** #endif
 125:.\Generated_Source\PSoC4/cyfitter_cfg.c **** 
 126:.\Generated_Source\PSoC4/cyfitter_cfg.c **** #define CY_CFG_BASE_ADDR_COUNT 5u
 127:.\Generated_Source\PSoC4/cyfitter_cfg.c **** CYPACKED typedef struct
 128:.\Generated_Source\PSoC4/cyfitter_cfg.c **** {
 129:.\Generated_Source\PSoC4/cyfitter_cfg.c **** 	uint8 offset;
 130:.\Generated_Source\PSoC4/cyfitter_cfg.c **** 	uint8 value;
 131:.\Generated_Source\PSoC4/cyfitter_cfg.c **** } CYPACKED_ATTR cy_cfg_addrvalue_t;
 132:.\Generated_Source\PSoC4/cyfitter_cfg.c **** 
 133:.\Generated_Source\PSoC4/cyfitter_cfg.c **** 
 134:.\Generated_Source\PSoC4/cyfitter_cfg.c **** 
 135:.\Generated_Source\PSoC4/cyfitter_cfg.c **** /*******************************************************************************
 136:.\Generated_Source\PSoC4/cyfitter_cfg.c **** * Function Name: cfg_write_bytes32
 137:.\Generated_Source\PSoC4/cyfitter_cfg.c **** ********************************************************************************
 138:.\Generated_Source\PSoC4/cyfitter_cfg.c **** * Summary:
 139:.\Generated_Source\PSoC4/cyfitter_cfg.c **** *  This function is used for setting up the chip configuration areas that
 140:.\Generated_Source\PSoC4/cyfitter_cfg.c **** *  contain relatively sparse data.
 141:.\Generated_Source\PSoC4/cyfitter_cfg.c **** *
 142:.\Generated_Source\PSoC4/cyfitter_cfg.c **** * Parameters:
 143:.\Generated_Source\PSoC4/cyfitter_cfg.c **** *   void
 144:.\Generated_Source\PSoC4/cyfitter_cfg.c **** *
 145:.\Generated_Source\PSoC4/cyfitter_cfg.c **** * Return:
 146:.\Generated_Source\PSoC4/cyfitter_cfg.c **** *   void
 147:.\Generated_Source\PSoC4/cyfitter_cfg.c **** *
ARM GAS  C:\Users\merlin\AppData\Local\Temp\cchF7ckV.s 			page 4


 148:.\Generated_Source\PSoC4/cyfitter_cfg.c **** *******************************************************************************/
 149:.\Generated_Source\PSoC4/cyfitter_cfg.c **** static void cfg_write_bytes32(const uint32 addr_table[], const cy_cfg_addrvalue_t data_table[]);
 150:.\Generated_Source\PSoC4/cyfitter_cfg.c **** static void cfg_write_bytes32(const uint32 addr_table[], const cy_cfg_addrvalue_t data_table[])
 151:.\Generated_Source\PSoC4/cyfitter_cfg.c **** {
  25              		.loc 1 151 0
  26              		.cfi_startproc
  27              	.LVL0:
  28 0000 F0B5     		push	{r4, r5, r6, r7, lr}
  29              		.cfi_def_cfa_offset 20
  30              		.cfi_offset 4, -20
  31              		.cfi_offset 5, -16
  32              		.cfi_offset 6, -12
  33              		.cfi_offset 7, -8
  34              		.cfi_offset 14, -4
  35              	.LVL1:
 152:.\Generated_Source\PSoC4/cyfitter_cfg.c **** 	/* For 32-bit little-endian architectures */
 153:.\Generated_Source\PSoC4/cyfitter_cfg.c **** 	uint32 i, j = 0u;
  36              		.loc 1 153 0
  37 0002 0025     		mov	r5, #0
 154:.\Generated_Source\PSoC4/cyfitter_cfg.c **** 	for (i = 0u; i < CY_CFG_BASE_ADDR_COUNT; i++)
  38              		.loc 1 154 0
  39 0004 0027     		mov	r7, #0
  40 0006 11E0     		b	.L2
  41              	.LVL2:
  42              	.L5:
  43              	.LBB2:
 155:.\Generated_Source\PSoC4/cyfitter_cfg.c **** 	{
 156:.\Generated_Source\PSoC4/cyfitter_cfg.c **** 		uint32 baseAddr = addr_table[i];
  44              		.loc 1 156 0
  45 0008 BB00     		lsl	r3, r7, #2
  46 000a C658     		ldr	r6, [r0, r3]
  47              	.LVL3:
 157:.\Generated_Source\PSoC4/cyfitter_cfg.c **** 		uint8 count = (uint8)baseAddr;
  48              		.loc 1 157 0
  49 000c F3B2     		uxtb	r3, r6
  50              	.LVL4:
 158:.\Generated_Source\PSoC4/cyfitter_cfg.c **** 		baseAddr &= 0xFFFFFF00u;
  51              		.loc 1 158 0
  52 000e FF22     		mov	r2, #255
  53 0010 9643     		bic	r6, r2
  54              	.LVL5:
 159:.\Generated_Source\PSoC4/cyfitter_cfg.c **** 		while (count != 0u)
  55              		.loc 1 159 0
  56 0012 08E0     		b	.L3
  57              	.L4:
 160:.\Generated_Source\PSoC4/cyfitter_cfg.c **** 		{
 161:.\Generated_Source\PSoC4/cyfitter_cfg.c **** 			CY_SET_XTND_REG8((void CYFAR *)(baseAddr + data_table[j].offset), data_table[j].value);
  58              		.loc 1 161 0
  59 0014 6A00     		lsl	r2, r5, #1
  60 0016 8A18     		add	r2, r1, r2
  61 0018 1478     		ldrb	r4, [r2]
  62 001a A419     		add	r4, r4, r6
  63 001c 5278     		ldrb	r2, [r2, #1]
  64 001e 2270     		strb	r2, [r4]
 162:.\Generated_Source\PSoC4/cyfitter_cfg.c **** 			j++;
  65              		.loc 1 162 0
  66 0020 0135     		add	r5, r5, #1
ARM GAS  C:\Users\merlin\AppData\Local\Temp\cchF7ckV.s 			page 5


  67              	.LVL6:
 163:.\Generated_Source\PSoC4/cyfitter_cfg.c **** 			count--;
  68              		.loc 1 163 0
  69 0022 013B     		sub	r3, r3, #1
  70              	.LVL7:
  71 0024 DBB2     		uxtb	r3, r3
  72              	.LVL8:
  73              	.L3:
 159:.\Generated_Source\PSoC4/cyfitter_cfg.c **** 		{
  74              		.loc 1 159 0
  75 0026 002B     		cmp	r3, #0
  76 0028 F4D1     		bne	.L4
  77              	.LBE2:
 154:.\Generated_Source\PSoC4/cyfitter_cfg.c **** 	{
  78              		.loc 1 154 0 discriminator 2
  79 002a 0137     		add	r7, r7, #1
  80              	.LVL9:
  81              	.L2:
 154:.\Generated_Source\PSoC4/cyfitter_cfg.c **** 	{
  82              		.loc 1 154 0 is_stmt 0 discriminator 1
  83 002c 042F     		cmp	r7, #4
  84 002e EBD9     		bls	.L5
 164:.\Generated_Source\PSoC4/cyfitter_cfg.c **** 		}
 165:.\Generated_Source\PSoC4/cyfitter_cfg.c **** 	}
 166:.\Generated_Source\PSoC4/cyfitter_cfg.c **** }
  85              		.loc 1 166 0 is_stmt 1
  86              		@ sp needed
  87              	.LVL10:
  88              	.LVL11:
  89 0030 F0BD     		pop	{r4, r5, r6, r7, pc}
  90              		.cfi_endproc
  91              	.LFE4:
  92              		.size	cfg_write_bytes32, .-cfg_write_bytes32
  93 0032 C046     		.section	.text.CYMEMZERO,"ax",%progbits
  94              		.align	2
  95              		.code	16
  96              		.thumb_func
  97              		.type	CYMEMZERO, %function
  98              	CYMEMZERO:
  99              	.LFB1:
  62:.\Generated_Source\PSoC4/cyfitter_cfg.c **** 	(void)memset(s, 0, n);
 100              		.loc 1 62 0
 101              		.cfi_startproc
 102              	.LVL12:
 103 0000 08B5     		push	{r3, lr}
 104              		.cfi_def_cfa_offset 8
 105              		.cfi_offset 3, -8
 106              		.cfi_offset 14, -4
 107 0002 0A1C     		mov	r2, r1
  63:.\Generated_Source\PSoC4/cyfitter_cfg.c **** }
 108              		.loc 1 63 0
 109 0004 0021     		mov	r1, #0
 110              	.LVL13:
 111 0006 FFF7FEFF 		bl	memset
 112              	.LVL14:
  64:.\Generated_Source\PSoC4/cyfitter_cfg.c **** CY_CFG_UNUSED
 113              		.loc 1 64 0
ARM GAS  C:\Users\merlin\AppData\Local\Temp\cchF7ckV.s 			page 6


 114              		@ sp needed
 115 000a 08BD     		pop	{r3, pc}
 116              		.cfi_endproc
 117              	.LFE1:
 118              		.size	CYMEMZERO, .-CYMEMZERO
 119              		.section	.psocinit,"ax",%progbits
 120              		.align	2
 121              		.code	16
 122              		.thumb_func
 123              		.type	ClockSetup, %function
 124              	ClockSetup:
 125              	.LFB5:
 167:.\Generated_Source\PSoC4/cyfitter_cfg.c **** 
 168:.\Generated_Source\PSoC4/cyfitter_cfg.c **** 
 169:.\Generated_Source\PSoC4/cyfitter_cfg.c **** /*******************************************************************************
 170:.\Generated_Source\PSoC4/cyfitter_cfg.c **** * Function Name: ClockSetup
 171:.\Generated_Source\PSoC4/cyfitter_cfg.c **** ********************************************************************************
 172:.\Generated_Source\PSoC4/cyfitter_cfg.c **** *
 173:.\Generated_Source\PSoC4/cyfitter_cfg.c **** * Summary:
 174:.\Generated_Source\PSoC4/cyfitter_cfg.c **** *   Performs the initialization of all of the clocks in the device based on the
 175:.\Generated_Source\PSoC4/cyfitter_cfg.c **** *   settings in the Clock tab of the DWR.  This includes enabling the requested
 176:.\Generated_Source\PSoC4/cyfitter_cfg.c **** *   clocks and setting the necessary dividers to produce the desired frequency. 
 177:.\Generated_Source\PSoC4/cyfitter_cfg.c **** *
 178:.\Generated_Source\PSoC4/cyfitter_cfg.c **** * Parameters:
 179:.\Generated_Source\PSoC4/cyfitter_cfg.c **** *   void
 180:.\Generated_Source\PSoC4/cyfitter_cfg.c **** *
 181:.\Generated_Source\PSoC4/cyfitter_cfg.c **** * Return:
 182:.\Generated_Source\PSoC4/cyfitter_cfg.c **** *   void
 183:.\Generated_Source\PSoC4/cyfitter_cfg.c **** *
 184:.\Generated_Source\PSoC4/cyfitter_cfg.c **** *******************************************************************************/
 185:.\Generated_Source\PSoC4/cyfitter_cfg.c **** static void ClockSetup(void);
 186:.\Generated_Source\PSoC4/cyfitter_cfg.c **** CY_CFG_SECTION
 187:.\Generated_Source\PSoC4/cyfitter_cfg.c **** static void ClockSetup(void)
 188:.\Generated_Source\PSoC4/cyfitter_cfg.c **** {
 126              		.loc 1 188 0
 127              		.cfi_startproc
 128 0000 08B5     		push	{r3, lr}
 129              		.cfi_def_cfa_offset 8
 130              		.cfi_offset 3, -8
 131              		.cfi_offset 14, -4
 189:.\Generated_Source\PSoC4/cyfitter_cfg.c **** 
 190:.\Generated_Source\PSoC4/cyfitter_cfg.c **** 	/* Set Flash Cycles based on max possible frequency in case a glitch occurs during ClockSetup(). *
 191:.\Generated_Source\PSoC4/cyfitter_cfg.c **** 	CY_SET_REG32((void CYXDATA *)(CYREG_CPUSS_FLASH_CTL), (0x0012u));
 132              		.loc 1 191 0
 133 0002 1222     		mov	r2, #18
 134 0004 254B     		ldr	r3, .L9
 135 0006 1A60     		str	r2, [r3]
 192:.\Generated_Source\PSoC4/cyfitter_cfg.c **** 	/* Setup and trim IMO based on desired frequency. */
 193:.\Generated_Source\PSoC4/cyfitter_cfg.c **** 	CySysClkWriteImoFreq(48u);
 136              		.loc 1 193 0
 137 0008 3020     		mov	r0, #48
 138 000a FFF7FEFF 		bl	CySysClkWriteImoFreq
 139              	.LVL15:
 194:.\Generated_Source\PSoC4/cyfitter_cfg.c **** 	/* CYDEV_CLK_ILO_CONFIG Starting address: CYDEV_CLK_ILO_CONFIG */
 195:.\Generated_Source\PSoC4/cyfitter_cfg.c **** 	CY_SET_XTND_REG32((void CYFAR *)(CYREG_CLK_ILO_CONFIG), 0x80000006u);
 140              		.loc 1 195 0
 141 000e 244A     		ldr	r2, .L9+4
ARM GAS  C:\Users\merlin\AppData\Local\Temp\cchF7ckV.s 			page 7


 142 0010 244B     		ldr	r3, .L9+8
 143 0012 1A60     		str	r2, [r3]
 196:.\Generated_Source\PSoC4/cyfitter_cfg.c **** 
 197:.\Generated_Source\PSoC4/cyfitter_cfg.c **** 
 198:.\Generated_Source\PSoC4/cyfitter_cfg.c **** 	/* Setup phase aligned clocks */
 199:.\Generated_Source\PSoC4/cyfitter_cfg.c **** 	CY_SET_REG32((void *)CYREG_PERI_DIV_16_CTL2, 0x00000300u);
 144              		.loc 1 199 0
 145 0014 C022     		mov	r2, #192
 146 0016 9200     		lsl	r2, r2, #2
 147 0018 234B     		ldr	r3, .L9+12
 148 001a 1A60     		str	r2, [r3]
 200:.\Generated_Source\PSoC4/cyfitter_cfg.c **** 	CY_SET_REG32((void *)CYREG_PERI_DIV_CMD, 0x8000FF42u);
 149              		.loc 1 200 0
 150 001c 234B     		ldr	r3, .L9+16
 151 001e 244A     		ldr	r2, .L9+20
 152 0020 1A60     		str	r2, [r3]
 201:.\Generated_Source\PSoC4/cyfitter_cfg.c **** 	CY_SET_REG32((void *)CYREG_PERI_DIV_16_CTL0, 0x0000FE00u);
 153              		.loc 1 201 0
 154 0022 FE22     		mov	r2, #254
 155 0024 1202     		lsl	r2, r2, #8
 156 0026 2349     		ldr	r1, .L9+24
 157 0028 0A60     		str	r2, [r1]
 202:.\Generated_Source\PSoC4/cyfitter_cfg.c **** 	CY_SET_REG32((void *)CYREG_PERI_DIV_CMD, 0x8000FF40u);
 158              		.loc 1 202 0
 159 002a 2349     		ldr	r1, .L9+28
 160 002c 1960     		str	r1, [r3]
 203:.\Generated_Source\PSoC4/cyfitter_cfg.c **** 	CY_SET_REG32((void *)CYREG_PERI_DIV_16_CTL1, 0x0000FE00u);
 161              		.loc 1 203 0
 162 002e 2349     		ldr	r1, .L9+32
 163 0030 0A60     		str	r2, [r1]
 204:.\Generated_Source\PSoC4/cyfitter_cfg.c **** 	CY_SET_REG32((void *)CYREG_PERI_DIV_CMD, 0x8000FF41u);
 164              		.loc 1 204 0
 165 0032 234A     		ldr	r2, .L9+36
 166 0034 1A60     		str	r2, [r3]
 205:.\Generated_Source\PSoC4/cyfitter_cfg.c **** 	CY_SET_REG32((void *)CYREG_PERI_DIV_16_CTL3, 0x00001D00u);
 167              		.loc 1 205 0
 168 0036 E821     		mov	r1, #232
 169 0038 4901     		lsl	r1, r1, #5
 170 003a 224A     		ldr	r2, .L9+40
 171 003c 1160     		str	r1, [r2]
 206:.\Generated_Source\PSoC4/cyfitter_cfg.c **** 	CY_SET_REG32((void *)CYREG_PERI_DIV_CMD, 0x8000FF43u);
 172              		.loc 1 206 0
 173 003e 224A     		ldr	r2, .L9+44
 174 0040 1A60     		str	r2, [r3]
 207:.\Generated_Source\PSoC4/cyfitter_cfg.c **** 
 208:.\Generated_Source\PSoC4/cyfitter_cfg.c **** 	/* CYDEV_CLK_IMO_CONFIG Starting address: CYDEV_CLK_IMO_CONFIG */
 209:.\Generated_Source\PSoC4/cyfitter_cfg.c **** 	CY_SET_XTND_REG32((void CYFAR *)(CYREG_CLK_IMO_CONFIG), 0x80000000u);
 175              		.loc 1 209 0
 176 0042 8022     		mov	r2, #128
 177 0044 1206     		lsl	r2, r2, #24
 178 0046 214B     		ldr	r3, .L9+48
 179 0048 1A60     		str	r2, [r3]
 210:.\Generated_Source\PSoC4/cyfitter_cfg.c **** 
 211:.\Generated_Source\PSoC4/cyfitter_cfg.c **** 	/* CYDEV_CLK_SELECT Starting address: CYDEV_CLK_SELECT */
 212:.\Generated_Source\PSoC4/cyfitter_cfg.c **** 	CY_SET_XTND_REG32((void CYFAR *)(CYREG_CLK_SELECT), 0x00040000u);
 180              		.loc 1 212 0
 181 004a 8022     		mov	r2, #128
ARM GAS  C:\Users\merlin\AppData\Local\Temp\cchF7ckV.s 			page 8


 182 004c D202     		lsl	r2, r2, #11
 183 004e 204B     		ldr	r3, .L9+52
 184 0050 1A60     		str	r2, [r3]
 213:.\Generated_Source\PSoC4/cyfitter_cfg.c **** 
 214:.\Generated_Source\PSoC4/cyfitter_cfg.c **** 	/* CYDEV_PERI_PCLK_CTL11 Starting address: CYDEV_PERI_PCLK_CTL11 */
 215:.\Generated_Source\PSoC4/cyfitter_cfg.c **** 	CY_SET_XTND_REG32((void CYFAR *)(CYREG_PERI_PCLK_CTL11), 0x00000042u);
 185              		.loc 1 215 0
 186 0052 4222     		mov	r2, #66
 187 0054 1F4B     		ldr	r3, .L9+56
 188 0056 1A60     		str	r2, [r3]
 216:.\Generated_Source\PSoC4/cyfitter_cfg.c **** 
 217:.\Generated_Source\PSoC4/cyfitter_cfg.c **** 	/* CYDEV_PERI_PCLK_CTL7 Starting address: CYDEV_PERI_PCLK_CTL7 */
 218:.\Generated_Source\PSoC4/cyfitter_cfg.c **** 	CY_SET_XTND_REG32((void CYFAR *)(CYREG_PERI_PCLK_CTL7), 0x00000040u);
 189              		.loc 1 218 0
 190 0058 023A     		sub	r2, r2, #2
 191 005a 1F4B     		ldr	r3, .L9+60
 192 005c 1A60     		str	r2, [r3]
 219:.\Generated_Source\PSoC4/cyfitter_cfg.c **** 
 220:.\Generated_Source\PSoC4/cyfitter_cfg.c **** 	/* CYDEV_PERI_PCLK_CTL6 Starting address: CYDEV_PERI_PCLK_CTL6 */
 221:.\Generated_Source\PSoC4/cyfitter_cfg.c **** 	CY_SET_XTND_REG32((void CYFAR *)(CYREG_PERI_PCLK_CTL6), 0x00000041u);
 193              		.loc 1 221 0
 194 005e 0132     		add	r2, r2, #1
 195 0060 1E4B     		ldr	r3, .L9+64
 196 0062 1A60     		str	r2, [r3]
 222:.\Generated_Source\PSoC4/cyfitter_cfg.c **** 
 223:.\Generated_Source\PSoC4/cyfitter_cfg.c **** 	/* CYDEV_PERI_PCLK_CTL2 Starting address: CYDEV_PERI_PCLK_CTL2 */
 224:.\Generated_Source\PSoC4/cyfitter_cfg.c **** 	CY_SET_XTND_REG32((void CYFAR *)(CYREG_PERI_PCLK_CTL2), 0x00000043u);
 197              		.loc 1 224 0
 198 0064 0232     		add	r2, r2, #2
 199 0066 1E4B     		ldr	r3, .L9+68
 200 0068 1A60     		str	r2, [r3]
 225:.\Generated_Source\PSoC4/cyfitter_cfg.c **** 
 226:.\Generated_Source\PSoC4/cyfitter_cfg.c **** 	(void)CyIntSetVector(7u, &CySysWdtIsr);
 201              		.loc 1 226 0
 202 006a 0720     		mov	r0, #7
 203 006c 1D49     		ldr	r1, .L9+72
 204 006e FFF7FEFF 		bl	CyIntSetVector
 205              	.LVL16:
 227:.\Generated_Source\PSoC4/cyfitter_cfg.c **** 	CyIntEnable(7u);
 206              		.loc 1 227 0
 207 0072 0720     		mov	r0, #7
 208 0074 FFF7FEFF 		bl	CyIntEnable
 209              	.LVL17:
 228:.\Generated_Source\PSoC4/cyfitter_cfg.c **** 	CY_SET_XTND_REG32((void CYFAR *)(CYREG_WDT_MATCH), 0x000003BFu);
 210              		.loc 1 228 0
 211 0078 1B4A     		ldr	r2, .L9+76
 212 007a 1C4B     		ldr	r3, .L9+80
 213 007c 1A60     		str	r2, [r3]
 229:.\Generated_Source\PSoC4/cyfitter_cfg.c **** 	CY_SET_XTND_REG32((void CYFAR *)(CYREG_WDT_CONFIG), 0x00000005u);
 214              		.loc 1 229 0
 215 007e 0522     		mov	r2, #5
 216 0080 1B4B     		ldr	r3, .L9+84
 217 0082 1A60     		str	r2, [r3]
 230:.\Generated_Source\PSoC4/cyfitter_cfg.c **** 	CY_SET_XTND_REG32((void CYFAR *)(CYREG_WDT_CONTROL), 0x00000008u);
 218              		.loc 1 230 0
 219 0084 0332     		add	r2, r2, #3
 220 0086 1B4B     		ldr	r3, .L9+88
ARM GAS  C:\Users\merlin\AppData\Local\Temp\cchF7ckV.s 			page 9


 221 0088 1A60     		str	r2, [r3]
 222              	.L8:
 231:.\Generated_Source\PSoC4/cyfitter_cfg.c **** 	while ((CY_GET_XTND_REG32((void CYFAR *)(CYREG_WDT_CONTROL)) & 0x00000008u) != 0u) { }
 223              		.loc 1 231 0 discriminator 1
 224 008a 1A4B     		ldr	r3, .L9+88
 225 008c 1B68     		ldr	r3, [r3]
 226 008e 1B07     		lsl	r3, r3, #28
 227 0090 FBD4     		bmi	.L8
 232:.\Generated_Source\PSoC4/cyfitter_cfg.c **** 	CY_SET_XTND_REG32((void CYFAR *)(CYREG_WDT_CONTROL), 0x00000001u);
 228              		.loc 1 232 0
 229 0092 0122     		mov	r2, #1
 230 0094 174B     		ldr	r3, .L9+88
 231 0096 1A60     		str	r2, [r3]
 233:.\Generated_Source\PSoC4/cyfitter_cfg.c **** }
 232              		.loc 1 233 0
 233              		@ sp needed
 234 0098 08BD     		pop	{r3, pc}
 235              	.L10:
 236 009a C046     		.align	2
 237              	.L9:
 238 009c 30001040 		.word	1074790448
 239 00a0 06000080 		.word	-2147483642
 240 00a4 04010B40 		.word	1074462980
 241 00a8 08030140 		.word	1073808136
 242 00ac 00000140 		.word	1073807360
 243 00b0 42FF0080 		.word	-2147418302
 244 00b4 00030140 		.word	1073808128
 245 00b8 40FF0080 		.word	-2147418304
 246 00bc 04030140 		.word	1073808132
 247 00c0 41FF0080 		.word	-2147418303
 248 00c4 0C030140 		.word	1073808140
 249 00c8 43FF0080 		.word	-2147418301
 250 00cc 08010B40 		.word	1074462984
 251 00d0 00010B40 		.word	1074462976
 252 00d4 2C010140 		.word	1073807660
 253 00d8 1C010140 		.word	1073807644
 254 00dc 18010140 		.word	1073807640
 255 00e0 08010140 		.word	1073807624
 256 00e4 00000000 		.word	CySysWdtIsr
 257 00e8 BF030000 		.word	959
 258 00ec 08020B40 		.word	1074463240
 259 00f0 0C020B40 		.word	1074463244
 260 00f4 10020B40 		.word	1074463248
 261              		.cfi_endproc
 262              	.LFE5:
 263              		.size	ClockSetup, .-ClockSetup
 264              		.section	.text.SetAnalogRoutingPumps,"ax",%progbits
 265              		.align	2
 266              		.global	SetAnalogRoutingPumps
 267              		.code	16
 268              		.thumb_func
 269              		.type	SetAnalogRoutingPumps, %function
 270              	SetAnalogRoutingPumps:
 271              	.LFB7:
 234:.\Generated_Source\PSoC4/cyfitter_cfg.c **** 
 235:.\Generated_Source\PSoC4/cyfitter_cfg.c **** 
 236:.\Generated_Source\PSoC4/cyfitter_cfg.c **** /* Analog API Functions */
ARM GAS  C:\Users\merlin\AppData\Local\Temp\cchF7ckV.s 			page 10


 237:.\Generated_Source\PSoC4/cyfitter_cfg.c **** 
 238:.\Generated_Source\PSoC4/cyfitter_cfg.c **** 
 239:.\Generated_Source\PSoC4/cyfitter_cfg.c **** /*******************************************************************************
 240:.\Generated_Source\PSoC4/cyfitter_cfg.c **** * Function Name: AnalogSetDefault
 241:.\Generated_Source\PSoC4/cyfitter_cfg.c **** ********************************************************************************
 242:.\Generated_Source\PSoC4/cyfitter_cfg.c **** *
 243:.\Generated_Source\PSoC4/cyfitter_cfg.c **** * Summary:
 244:.\Generated_Source\PSoC4/cyfitter_cfg.c **** *  Sets up the analog portions of the chip to default values based on chip
 245:.\Generated_Source\PSoC4/cyfitter_cfg.c **** *  configuration options from the project.
 246:.\Generated_Source\PSoC4/cyfitter_cfg.c **** *
 247:.\Generated_Source\PSoC4/cyfitter_cfg.c **** * Parameters:
 248:.\Generated_Source\PSoC4/cyfitter_cfg.c **** *  void
 249:.\Generated_Source\PSoC4/cyfitter_cfg.c **** *
 250:.\Generated_Source\PSoC4/cyfitter_cfg.c **** * Return:
 251:.\Generated_Source\PSoC4/cyfitter_cfg.c **** *  void
 252:.\Generated_Source\PSoC4/cyfitter_cfg.c **** *
 253:.\Generated_Source\PSoC4/cyfitter_cfg.c **** *******************************************************************************/
 254:.\Generated_Source\PSoC4/cyfitter_cfg.c **** static void AnalogSetDefault(void);
 255:.\Generated_Source\PSoC4/cyfitter_cfg.c **** static void AnalogSetDefault(void)
 256:.\Generated_Source\PSoC4/cyfitter_cfg.c **** {
 257:.\Generated_Source\PSoC4/cyfitter_cfg.c **** 	CY_SET_XTND_REG32((void CYFAR *)CYREG_CTBM0_DFT_CTRL, 0x00000003u);
 258:.\Generated_Source\PSoC4/cyfitter_cfg.c **** 	CY_SET_XTND_REG32((void CYFAR *)CYREG_CTBM1_DFT_CTRL, 0x00000003u);
 259:.\Generated_Source\PSoC4/cyfitter_cfg.c **** 	CY_SET_XTND_REG32((void CYFAR *)CYREG_PASS_DSAB_DSAB_CTRL, 0x00000000u);
 260:.\Generated_Source\PSoC4/cyfitter_cfg.c **** 	SetAnalogRoutingPumps(1);
 261:.\Generated_Source\PSoC4/cyfitter_cfg.c **** }
 262:.\Generated_Source\PSoC4/cyfitter_cfg.c **** 
 263:.\Generated_Source\PSoC4/cyfitter_cfg.c **** 
 264:.\Generated_Source\PSoC4/cyfitter_cfg.c **** /*******************************************************************************
 265:.\Generated_Source\PSoC4/cyfitter_cfg.c **** * Function Name: SetAnalogRoutingPumps
 266:.\Generated_Source\PSoC4/cyfitter_cfg.c **** ********************************************************************************
 267:.\Generated_Source\PSoC4/cyfitter_cfg.c **** *
 268:.\Generated_Source\PSoC4/cyfitter_cfg.c **** * Summary:
 269:.\Generated_Source\PSoC4/cyfitter_cfg.c **** * Enables or disables the analog pumps feeding analog routing switches.
 270:.\Generated_Source\PSoC4/cyfitter_cfg.c **** * Intended to be called at startup, based on the Vdda system configuration;
 271:.\Generated_Source\PSoC4/cyfitter_cfg.c **** * may be called during operation when the user informs us that the Vdda voltage crossed the pump th
 272:.\Generated_Source\PSoC4/cyfitter_cfg.c **** *
 273:.\Generated_Source\PSoC4/cyfitter_cfg.c **** * Parameters:
 274:.\Generated_Source\PSoC4/cyfitter_cfg.c **** *  enabled - 1 to enable the pumps, 0 to disable the pumps
 275:.\Generated_Source\PSoC4/cyfitter_cfg.c **** *
 276:.\Generated_Source\PSoC4/cyfitter_cfg.c **** * Return:
 277:.\Generated_Source\PSoC4/cyfitter_cfg.c **** *  void
 278:.\Generated_Source\PSoC4/cyfitter_cfg.c **** *
 279:.\Generated_Source\PSoC4/cyfitter_cfg.c **** *******************************************************************************/
 280:.\Generated_Source\PSoC4/cyfitter_cfg.c **** void SetAnalogRoutingPumps(uint8 enabled)
 281:.\Generated_Source\PSoC4/cyfitter_cfg.c **** {
 272              		.loc 1 281 0
 273              		.cfi_startproc
 274              	.LVL18:
 282:.\Generated_Source\PSoC4/cyfitter_cfg.c **** 	uint32 regValue = CY_GET_XTND_REG32((void *)(CYREG_SAR_PUMP_CTRL));
 275              		.loc 1 282 0
 276 0000 0C4B     		ldr	r3, .L16
 277 0002 1B68     		ldr	r3, [r3]
 278              	.LVL19:
 283:.\Generated_Source\PSoC4/cyfitter_cfg.c **** 	if (enabled != 0u)
 279              		.loc 1 283 0
 280 0004 0028     		cmp	r0, #0
 281 0006 03D0     		beq	.L12
ARM GAS  C:\Users\merlin\AppData\Local\Temp\cchF7ckV.s 			page 11


 284:.\Generated_Source\PSoC4/cyfitter_cfg.c **** 	{
 285:.\Generated_Source\PSoC4/cyfitter_cfg.c **** 		regValue |= 0x80000000u;
 282              		.loc 1 285 0
 283 0008 8022     		mov	r2, #128
 284 000a 1206     		lsl	r2, r2, #24
 285 000c 1343     		orr	r3, r2
 286              	.LVL20:
 287 000e 01E0     		b	.L13
 288              	.L12:
 286:.\Generated_Source\PSoC4/cyfitter_cfg.c **** 	}
 287:.\Generated_Source\PSoC4/cyfitter_cfg.c **** 	else
 288:.\Generated_Source\PSoC4/cyfitter_cfg.c **** 	{
 289:.\Generated_Source\PSoC4/cyfitter_cfg.c **** 		regValue &= ~0x80000000u;
 289              		.loc 1 289 0
 290 0010 5B00     		lsl	r3, r3, #1
 291              	.LVL21:
 292 0012 5B08     		lsr	r3, r3, #1
 293              	.LVL22:
 294              	.L13:
 290:.\Generated_Source\PSoC4/cyfitter_cfg.c **** 	}
 291:.\Generated_Source\PSoC4/cyfitter_cfg.c **** 	CY_SET_XTND_REG32((void *)(CYREG_SAR_PUMP_CTRL), regValue);
 295              		.loc 1 291 0
 296 0014 074A     		ldr	r2, .L16
 297 0016 1360     		str	r3, [r2]
 292:.\Generated_Source\PSoC4/cyfitter_cfg.c **** 	regValue = CY_GET_XTND_REG32((void *)(CYREG_CLK_IMO_CONFIG));
 298              		.loc 1 292 0
 299 0018 074B     		ldr	r3, .L16+4
 300              	.LVL23:
 301 001a 1B68     		ldr	r3, [r3]
 302              	.LVL24:
 293:.\Generated_Source\PSoC4/cyfitter_cfg.c **** 	if (enabled != 0u)
 303              		.loc 1 293 0
 304 001c 0028     		cmp	r0, #0
 305 001e 03D0     		beq	.L14
 294:.\Generated_Source\PSoC4/cyfitter_cfg.c **** 	{
 295:.\Generated_Source\PSoC4/cyfitter_cfg.c **** 		regValue |= 0x02000000u;
 306              		.loc 1 295 0
 307 0020 8022     		mov	r2, #128
 308 0022 9204     		lsl	r2, r2, #18
 309 0024 1343     		orr	r3, r2
 310              	.LVL25:
 311 0026 01E0     		b	.L15
 312              	.L14:
 296:.\Generated_Source\PSoC4/cyfitter_cfg.c **** 	}
 297:.\Generated_Source\PSoC4/cyfitter_cfg.c **** 	else
 298:.\Generated_Source\PSoC4/cyfitter_cfg.c **** 	{
 299:.\Generated_Source\PSoC4/cyfitter_cfg.c **** 		regValue &= ~0x02000000u;
 313              		.loc 1 299 0
 314 0028 044A     		ldr	r2, .L16+8
 315 002a 1340     		and	r3, r2
 316              	.LVL26:
 317              	.L15:
 300:.\Generated_Source\PSoC4/cyfitter_cfg.c **** 	}
 301:.\Generated_Source\PSoC4/cyfitter_cfg.c **** 	CY_SET_XTND_REG32((void *)(CYREG_CLK_IMO_CONFIG), regValue);
 318              		.loc 1 301 0
 319 002c 024A     		ldr	r2, .L16+4
 320 002e 1360     		str	r3, [r2]
ARM GAS  C:\Users\merlin\AppData\Local\Temp\cchF7ckV.s 			page 12


 302:.\Generated_Source\PSoC4/cyfitter_cfg.c **** }
 321              		.loc 1 302 0
 322              		@ sp needed
 323 0030 7047     		bx	lr
 324              	.L17:
 325 0032 C046     		.align	2
 326              	.L16:
 327 0034 80033A40 		.word	1077543808
 328 0038 08010B40 		.word	1074462984
 329 003c FFFFFFFD 		.word	-33554433
 330              		.cfi_endproc
 331              	.LFE7:
 332              		.size	SetAnalogRoutingPumps, .-SetAnalogRoutingPumps
 333              		.section	.text.AnalogSetDefault,"ax",%progbits
 334              		.align	2
 335              		.code	16
 336              		.thumb_func
 337              		.type	AnalogSetDefault, %function
 338              	AnalogSetDefault:
 339              	.LFB6:
 256:.\Generated_Source\PSoC4/cyfitter_cfg.c **** 	CY_SET_XTND_REG32((void CYFAR *)CYREG_CTBM0_DFT_CTRL, 0x00000003u);
 340              		.loc 1 256 0
 341              		.cfi_startproc
 342 0000 08B5     		push	{r3, lr}
 343              		.cfi_def_cfa_offset 8
 344              		.cfi_offset 3, -8
 345              		.cfi_offset 14, -4
 257:.\Generated_Source\PSoC4/cyfitter_cfg.c **** 	CY_SET_XTND_REG32((void CYFAR *)CYREG_CTBM1_DFT_CTRL, 0x00000003u);
 346              		.loc 1 257 0
 347 0002 0323     		mov	r3, #3
 348 0004 054A     		ldr	r2, .L19
 349 0006 1360     		str	r3, [r2]
 258:.\Generated_Source\PSoC4/cyfitter_cfg.c **** 	CY_SET_XTND_REG32((void CYFAR *)CYREG_PASS_DSAB_DSAB_CTRL, 0x00000000u);
 350              		.loc 1 258 0
 351 0008 054A     		ldr	r2, .L19+4
 352 000a 1360     		str	r3, [r2]
 259:.\Generated_Source\PSoC4/cyfitter_cfg.c **** 	SetAnalogRoutingPumps(1);
 353              		.loc 1 259 0
 354 000c 0022     		mov	r2, #0
 355 000e 054B     		ldr	r3, .L19+8
 356 0010 1A60     		str	r2, [r3]
 260:.\Generated_Source\PSoC4/cyfitter_cfg.c **** }
 357              		.loc 1 260 0
 358 0012 0120     		mov	r0, #1
 359 0014 FFF7FEFF 		bl	SetAnalogRoutingPumps
 360              	.LVL27:
 261:.\Generated_Source\PSoC4/cyfitter_cfg.c **** 
 361              		.loc 1 261 0
 362              		@ sp needed
 363 0018 08BD     		pop	{r3, pc}
 364              	.L20:
 365 001a C046     		.align	2
 366              	.L19:
 367 001c 30003040 		.word	1076887600
 368 0020 30003140 		.word	1076953136
 369 0024 000E3F40 		.word	1077874176
 370              		.cfi_endproc
ARM GAS  C:\Users\merlin\AppData\Local\Temp\cchF7ckV.s 			page 13


 371              	.LFE6:
 372              		.size	AnalogSetDefault, .-AnalogSetDefault
 373              		.section	.psocinit
 374              		.align	2
 375              		.global	cyfitter_cfg
 376              		.code	16
 377              		.thumb_func
 378              		.type	cyfitter_cfg, %function
 379              	cyfitter_cfg:
 380              	.LFB8:
 303:.\Generated_Source\PSoC4/cyfitter_cfg.c **** 
 304:.\Generated_Source\PSoC4/cyfitter_cfg.c **** #define CY_AMUX_UNUSED CYREG_CM0_ROM_DWT
 305:.\Generated_Source\PSoC4/cyfitter_cfg.c **** 
 306:.\Generated_Source\PSoC4/cyfitter_cfg.c **** 
 307:.\Generated_Source\PSoC4/cyfitter_cfg.c **** /*******************************************************************************
 308:.\Generated_Source\PSoC4/cyfitter_cfg.c **** * Function Name: cyfitter_cfg
 309:.\Generated_Source\PSoC4/cyfitter_cfg.c **** ********************************************************************************
 310:.\Generated_Source\PSoC4/cyfitter_cfg.c **** * Summary:
 311:.\Generated_Source\PSoC4/cyfitter_cfg.c **** *  This function is called by the start-up code for the selected device. It
 312:.\Generated_Source\PSoC4/cyfitter_cfg.c **** *  performs all of the necessary device configuration based on the design
 313:.\Generated_Source\PSoC4/cyfitter_cfg.c **** *  settings.  This includes settings from the Design Wide Resources (DWR) such
 314:.\Generated_Source\PSoC4/cyfitter_cfg.c **** *  as Clocks and Pins as well as any component configuration that is necessary.
 315:.\Generated_Source\PSoC4/cyfitter_cfg.c **** *
 316:.\Generated_Source\PSoC4/cyfitter_cfg.c **** * Parameters:  
 317:.\Generated_Source\PSoC4/cyfitter_cfg.c **** *   void
 318:.\Generated_Source\PSoC4/cyfitter_cfg.c **** *
 319:.\Generated_Source\PSoC4/cyfitter_cfg.c **** * Return:
 320:.\Generated_Source\PSoC4/cyfitter_cfg.c **** *   void
 321:.\Generated_Source\PSoC4/cyfitter_cfg.c **** *
 322:.\Generated_Source\PSoC4/cyfitter_cfg.c **** *******************************************************************************/
 323:.\Generated_Source\PSoC4/cyfitter_cfg.c **** CY_CFG_SECTION
 324:.\Generated_Source\PSoC4/cyfitter_cfg.c **** void cyfitter_cfg(void)
 325:.\Generated_Source\PSoC4/cyfitter_cfg.c **** {
 381              		.loc 1 325 0
 382              		.cfi_startproc
 383 00f8 10B5     		push	{r4, lr}
 384              		.cfi_def_cfa_offset 8
 385              		.cfi_offset 4, -8
 386              		.cfi_offset 14, -4
 326:.\Generated_Source\PSoC4/cyfitter_cfg.c **** 	/* Disable interrupts by default. Let user enable if/when they want. */
 327:.\Generated_Source\PSoC4/cyfitter_cfg.c **** 	CyGlobalIntDisable;
 387              		.loc 1 327 0
 388              	@ 327 ".\Generated_Source\PSoC4\cyfitter_cfg.c" 1
 389 00fa 72B6     		CPSID   i
 390              	@ 0 "" 2
 391              	.LVL28:
 392              		.code	16
 393              	.LBB3:
 328:.\Generated_Source\PSoC4/cyfitter_cfg.c **** 
 329:.\Generated_Source\PSoC4/cyfitter_cfg.c **** 	{
 330:.\Generated_Source\PSoC4/cyfitter_cfg.c **** 		static const uint32 CYCODE cy_cfg_addr_table[] = {
 331:.\Generated_Source\PSoC4/cyfitter_cfg.c **** 			0x400F3004u, /* Base address: 0x400F3000 Count: 4 */
 332:.\Generated_Source\PSoC4/cyfitter_cfg.c **** 			0x400F3101u, /* Base address: 0x400F3100 Count: 1 */
 333:.\Generated_Source\PSoC4/cyfitter_cfg.c **** 			0x400F3301u, /* Base address: 0x400F3300 Count: 1 */
 334:.\Generated_Source\PSoC4/cyfitter_cfg.c **** 			0x400F4205u, /* Base address: 0x400F4200 Count: 5 */
 335:.\Generated_Source\PSoC4/cyfitter_cfg.c **** 			0x400F4305u, /* Base address: 0x400F4300 Count: 5 */
 336:.\Generated_Source\PSoC4/cyfitter_cfg.c **** 		};
ARM GAS  C:\Users\merlin\AppData\Local\Temp\cchF7ckV.s 			page 14


 337:.\Generated_Source\PSoC4/cyfitter_cfg.c **** 
 338:.\Generated_Source\PSoC4/cyfitter_cfg.c **** 		static const cy_cfg_addrvalue_t CYCODE cy_cfg_data_table[] = {
 339:.\Generated_Source\PSoC4/cyfitter_cfg.c **** 			{0x38u, 0x80u},
 340:.\Generated_Source\PSoC4/cyfitter_cfg.c **** 			{0x3Eu, 0x40u},
 341:.\Generated_Source\PSoC4/cyfitter_cfg.c **** 			{0x58u, 0x04u},
 342:.\Generated_Source\PSoC4/cyfitter_cfg.c **** 			{0x5Fu, 0x01u},
 343:.\Generated_Source\PSoC4/cyfitter_cfg.c **** 			{0x18u, 0x01u},
 344:.\Generated_Source\PSoC4/cyfitter_cfg.c **** 			{0xB4u, 0x01u},
 345:.\Generated_Source\PSoC4/cyfitter_cfg.c **** 			{0x60u, 0x01u},
 346:.\Generated_Source\PSoC4/cyfitter_cfg.c **** 			{0x6Cu, 0x40u},
 347:.\Generated_Source\PSoC4/cyfitter_cfg.c **** 			{0x70u, 0x08u},
 348:.\Generated_Source\PSoC4/cyfitter_cfg.c **** 			{0xD6u, 0x02u},
 349:.\Generated_Source\PSoC4/cyfitter_cfg.c **** 			{0xDCu, 0x03u},
 350:.\Generated_Source\PSoC4/cyfitter_cfg.c **** 			{0x20u, 0x01u},
 351:.\Generated_Source\PSoC4/cyfitter_cfg.c **** 			{0x94u, 0x01u},
 352:.\Generated_Source\PSoC4/cyfitter_cfg.c **** 			{0xB4u, 0x48u},
 353:.\Generated_Source\PSoC4/cyfitter_cfg.c **** 			{0xC8u, 0x08u},
 354:.\Generated_Source\PSoC4/cyfitter_cfg.c **** 			{0xECu, 0x08u},
 355:.\Generated_Source\PSoC4/cyfitter_cfg.c **** 		};
 356:.\Generated_Source\PSoC4/cyfitter_cfg.c **** 
 357:.\Generated_Source\PSoC4/cyfitter_cfg.c **** 
 358:.\Generated_Source\PSoC4/cyfitter_cfg.c **** 
 359:.\Generated_Source\PSoC4/cyfitter_cfg.c **** 		CYPACKED typedef struct {
 360:.\Generated_Source\PSoC4/cyfitter_cfg.c **** 			void CYFAR *address;
 361:.\Generated_Source\PSoC4/cyfitter_cfg.c **** 			uint16 size;
 362:.\Generated_Source\PSoC4/cyfitter_cfg.c **** 		} CYPACKED_ATTR cfg_memset_t;
 363:.\Generated_Source\PSoC4/cyfitter_cfg.c **** 
 364:.\Generated_Source\PSoC4/cyfitter_cfg.c **** 		static const cfg_memset_t CYCODE cfg_memset_list [] = {
 365:.\Generated_Source\PSoC4/cyfitter_cfg.c **** 			/* address, size */
 366:.\Generated_Source\PSoC4/cyfitter_cfg.c **** 			{(void CYFAR *)(CYDEV_UDB_P0_U0_BASE), 1024u},
 367:.\Generated_Source\PSoC4/cyfitter_cfg.c **** 			{(void CYFAR *)(CYDEV_UDB_DSI0_BASE), 1024u},
 368:.\Generated_Source\PSoC4/cyfitter_cfg.c **** 		};
 369:.\Generated_Source\PSoC4/cyfitter_cfg.c **** 
 370:.\Generated_Source\PSoC4/cyfitter_cfg.c **** 		uint8 CYDATA i;
 371:.\Generated_Source\PSoC4/cyfitter_cfg.c **** 
 372:.\Generated_Source\PSoC4/cyfitter_cfg.c **** 		/* Zero out critical memory blocks before beginning configuration */
 373:.\Generated_Source\PSoC4/cyfitter_cfg.c **** 		for (i = 0u; i < (sizeof(cfg_memset_list)/sizeof(cfg_memset_list[0])); i++)
 394              		.loc 1 373 0
 395 00fc 0024     		mov	r4, #0
 396 00fe 10E0     		b	.L22
 397              	.LVL29:
 398              	.L23:
 399              	.LBB4:
 374:.\Generated_Source\PSoC4/cyfitter_cfg.c **** 		{
 375:.\Generated_Source\PSoC4/cyfitter_cfg.c **** 			const cfg_memset_t CYCODE * CYDATA ms = &cfg_memset_list[i];
 376:.\Generated_Source\PSoC4/cyfitter_cfg.c **** 			CYMEMZERO(ms->address, (size_t)(uint32)(ms->size));
 400              		.loc 1 376 0 discriminator 3
 401 0100 2D48     		ldr	r0, .L24
 402 0102 6300     		lsl	r3, r4, #1
 403 0104 1A19     		add	r2, r3, r4
 404 0106 5200     		lsl	r2, r2, #1
 405 0108 8218     		add	r2, r0, r2
 406 010a 9188     		ldrh	r1, [r2, #4]
 407 010c 1B19     		add	r3, r3, r4
 408 010e 5B00     		lsl	r3, r3, #1
 409 0110 1A5A     		ldrh	r2, [r3, r0]
 410 0112 C318     		add	r3, r0, r3
ARM GAS  C:\Users\merlin\AppData\Local\Temp\cchF7ckV.s 			page 15


 411 0114 5888     		ldrh	r0, [r3, #2]
 412 0116 0004     		lsl	r0, r0, #16
 413 0118 1043     		orr	r0, r2
 414 011a FFF7FEFF 		bl	CYMEMZERO
 415              	.LVL30:
 416              	.LBE4:
 373:.\Generated_Source\PSoC4/cyfitter_cfg.c **** 		{
 417              		.loc 1 373 0 discriminator 3
 418 011e 0134     		add	r4, r4, #1
 419              	.LVL31:
 420 0120 E4B2     		uxtb	r4, r4
 421              	.LVL32:
 422              	.L22:
 373:.\Generated_Source\PSoC4/cyfitter_cfg.c **** 		{
 423              		.loc 1 373 0 is_stmt 0 discriminator 1
 424 0122 012C     		cmp	r4, #1
 425 0124 ECD9     		bls	.L23
 377:.\Generated_Source\PSoC4/cyfitter_cfg.c **** 		}
 378:.\Generated_Source\PSoC4/cyfitter_cfg.c **** 
 379:.\Generated_Source\PSoC4/cyfitter_cfg.c **** 		cfg_write_bytes32(cy_cfg_addr_table, cy_cfg_data_table);
 426              		.loc 1 379 0 is_stmt 1
 427 0126 2449     		ldr	r1, .L24
 428 0128 081C     		mov	r0, r1
 429 012a 0C30     		add	r0, r0, #12
 430 012c 2031     		add	r1, r1, #32
 431 012e FFF7FEFF 		bl	cfg_write_bytes32
 432              	.LVL33:
 380:.\Generated_Source\PSoC4/cyfitter_cfg.c **** 
 381:.\Generated_Source\PSoC4/cyfitter_cfg.c **** 		/* HSIOM Starting address: CYDEV_HSIOM_BASE */
 382:.\Generated_Source\PSoC4/cyfitter_cfg.c **** 		CY_SET_XTND_REG32((void CYFAR *)(CYREG_HSIOM_PORT_SEL2), 0x03000000u);
 433              		.loc 1 382 0
 434 0132 C022     		mov	r2, #192
 435 0134 9204     		lsl	r2, r2, #18
 436 0136 214B     		ldr	r3, .L24+4
 437 0138 1A60     		str	r2, [r3]
 383:.\Generated_Source\PSoC4/cyfitter_cfg.c **** 		CY_SET_XTND_REG32((void CYFAR *)(CYREG_HSIOM_PORT_SEL3), 0x0000EE00u);
 438              		.loc 1 383 0
 439 013a EE22     		mov	r2, #238
 440 013c 1202     		lsl	r2, r2, #8
 441 013e 204B     		ldr	r3, .L24+8
 442 0140 1A60     		str	r2, [r3]
 384:.\Generated_Source\PSoC4/cyfitter_cfg.c **** 		CY_SET_XTND_REG32((void CYFAR *)(CYREG_HSIOM_PORT_SEL4), 0x000000EEu);
 443              		.loc 1 384 0
 444 0142 EE22     		mov	r2, #238
 445 0144 1F4B     		ldr	r3, .L24+12
 446 0146 1A60     		str	r2, [r3]
 385:.\Generated_Source\PSoC4/cyfitter_cfg.c **** 
 386:.\Generated_Source\PSoC4/cyfitter_cfg.c **** 		/* UDB_PA_2 Starting address: CYDEV_UDB_PA2_BASE */
 387:.\Generated_Source\PSoC4/cyfitter_cfg.c **** 		CY_SET_XTND_REG32((void CYFAR *)(CYDEV_UDB_PA2_BASE), 0x00990000u);
 447              		.loc 1 387 0
 448 0148 9923     		mov	r3, #153
 449 014a 1B04     		lsl	r3, r3, #16
 450 014c 1E4A     		ldr	r2, .L24+16
 451 014e 1360     		str	r3, [r2]
 388:.\Generated_Source\PSoC4/cyfitter_cfg.c **** 		CY_SET_XTND_REG32((void CYFAR *)(CYREG_UDB_PA2_CFG8), 0x45000000u);
 452              		.loc 1 388 0
 453 0150 8A21     		mov	r1, #138
ARM GAS  C:\Users\merlin\AppData\Local\Temp\cchF7ckV.s 			page 16


 454 0152 C905     		lsl	r1, r1, #23
 455 0154 1D4A     		ldr	r2, .L24+20
 456 0156 1160     		str	r1, [r2]
 389:.\Generated_Source\PSoC4/cyfitter_cfg.c **** 
 390:.\Generated_Source\PSoC4/cyfitter_cfg.c **** 		/* UDB_PA_3 Starting address: CYDEV_UDB_PA3_BASE */
 391:.\Generated_Source\PSoC4/cyfitter_cfg.c **** 		CY_SET_XTND_REG32((void CYFAR *)(CYDEV_UDB_PA3_BASE), 0x00990000u);
 457              		.loc 1 391 0
 458 0158 1D4A     		ldr	r2, .L24+24
 459 015a 1360     		str	r3, [r2]
 392:.\Generated_Source\PSoC4/cyfitter_cfg.c **** 
 393:.\Generated_Source\PSoC4/cyfitter_cfg.c **** 		/* Enable digital routing */
 394:.\Generated_Source\PSoC4/cyfitter_cfg.c **** 		CY_SET_XTND_REG8((void *)CYREG_UDB_UDBIF_BANK_CTL, CY_GET_XTND_REG8((void *)CYREG_UDB_UDBIF_BANK_
 460              		.loc 1 394 0
 461 015c 1D4B     		ldr	r3, .L24+28
 462 015e 1978     		ldrb	r1, [r3]
 463 0160 0222     		mov	r2, #2
 464 0162 0A43     		orr	r2, r1
 465 0164 1A70     		strb	r2, [r3]
 395:.\Generated_Source\PSoC4/cyfitter_cfg.c **** 
 396:.\Generated_Source\PSoC4/cyfitter_cfg.c **** 		/* Enable UDB array */
 397:.\Generated_Source\PSoC4/cyfitter_cfg.c **** 		CY_SET_XTND_REG8((void *)CYREG_UDB_UDBIF_WAIT_CFG, (uint8)((CY_GET_XTND_REG8((void *)CYREG_UDB_UD
 466              		.loc 1 397 0
 467 0166 1C48     		ldr	r0, .L24+32
 468 0168 0278     		ldrb	r2, [r0]
 469 016a 3C21     		mov	r1, #60
 470 016c 8A43     		bic	r2, r1
 471 016e 2839     		sub	r1, r1, #40
 472 0170 0A43     		orr	r2, r1
 473 0172 0270     		strb	r2, [r0]
 398:.\Generated_Source\PSoC4/cyfitter_cfg.c **** 		CY_SET_XTND_REG8((void *)CYREG_UDB_UDBIF_BANK_CTL, (uint8)(CY_GET_XTND_REG8((void *)CYREG_UDB_UDB
 474              		.loc 1 398 0
 475 0174 1978     		ldrb	r1, [r3]
 476 0176 1622     		mov	r2, #22
 477 0178 0A43     		orr	r2, r1
 478 017a 1A70     		strb	r2, [r3]
 479              	.LBE3:
 399:.\Generated_Source\PSoC4/cyfitter_cfg.c **** 	}
 400:.\Generated_Source\PSoC4/cyfitter_cfg.c **** 
 401:.\Generated_Source\PSoC4/cyfitter_cfg.c **** 	/* Perform second pass device configuration. These items must be configured in specific order afte
 402:.\Generated_Source\PSoC4/cyfitter_cfg.c **** 	/* IOPINS0_2 Starting address: CYDEV_GPIO_PRT2_BASE */
 403:.\Generated_Source\PSoC4/cyfitter_cfg.c **** 	CY_SET_XTND_REG32((void CYFAR *)(CYDEV_GPIO_PRT2_BASE), 0x00000040u);
 480              		.loc 1 403 0
 481 017c 4022     		mov	r2, #64
 482 017e 174B     		ldr	r3, .L24+36
 483 0180 1A60     		str	r2, [r3]
 404:.\Generated_Source\PSoC4/cyfitter_cfg.c **** 	CY_SET_XTND_REG32((void CYFAR *)(CYREG_GPIO_PRT2_PC), 0x00D80000u);
 484              		.loc 1 404 0
 485 0182 D822     		mov	r2, #216
 486 0184 1204     		lsl	r2, r2, #16
 487 0186 164B     		ldr	r3, .L24+40
 488 0188 1A60     		str	r2, [r3]
 405:.\Generated_Source\PSoC4/cyfitter_cfg.c **** 
 406:.\Generated_Source\PSoC4/cyfitter_cfg.c **** 	/* IOPINS0_3 Starting address: CYDEV_GPIO_PRT3_BASE */
 407:.\Generated_Source\PSoC4/cyfitter_cfg.c **** 	CY_SET_XTND_REG32((void CYFAR *)(CYDEV_GPIO_PRT3_BASE), 0x00000080u);
 489              		.loc 1 407 0
 490 018a 8023     		mov	r3, #128
 491 018c 154A     		ldr	r2, .L24+44
ARM GAS  C:\Users\merlin\AppData\Local\Temp\cchF7ckV.s 			page 17


 492 018e 1360     		str	r3, [r2]
 408:.\Generated_Source\PSoC4/cyfitter_cfg.c **** 	CY_SET_XTND_REG32((void CYFAR *)(CYREG_GPIO_PRT3_PC), 0x00000D80u);
 493              		.loc 1 408 0
 494 0190 D821     		mov	r1, #216
 495 0192 0901     		lsl	r1, r1, #4
 496 0194 144A     		ldr	r2, .L24+48
 497 0196 1160     		str	r1, [r2]
 409:.\Generated_Source\PSoC4/cyfitter_cfg.c **** 	CY_SET_XTND_REG32((void CYFAR *)(CYREG_GPIO_PRT3_PC2), 0x00000080u);
 498              		.loc 1 409 0
 499 0198 144A     		ldr	r2, .L24+52
 500 019a 1360     		str	r3, [r2]
 410:.\Generated_Source\PSoC4/cyfitter_cfg.c **** 
 411:.\Generated_Source\PSoC4/cyfitter_cfg.c **** 	/* IOPINS0_4 Starting address: CYDEV_GPIO_PRT4_BASE */
 412:.\Generated_Source\PSoC4/cyfitter_cfg.c **** 	CY_SET_XTND_REG32((void CYFAR *)(CYDEV_GPIO_PRT4_BASE), 0x00000007u);
 501              		.loc 1 412 0
 502 019c 0722     		mov	r2, #7
 503 019e 144B     		ldr	r3, .L24+56
 504 01a0 1A60     		str	r2, [r3]
 413:.\Generated_Source\PSoC4/cyfitter_cfg.c **** 	CY_SET_XTND_REG32((void CYFAR *)(CYREG_GPIO_PRT4_PC), 0x001B6024u);
 505              		.loc 1 413 0
 506 01a2 144A     		ldr	r2, .L24+60
 507 01a4 144B     		ldr	r3, .L24+64
 508 01a6 1A60     		str	r2, [r3]
 414:.\Generated_Source\PSoC4/cyfitter_cfg.c **** 	CY_SET_XTND_REG32((void CYFAR *)(CYREG_GPIO_PRT4_PC2), 0x00000004u);
 509              		.loc 1 414 0
 510 01a8 0422     		mov	r2, #4
 511 01aa 144B     		ldr	r3, .L24+68
 512 01ac 1A60     		str	r2, [r3]
 415:.\Generated_Source\PSoC4/cyfitter_cfg.c **** 
 416:.\Generated_Source\PSoC4/cyfitter_cfg.c **** 
 417:.\Generated_Source\PSoC4/cyfitter_cfg.c **** 	/* Setup clocks based on selections from Clock DWR */
 418:.\Generated_Source\PSoC4/cyfitter_cfg.c **** 	ClockSetup();
 513              		.loc 1 418 0
 514 01ae FFF727FF 		bl	ClockSetup
 515              	.LVL34:
 419:.\Generated_Source\PSoC4/cyfitter_cfg.c **** 
 420:.\Generated_Source\PSoC4/cyfitter_cfg.c **** 	/* Perform basic analog initialization to defaults */
 421:.\Generated_Source\PSoC4/cyfitter_cfg.c **** 	AnalogSetDefault();
 516              		.loc 1 421 0
 517 01b2 FFF7FEFF 		bl	AnalogSetDefault
 518              	.LVL35:
 422:.\Generated_Source\PSoC4/cyfitter_cfg.c **** 
 423:.\Generated_Source\PSoC4/cyfitter_cfg.c **** }
 519              		.loc 1 423 0
 520              		@ sp needed
 521              	.LVL36:
 522 01b6 10BD     		pop	{r4, pc}
 523              	.L25:
 524              		.align	2
 525              	.L24:
 526 01b8 00000000 		.word	.LANCHOR0
 527 01bc 00020240 		.word	1073873408
 528 01c0 00030240 		.word	1073873664
 529 01c4 00040240 		.word	1073873920
 530 01c8 20500F40 		.word	1074745376
 531 01cc 28500F40 		.word	1074745384
 532 01d0 30500F40 		.word	1074745392
ARM GAS  C:\Users\merlin\AppData\Local\Temp\cchF7ckV.s 			page 18


 533 01d4 00700F40 		.word	1074753536
 534 01d8 01700F40 		.word	1074753537
 535 01dc 00020440 		.word	1074004480
 536 01e0 08020440 		.word	1074004488
 537 01e4 00030440 		.word	1074004736
 538 01e8 08030440 		.word	1074004744
 539 01ec 18030440 		.word	1074004760
 540 01f0 00040440 		.word	1074004992
 541 01f4 24601B00 		.word	1794084
 542 01f8 08040440 		.word	1074005000
 543 01fc 18040440 		.word	1074005016
 544              		.cfi_endproc
 545              	.LFE8:
 546              		.size	cyfitter_cfg, .-cyfitter_cfg
 547              		.section	.rodata
 548              		.align	2
 549              		.set	.LANCHOR0,. + 0
 550              		.type	cfg_memset_list.4767, %object
 551              		.size	cfg_memset_list.4767, 12
 552              	cfg_memset_list.4767:
 553 0000 00300F40 		.word	1074737152
 554 0004 0004     		.short	1024
 555 0006 00400F40 		.4byte	1074741248
 556 000a 0004     		.short	1024
 557              		.type	cy_cfg_addr_table.4761, %object
 558              		.size	cy_cfg_addr_table.4761, 20
 559              	cy_cfg_addr_table.4761:
 560 000c 04300F40 		.word	1074737156
 561 0010 01310F40 		.word	1074737409
 562 0014 01330F40 		.word	1074737921
 563 0018 05420F40 		.word	1074741765
 564 001c 05430F40 		.word	1074742021
 565              		.type	cy_cfg_data_table.4762, %object
 566              		.size	cy_cfg_data_table.4762, 32
 567              	cy_cfg_data_table.4762:
 568 0020 38       		.byte	56
 569 0021 80       		.byte	-128
 570 0022 3E       		.byte	62
 571 0023 40       		.byte	64
 572 0024 58       		.byte	88
 573 0025 04       		.byte	4
 574 0026 5F       		.byte	95
 575 0027 01       		.byte	1
 576 0028 18       		.byte	24
 577 0029 01       		.byte	1
 578 002a B4       		.byte	-76
 579 002b 01       		.byte	1
 580 002c 60       		.byte	96
 581 002d 01       		.byte	1
 582 002e 6C       		.byte	108
 583 002f 40       		.byte	64
 584 0030 70       		.byte	112
 585 0031 08       		.byte	8
 586 0032 D6       		.byte	-42
 587 0033 02       		.byte	2
 588 0034 DC       		.byte	-36
 589 0035 03       		.byte	3
ARM GAS  C:\Users\merlin\AppData\Local\Temp\cchF7ckV.s 			page 19


 590 0036 20       		.byte	32
 591 0037 01       		.byte	1
 592 0038 94       		.byte	-108
 593 0039 01       		.byte	1
 594 003a B4       		.byte	-76
 595 003b 48       		.byte	72
 596 003c C8       		.byte	-56
 597 003d 08       		.byte	8
 598 003e EC       		.byte	-20
 599 003f 08       		.byte	8
 600              		.text
 601              	.Letext0:
 602              		.file 2 "c:\\program files (x86)\\cypress\\psoc creator\\3.3\\psoc creator\\import\\gnu\\arm\\4.9.
 603              		.file 3 ".\\Generated_Source\\PSoC4\\cytypes.h"
 604              		.file 4 ".\\Generated_Source\\PSoC4\\CyLib.h"