ARM GAS  C:\Users\merlin\AppData\Local\Temp\ccsSLXlh.s 			page 1


   1              		.cpu cortex-m0
   2              		.fpu softvfp
   3              		.eabi_attribute 20, 1
   4              		.eabi_attribute 21, 1
   5              		.eabi_attribute 23, 3
   6              		.eabi_attribute 24, 1
   7              		.eabi_attribute 25, 1
   8              		.eabi_attribute 26, 1
   9              		.eabi_attribute 30, 1
  10              		.eabi_attribute 34, 0
  11              		.eabi_attribute 18, 4
  12              		.code	16
  13              		.file	"main.c"
  14              		.text
  15              	.Ltext0:
  16              		.cfi_sections	.debug_frame
  17              		.section	.text.EnterDeepSleepLowPowerMode,"ax",%progbits
  18              		.align	2
  19              		.global	EnterDeepSleepLowPowerMode
  20              		.code	16
  21              		.thumb_func
  22              		.type	EnterDeepSleepLowPowerMode, %function
  23              	EnterDeepSleepLowPowerMode:
  24              	.LFB35:
  25              		.file 1 ".\\main.c"
   1:.\main.c      **** /******************************************************************************
   2:.\main.c      **** * Project Name		: CY8CKIT_044_CapSense_Proximity
   3:.\main.c      **** * Version			: 1.0
   4:.\main.c      **** * Device Used		: CY8C4247AZI-M485     
   5:.\main.c      **** * Software Used		: PSoC Creator 3.2
   6:.\main.c      **** * Compiler Used		: ARM GCC 4.8.4 
   7:.\main.c      **** * Related Hardware	: CY8CKIT-044 PSoC 4 M-Series Pioneer Kit 
   8:.\main.c      **** *******************************************************************************
   9:.\main.c      **** * Copyright (2015), Cypress Semiconductor Corporation.
  10:.\main.c      **** *******************************************************************************
  11:.\main.c      **** * This software, including source code, documentation and related materials
  12:.\main.c      **** * ("Software") is owned by Cypress Semiconductor Corporation (Cypress) and is
  13:.\main.c      **** * protected by and subject to worldwide patent protection (United States and 
  14:.\main.c      **** * foreign), United States copyright laws and international treaty provisions. 
  15:.\main.c      **** * Cypress hereby grants to licensee a personal, non-exclusive, non-transferable
  16:.\main.c      **** * license to copy, use, modify, create derivative works of, and compile the 
  17:.\main.c      **** * Cypress source code and derivative works for the sole purpose of creating 
  18:.\main.c      **** * custom software in support of licensee product, such licensee product to be
  19:.\main.c      **** * used only in conjunction with Cypress's integrated circuit as specified in the
  20:.\main.c      **** * applicable agreement. Any reproduction, modification, translation, compilation,
  21:.\main.c      **** * or representation of this Software except as specified above is prohibited 
  22:.\main.c      **** * without the express written permission of Cypress.
  23:.\main.c      **** * 
  24:.\main.c      **** * Disclaimer: THIS SOFTWARE IS PROVIDED AS-IS, WITH NO WARRANTY OF ANY KIND, 
  25:.\main.c      **** * EXPRESS OR IMPLIED, INCLUDING, BUT NOT LIMITED TO, NONINFRINGEMENT, IMPLIED 
  26:.\main.c      **** * WARRANTIES OF MERCHANTABILITY AND FITNESS FOR A PARTICULAR PURPOSE.
  27:.\main.c      **** * Cypress reserves the right to make changes to the Software without notice. 
  28:.\main.c      **** * Cypress does not assume any liability arising out of the application or use
  29:.\main.c      **** * of Software or any product or circuit described in the Software. Cypress does
  30:.\main.c      **** * not authorize its products for use as critical components in any products 
  31:.\main.c      **** * where a malfunction or failure may reasonably be expected to result in 
  32:.\main.c      **** * significant injury or death ("ACTIVE Risk Product"). By including Cypress's 
ARM GAS  C:\Users\merlin\AppData\Local\Temp\ccsSLXlh.s 			page 2


  33:.\main.c      **** * product in a ACTIVE Risk Product, the manufacturer of such system or application
  34:.\main.c      **** * assumes all risk of such use and in doing so indemnifies Cypress against all
  35:.\main.c      **** * liability. Use of this Software may be limited by and subject to the applicable
  36:.\main.c      **** * Cypress software license agreement.
  37:.\main.c      **** *******************************************************************************/
  38:.\main.c      **** /*******************************************************************************
  39:.\main.c      **** * Theory of Operation: This project demonstrates the proximity sensing capability
  40:.\main.c      **** * of PSoC 4200M device. Note that a proximity sensor wire must be connected to 
  41:.\main.c      **** * P3[7] of the CY8CKIT-044 PSoC 4 M-Series Pioneer Kit for this project. Refer to the
  42:.\main.c      **** * PSoC 4 M-Series Pioneer Kit User Guide for more details on hardware connection and 
  43:.\main.c      **** * testing of this project. 
  44:.\main.c      **** *
  45:.\main.c      **** * The PSoC 4200M detects an approaching hand using the proximity sensor. If the
  46:.\main.c      **** * signal level detected by the proximity sensor is greater than a threshold value,
  47:.\main.c      **** * the PSoC 4200M switches on the Green LED on the PSoC 4 M-Series Pioneer Kit. The 
  48:.\main.c      **** * brightness of the LED is increased as the hand approaches the proximity sensor.
  49:.\main.c      **** * To achieve lower average power consumption, the PSoC 4200M scans the proximity
  50:.\main.c      **** * sensor every 100ms when proximity is not detected. If proximity is detected 
  51:.\main.c      **** * during sensor scan, PSoC 4200M starts scanning the sensor every 30ms. If the
  52:.\main.c      **** * proximity is absent for a period more than 3 seconds, PSoC 4200M increases the
  53:.\main.c      **** * interval between sensor scans and sensor scan is repeated every 100ms. 
  54:.\main.c      **** *
  55:.\main.c      **** * Note: The time periods of 30ms and 100ms are dependent on the LFCLK accuracy. 
  56:.\main.c      **** * These time periods can be inaccurate up to 60% when ILO is used as the clock 
  57:.\main.c      **** * source for LFCLK. Use the ILO Trim Component as demonstrated in the 
  58:.\main.c      **** * CY8CKIT_044_Deep_Sleep_Blinky project to achieve higher accuracy with ILO.
  59:.\main.c      **** *******************************************************************************/
  60:.\main.c      **** 
  61:.\main.c      **** #include "project.h"
  62:.\main.c      **** #include "main.h"
  63:.\main.c      **** #include "accelerometer.h"
  64:.\main.c      **** 
  65:.\main.c      **** /* Change this define to TRUE if you are using uC/Probe with this project. */
  66:.\main.c      **** #define uCProbeEnabled 		FALSE
  67:.\main.c      **** 
  68:.\main.c      **** /* Proximity status for uC/Probe. */
  69:.\main.c      **** uint32 uC_Probe_Prox_Indicator = ZERO;
  70:.\main.c      **** 
  71:.\main.c      **** /* Variables to store the acceleration data in 3 dimensions. */
  72:.\main.c      **** int16 uC_Probe_x_dirMovement = ACC_NO_MOVEMENT;
  73:.\main.c      **** int16 uC_Probe_y_dirMovement = ACC_NO_MOVEMENT;
  74:.\main.c      **** int16 uC_Probe_z_dirMovement = ACC_NO_MOVEMENT;
  75:.\main.c      **** 
  76:.\main.c      **** /* If the accelerometer is configured, this variable is set to TRUE. */
  77:.\main.c      **** uint8 acclerometer_configured = FALSE;
  78:.\main.c      **** 
  79:.\main.c      **** int main()
  80:.\main.c      **** {	
  81:.\main.c      ****     /* Start all the Components and enable the global interrupt. */
  82:.\main.c      **** 	Initialize_Project();
  83:.\main.c      ****     
  84:.\main.c      ****     /* Initialize the accelerometer after a self-test. */
  85:.\main.c      **** 	InitializeAccelerometer();
  86:.\main.c      ****     
  87:.\main.c      **** 	/* Proximity sensor state. */
  88:.\main.c      **** 	uint8 proximity  = INACTIVE;
  89:.\main.c      **** 	
ARM GAS  C:\Users\merlin\AppData\Local\Temp\ccsSLXlh.s 			page 3


  90:.\main.c      **** 	/* This variable is used to implement a software counter. If the value 
  91:.\main.c      **** 	 * of this counter is greater than 100, the proximity sensor was inactive
  92:.\main.c      **** 	 * for more than 3s. */
  93:.\main.c      **** 	uint8 softCounter = RESET;
  94:.\main.c      **** 	
  95:.\main.c      **** 	/* Variable to store the WDT match value. */
  96:.\main.c      **** 	uint16 currentCountVal = ZERO;
  97:.\main.c      **** 	
  98:.\main.c      **** 	/* Variable to determine whether to update the WDT match value. */
  99:.\main.c      **** 	uint8 updateMatch = UPDATE_100MS;
 100:.\main.c      **** 	
 101:.\main.c      **** 	/* Enable global interrupt. */
 102:.\main.c      **** 	CyGlobalIntEnable; 
 103:.\main.c      **** 
 104:.\main.c      **** 	/* Enable and start the CapSense block. */	
 105:.\main.c      **** 	CapSense_Start();
 106:.\main.c      **** 	
 107:.\main.c      **** 	/* Initialize the baselines of all CapSense widgets. */ 
 108:.\main.c      **** 	CapSense_InitializeSensorBaseline(CapSense_PROXIMITYSENSOR__PROX);
 109:.\main.c      **** 	
 110:.\main.c      **** 	/* Enable and start PWM block. */	
 111:.\main.c      **** 	PWM_Green_Start();
 112:.\main.c      **** 	
 113:.\main.c      **** 	/* Switch off the Green LED. */
 114:.\main.c      **** 	LED_SetBrightness(ZERO);
 115:.\main.c      **** 	
 116:.\main.c      **** 	for(;;)
 117:.\main.c      ****     {	
 118:.\main.c      **** 		/* Update the baseline of the proximity sensor. */
 119:.\main.c      **** 		CapSense_UpdateSensorBaseline(CapSense_PROXIMITYSENSOR__PROX);
 120:.\main.c      **** 		
 121:.\main.c      **** 		/* Scan the proximity sensor. */						
 122:.\main.c      **** 		CapSense_ScanSensor(CapSense_PROXIMITYSENSOR__PROX);
 123:.\main.c      **** 		
 124:.\main.c      **** 		/* Wait till the scan is complete*/
 125:.\main.c      **** 		while(CapSense_IsBusy())
 126:.\main.c      **** 		{
 127:.\main.c      **** 			/* Put the PSoC 4200M in Sleep power mode while the CapSense is scanning. 
 128:.\main.c      **** 			 * The device wakes up using the interrupt generated by CapSense CSD Component 
 129:.\main.c      **** 			 * after scanning. */
 130:.\main.c      **** 			CySysPmSleep();
 131:.\main.c      **** 		}
 132:.\main.c      **** 	
 133:.\main.c      **** 		/* Check if proximity sensor is active. */
 134:.\main.c      **** 		proximity = CapSense_CheckIsSensorActive(CapSense_PROXIMITYSENSOR__PROX);
 135:.\main.c      **** 
 136:.\main.c      **** 		if(proximity == ACTIVE)
 137:.\main.c      **** 		{
 138:.\main.c      **** 			/* Set the LED at a brightness level corresponding 
 139:.\main.c      **** 			 * to the proximity distance. And check accel */
 140:.\main.c      **** 			LED_SetBrightness(ON);
 141:.\main.c      ****             UpdateLEDColor();
 142:.\main.c      **** 			
 143:.\main.c      **** 			/* Update the WDT if required. */
 144:.\main.c      **** 			if(updateMatch == UPDATE_30MS)
 145:.\main.c      **** 			{
 146:.\main.c      **** 				/* Configure the wake up period to 30ms and update WDT match value. */
ARM GAS  C:\Users\merlin\AppData\Local\Temp\ccsSLXlh.s 			page 4


 147:.\main.c      **** 		    	CySysWdtWriteMatch(CY_SYS_WDT_COUNTER0, WDT_MATCH_VALUE_30MS);
 148:.\main.c      **** 				
 149:.\main.c      **** 				/* Read the current count value of the WDT. */
 150:.\main.c      **** 			    currentCountVal = CySysWdtReadCount(CY_SYS_WDT_COUNTER0);
 151:.\main.c      **** 				
 152:.\main.c      **** 				/* Reset the counter if the count value is greater than
 153:.\main.c      **** 				 * the match value */
 154:.\main.c      **** 			    if (currentCountVal > WDT_MATCH_VALUE_30MS)
 155:.\main.c      **** 			    {
 156:.\main.c      **** 			        CySysWdtResetCounters(CY_SYS_WDT_COUNTER0_RESET);
 157:.\main.c      **** 				}
 158:.\main.c      **** 				
 159:.\main.c      **** 				/* Provide a delay to allow the changes on WDT register to take 
 160:.\main.c      **** 				 * effect. This is approximately 4 LFCLK cycles. */
 161:.\main.c      **** 				CyDelayUs(ILOX4);
 162:.\main.c      **** 				
 163:.\main.c      **** 				/* Next update to the WDT match value is required only when
 164:.\main.c      **** 				 * switching to 100ms scan interval. */
 165:.\main.c      **** 				updateMatch = UPDATE_100MS;
 166:.\main.c      **** 			}
 167:.\main.c      **** 			
 168:.\main.c      **** 			/* Reset the software counter if proximity is detected. */
 169:.\main.c      **** 			softCounter = RESET;
 170:.\main.c      ****             
 171:.\main.c      ****             if(acclerometer_configured == TRUE)
 172:.\main.c      **** 		    {
 173:.\main.c      **** 			
 174:.\main.c      **** 			/* Read the accelerometer data. */
 175:.\main.c      **** 			ReadAccelerometer(&uC_Probe_x_dirMovement, &uC_Probe_y_dirMovement, &uC_Probe_z_dirMovement);
 176:.\main.c      **** 			
 177:.\main.c      **** 			/* Update the LED color based on the acceleration data. */
 178:.\main.c      **** 			UpdateLEDColor();
 179:.\main.c      **** 		    }
 180:.\main.c      **** 			
 181:.\main.c      **** 			/* Put CPU in sleep mode after displaying output on LED. 
 182:.\main.c      **** 			CySysPmSleep(); */
 183:.\main.c      ****             
 184:.\main.c      **** 		}
 185:.\main.c      **** 		else /* Proximity sensor is inactive. */
 186:.\main.c      **** 		{
 187:.\main.c      **** 			/* Switch off the LED if proximity is not detected. */
 188:.\main.c      **** 			LED_SetBrightness(OFF);
 189:.\main.c      **** 			
 190:.\main.c      **** 			/* Increment the software counter every 30ms if proximity is not detected. */
 191:.\main.c      **** 			softCounter++;
 192:.\main.c      **** 			
 193:.\main.c      **** 			/* Set the maximum limit for the soft counter. */
 194:.\main.c      **** 			if(softCounter >= MAX_VALUE)
 195:.\main.c      **** 			{
 196:.\main.c      **** 				/* Set the maximum limit for the softCounter. */
 197:.\main.c      **** 				softCounter = MAX_VALUE;
 198:.\main.c      **** 				
 199:.\main.c      **** 				/* Update the WDT if required. */
 200:.\main.c      **** 				if(updateMatch == UPDATE_100MS)
 201:.\main.c      **** 				{
 202:.\main.c      **** 					/* Proximity sensor is inactive for more than 3s. 
 203:.\main.c      **** 					 * Increase Deep-Sleep duration to 100ms and update WDT match value. */
ARM GAS  C:\Users\merlin\AppData\Local\Temp\ccsSLXlh.s 			page 5


 204:.\main.c      **** 			    	CySysWdtWriteMatch(CY_SYS_WDT_COUNTER0, WDT_MATCH_VALUE_100MS);
 205:.\main.c      **** 					
 206:.\main.c      **** 					/* Read the current count value of the WDT. */
 207:.\main.c      **** 				    currentCountVal = CySysWdtReadCount(CY_SYS_WDT_COUNTER0);
 208:.\main.c      **** 					
 209:.\main.c      **** 					/* Reset the counter if the count value is greater than
 210:.\main.c      **** 					 * the match value */
 211:.\main.c      **** 				    if (currentCountVal > WDT_MATCH_VALUE_100MS)
 212:.\main.c      **** 				    {
 213:.\main.c      **** 				        CySysWdtResetCounters(CY_SYS_WDT_COUNTER0_RESET);
 214:.\main.c      **** 					}
 215:.\main.c      **** 					
 216:.\main.c      **** 					/* Provide a delay to allow the changes on WDT register to take 
 217:.\main.c      **** 					 * effect. This is approximately 4 LFCLK cycles. */
 218:.\main.c      **** 					CyDelayUs(ILOX4);
 219:.\main.c      **** 					
 220:.\main.c      **** 					/* Next update to the WDT match value is required only when
 221:.\main.c      **** 					 * switching to 30ms scan interval. */
 222:.\main.c      **** 					updateMatch = UPDATE_30MS;
 223:.\main.c      **** 				}
 224:.\main.c      **** 			}
 225:.\main.c      **** 
 226:.\main.c      **** 			/* Deep-Sleep low power mode is not available when the uC/Probe tool is active. 
 227:.\main.c      **** 			 *  We use the Sleep low power mode if the macro uCProbeEnabled is set to TRUE. */
 228:.\main.c      **** 			#if(uCProbeEnabled)
 229:.\main.c      **** 				CySysPmSleep();
 230:.\main.c      **** 			#else
 231:.\main.c      **** 				EnterDeepSleepLowPowerMode();
 232:.\main.c      **** 			#endif
 233:.\main.c      **** 		}
 234:.\main.c      **** 	} 	
 235:.\main.c      **** }
 236:.\main.c      **** 
 237:.\main.c      **** /*******************************************************************************
 238:.\main.c      **** * Function Name: EnterDeepSleepLowPowerMode
 239:.\main.c      **** ********************************************************************************
 240:.\main.c      **** * Summary:
 241:.\main.c      **** *  Puts the device in Deep-Sleep power mode. Reconfigures the Components for 
 242:.\main.c      **** *  normal operation after wake-up. 
 243:.\main.c      **** *
 244:.\main.c      **** * Parameters:
 245:.\main.c      **** *  void
 246:.\main.c      **** *
 247:.\main.c      **** * Return:
 248:.\main.c      **** *  void
 249:.\main.c      **** *
 250:.\main.c      **** *******************************************************************************/
 251:.\main.c      **** void EnterDeepSleepLowPowerMode(void)
 252:.\main.c      **** {
  26              		.loc 1 252 0
  27              		.cfi_startproc
  28 0000 08B5     		push	{r3, lr}
  29              		.cfi_def_cfa_offset 8
  30              		.cfi_offset 3, -8
  31              		.cfi_offset 14, -4
 253:.\main.c      **** 	/* Prepare CapSense CSD Component for Deep-Sleep power mode entry. */
 254:.\main.c      **** 	CapSense_Sleep();
ARM GAS  C:\Users\merlin\AppData\Local\Temp\ccsSLXlh.s 			page 6


  32              		.loc 1 254 0
  33 0002 FFF7FEFF 		bl	CapSense_Sleep
  34              	.LVL0:
 255:.\main.c      **** 	
 256:.\main.c      **** 	/* Make the pin connected to Green LED high impedance to save power. 
 257:.\main.c      **** 	 * This is also required to prevent a glitch on the PWM output which 
 258:.\main.c      **** 	 * causes the LED to flash each time the device wakes up from the 
 259:.\main.c      **** 	 * Deep-Sleep low power mode. */
 260:.\main.c      **** 	Pin_GreenLED_SetDriveMode(Pin_GreenLED_DM_ALG_HIZ);
  35              		.loc 1 260 0
  36 0006 0020     		mov	r0, #0
  37 0008 FFF7FEFF 		bl	Pin_GreenLED_SetDriveMode
  38              	.LVL1:
 261:.\main.c      **** 	
 262:.\main.c      **** 	/* Prepare the PWM component for Deep-Sleep power mode entry. */
 263:.\main.c      **** 	PWM_Green_Sleep();
  39              		.loc 1 263 0
  40 000c FFF7FEFF 		bl	PWM_Green_Sleep
  41              	.LVL2:
 264:.\main.c      **** 	
 265:.\main.c      **** 	/* Enter Deep-Sleep. */
 266:.\main.c      **** 	CySysPmDeepSleep();	
  42              		.loc 1 266 0
  43 0010 FFF7FEFF 		bl	CySysPmDeepSleep
  44              	.LVL3:
 267:.\main.c      **** 	
 268:.\main.c      **** 	/* The device has woken up from Deep-Sleep power mode. 
 269:.\main.c      **** 	 * Reconfigure PWM component. */
 270:.\main.c      **** 	PWM_Green_Wakeup();
  45              		.loc 1 270 0
  46 0014 FFF7FEFF 		bl	PWM_Green_Wakeup
  47              	.LVL4:
 271:.\main.c      **** 	
 272:.\main.c      **** 	/* Set the pin connected to Green LED to be in strong drive
 273:.\main.c      **** 	 * mode for normal operation. */
 274:.\main.c      **** 	Pin_GreenLED_SetDriveMode(Pin_GreenLED_DM_STRONG);
  48              		.loc 1 274 0
  49 0018 0620     		mov	r0, #6
  50 001a FFF7FEFF 		bl	Pin_GreenLED_SetDriveMode
  51              	.LVL5:
 275:.\main.c      **** 	
 276:.\main.c      **** 	/* Reconfigure CapSense CSD Component after Deep-Sleep */
 277:.\main.c      **** 	CapSense_Wakeup();
  52              		.loc 1 277 0
  53 001e FFF7FEFF 		bl	CapSense_Wakeup
  54              	.LVL6:
 278:.\main.c      **** }
  55              		.loc 1 278 0
  56              		@ sp needed
  57 0022 08BD     		pop	{r3, pc}
  58              		.cfi_endproc
  59              	.LFE35:
  60              		.size	EnterDeepSleepLowPowerMode, .-EnterDeepSleepLowPowerMode
  61              		.section	.text.Neutral,"ax",%progbits
  62              		.align	2
  63              		.global	Neutral
  64              		.code	16
ARM GAS  C:\Users\merlin\AppData\Local\Temp\ccsSLXlh.s 			page 7


  65              		.thumb_func
  66              		.type	Neutral, %function
  67              	Neutral:
  68              	.LFB37:
 279:.\main.c      **** 
 280:.\main.c      **** /*******************************************************************************
 281:.\main.c      **** * Function Name: LED_SetBrightness
 282:.\main.c      **** ********************************************************************************
 283:.\main.c      **** * Summary:
 284:.\main.c      **** *  Sets the Green LED on PSoC 4 M-Series Pioneer Kit at a brightness level 
 285:.\main.c      **** *  corresponding value passed to this function.
 286:.\main.c      **** *
 287:.\main.c      **** * Parameters:
 288:.\main.c      **** *  signal: The proximity signal value corresponding to which the LED brightness
 289:.\main.c      ****            has to be changed.
 290:.\main.c      **** *
 291:.\main.c      **** * Return:
 292:.\main.c      **** *  void
 293:.\main.c      **** *
 294:.\main.c      **** *******************************************************************************/
 295:.\main.c      **** void LED_SetBrightness(uint8 mode)
 296:.\main.c      **** {
 297:.\main.c      **** 	uint16 ledBrighness = ZERO;
 298:.\main.c      **** 	
 299:.\main.c      **** 	/* The variable signal holds a value between 0 and 255.
 300:.\main.c      **** 	 * Scale the value for a visible brightness change. */
 301:.\main.c      **** 	if(mode != OFF)
 302:.\main.c      **** 	{
 303:.\main.c      ****         Happy();
 304:.\main.c      **** 		if(CapSense_SensorRaw[0] < PROX_UPPER_LIMIT)
 305:.\main.c      **** 		{
 306:.\main.c      **** 			ledBrighness = ((PWM_Green_PWM_PERIOD_VALUE * (CapSense_SensorRaw[0] - PROX_LOWER_LIMIT))/(PROX_
 307:.\main.c      **** 		}
 308:.\main.c      **** 		else
 309:.\main.c      **** 		{
 310:.\main.c      **** 			ledBrighness = PWM_Green_PWM_PERIOD_VALUE;
 311:.\main.c      **** 		}
 312:.\main.c      **** 	}
 313:.\main.c      **** 	else
 314:.\main.c      **** 	{
 315:.\main.c      **** 		ledBrighness = OFF;
 316:.\main.c      ****         Neutral();
 317:.\main.c      **** 	}
 318:.\main.c      **** 	
 319:.\main.c      **** 	/* Update the PWM compare value to change the LED brightness. */
 320:.\main.c      **** 	PWM_Green_WriteCompare(ledBrighness);
 321:.\main.c      **** 	
 322:.\main.c      **** 	/* This section of code is used to update the LED brightness on the
 323:.\main.c      **** 	 * uC/Probe GUI corresponding to the proximity distance. */
 324:.\main.c      **** 	#if(uCProbeEnabled)
 325:.\main.c      **** 		/* Variable to update the uC/Probe. */
 326:.\main.c      **** 		uC_Probe_Prox_Indicator = ledBrighness;
 327:.\main.c      **** 	#endif
 328:.\main.c      **** }
 329:.\main.c      **** 
 330:.\main.c      **** void Neutral(void){
  69              		.loc 1 330 0
ARM GAS  C:\Users\merlin\AppData\Local\Temp\ccsSLXlh.s 			page 8


  70              		.cfi_startproc
  71 0000 08B5     		push	{r3, lr}
  72              		.cfi_def_cfa_offset 8
  73              		.cfi_offset 3, -8
  74              		.cfi_offset 14, -4
 331:.\main.c      ****     Pin_Vibe_Write( ROFF );
  75              		.loc 1 331 0
  76 0002 0020     		mov	r0, #0
  77 0004 FFF7FEFF 		bl	Pin_Vibe_Write
  78              	.LVL7:
 332:.\main.c      ****     Pin_EMiddle_Write( RON );
  79              		.loc 1 332 0
  80 0008 0F20     		mov	r0, #15
  81 000a FFF7FEFF 		bl	Pin_EMiddle_Write
  82              	.LVL8:
 333:.\main.c      ****     Pin_EBottom_Write( ROFF );
  83              		.loc 1 333 0
  84 000e 0020     		mov	r0, #0
  85 0010 FFF7FEFF 		bl	Pin_EBottom_Write
  86              	.LVL9:
 334:.\main.c      ****     Pin_ETop_Write( ROFF );
  87              		.loc 1 334 0
  88 0014 0020     		mov	r0, #0
  89 0016 FFF7FEFF 		bl	Pin_ETop_Write
  90              	.LVL10:
 335:.\main.c      **** }
  91              		.loc 1 335 0
  92              		@ sp needed
  93 001a 08BD     		pop	{r3, pc}
  94              		.cfi_endproc
  95              	.LFE37:
  96              		.size	Neutral, .-Neutral
  97              		.section	.text.Happy,"ax",%progbits
  98              		.align	2
  99              		.global	Happy
 100              		.code	16
 101              		.thumb_func
 102              		.type	Happy, %function
 103              	Happy:
 104              	.LFB38:
 336:.\main.c      **** 
 337:.\main.c      **** void Happy(void) {
 105              		.loc 1 337 0
 106              		.cfi_startproc
 107 0000 08B5     		push	{r3, lr}
 108              		.cfi_def_cfa_offset 8
 109              		.cfi_offset 3, -8
 110              		.cfi_offset 14, -4
 338:.\main.c      ****     Pin_ETop_Write( RON );
 111              		.loc 1 338 0
 112 0002 0F20     		mov	r0, #15
 113 0004 FFF7FEFF 		bl	Pin_ETop_Write
 114              	.LVL11:
 339:.\main.c      ****     Pin_Vibe_Write( ROFF );
 115              		.loc 1 339 0
 116 0008 0020     		mov	r0, #0
 117 000a FFF7FEFF 		bl	Pin_Vibe_Write
ARM GAS  C:\Users\merlin\AppData\Local\Temp\ccsSLXlh.s 			page 9


 118              	.LVL12:
 340:.\main.c      ****     Pin_EMiddle_Write( ROFF );
 119              		.loc 1 340 0
 120 000e 0020     		mov	r0, #0
 121 0010 FFF7FEFF 		bl	Pin_EMiddle_Write
 122              	.LVL13:
 341:.\main.c      ****     Pin_EBottom_Write( ROFF );
 123              		.loc 1 341 0
 124 0014 0020     		mov	r0, #0
 125 0016 FFF7FEFF 		bl	Pin_EBottom_Write
 126              	.LVL14:
 342:.\main.c      **** }
 127              		.loc 1 342 0
 128              		@ sp needed
 129 001a 08BD     		pop	{r3, pc}
 130              		.cfi_endproc
 131              	.LFE38:
 132              		.size	Happy, .-Happy
 133              		.global	__aeabi_uidiv
 134              		.section	.text.LED_SetBrightness,"ax",%progbits
 135              		.align	2
 136              		.global	LED_SetBrightness
 137              		.code	16
 138              		.thumb_func
 139              		.type	LED_SetBrightness, %function
 140              	LED_SetBrightness:
 141              	.LFB36:
 296:.\main.c      **** 	uint16 ledBrighness = ZERO;
 142              		.loc 1 296 0
 143              		.cfi_startproc
 144              	.LVL15:
 145 0000 08B5     		push	{r3, lr}
 146              		.cfi_def_cfa_offset 8
 147              		.cfi_offset 3, -8
 148              		.cfi_offset 14, -4
 149              	.LVL16:
 301:.\main.c      **** 	{
 150              		.loc 1 301 0
 151 0002 0028     		cmp	r0, #0
 152 0004 11D0     		beq	.L5
 303:.\main.c      **** 		if(CapSense_SensorRaw[0] < PROX_UPPER_LIMIT)
 153              		.loc 1 303 0
 154 0006 FFF7FEFF 		bl	Happy
 155              	.LVL17:
 304:.\main.c      **** 		{
 156              		.loc 1 304 0
 157 000a 0C4B     		ldr	r3, .L8
 158 000c 1888     		ldrh	r0, [r3]
 159 000e 0C4B     		ldr	r3, .L8+4
 160 0010 9842     		cmp	r0, r3
 161 0012 0ED8     		bhi	.L7
 306:.\main.c      **** 		}
 162              		.loc 1 306 0
 163 0014 0B4B     		ldr	r3, .L8+8
 164 0016 1988     		ldrh	r1, [r3]
 165 0018 401A     		sub	r0, r0, r1
 166 001a 0304     		lsl	r3, r0, #16
ARM GAS  C:\Users\merlin\AppData\Local\Temp\ccsSLXlh.s 			page 10


 167 001c 181A     		sub	r0, r3, r0
 168 001e 0A4B     		ldr	r3, .L8+12
 169 0020 591A     		sub	r1, r3, r1
 170 0022 FFF7FEFF 		bl	__aeabi_uidiv
 171              	.LVL18:
 172 0026 80B2     		uxth	r0, r0
 173              	.LVL19:
 174 0028 04E0     		b	.L6
 175              	.LVL20:
 176              	.L5:
 316:.\main.c      **** 	}
 177              		.loc 1 316 0
 178 002a FFF7FEFF 		bl	Neutral
 179              	.LVL21:
 315:.\main.c      ****         Neutral();
 180              		.loc 1 315 0
 181 002e 0020     		mov	r0, #0
 182 0030 00E0     		b	.L6
 183              	.L7:
 310:.\main.c      **** 		}
 184              		.loc 1 310 0
 185 0032 0648     		ldr	r0, .L8+16
 186              	.LVL22:
 187              	.L6:
 320:.\main.c      **** 	
 188              		.loc 1 320 0
 189 0034 FFF7FEFF 		bl	PWM_Green_WriteCompare
 190              	.LVL23:
 328:.\main.c      **** 
 191              		.loc 1 328 0
 192              		@ sp needed
 193 0038 08BD     		pop	{r3, pc}
 194              	.L9:
 195 003a C046     		.align	2
 196              	.L8:
 197 003c 00000000 		.word	CapSense_sensorRaw
 198 0040 D7D60000 		.word	54999
 199 0044 00000000 		.word	CapSense_sensorBaseline
 200 0048 D8D60000 		.word	55000
 201 004c FFFF0000 		.word	65535
 202              		.cfi_endproc
 203              	.LFE36:
 204              		.size	LED_SetBrightness, .-LED_SetBrightness
 205              		.section	.text.Alarm,"ax",%progbits
 206              		.align	2
 207              		.global	Alarm
 208              		.code	16
 209              		.thumb_func
 210              		.type	Alarm, %function
 211              	Alarm:
 212              	.LFB39:
 343:.\main.c      **** 
 344:.\main.c      **** void Alarm(void) {
 213              		.loc 1 344 0
 214              		.cfi_startproc
 215 0000 08B5     		push	{r3, lr}
 216              		.cfi_def_cfa_offset 8
ARM GAS  C:\Users\merlin\AppData\Local\Temp\ccsSLXlh.s 			page 11


 217              		.cfi_offset 3, -8
 218              		.cfi_offset 14, -4
 345:.\main.c      ****     Pin_ETop_Write( RON );
 219              		.loc 1 345 0
 220 0002 0F20     		mov	r0, #15
 221 0004 FFF7FEFF 		bl	Pin_ETop_Write
 222              	.LVL24:
 346:.\main.c      ****     Pin_EMiddle_Write( ROFF );
 223              		.loc 1 346 0
 224 0008 0020     		mov	r0, #0
 225 000a FFF7FEFF 		bl	Pin_EMiddle_Write
 226              	.LVL25:
 347:.\main.c      ****     Pin_EBottom_Write( RON );
 227              		.loc 1 347 0
 228 000e 0F20     		mov	r0, #15
 229 0010 FFF7FEFF 		bl	Pin_EBottom_Write
 230              	.LVL26:
 348:.\main.c      ****     Pin_Vibe_Write( RON );
 231              		.loc 1 348 0
 232 0014 0F20     		mov	r0, #15
 233 0016 FFF7FEFF 		bl	Pin_Vibe_Write
 234              	.LVL27:
 349:.\main.c      ****     CyDelay(100);
 235              		.loc 1 349 0
 236 001a 6420     		mov	r0, #100
 237 001c FFF7FEFF 		bl	CyDelay
 238              	.LVL28:
 350:.\main.c      **** }
 239              		.loc 1 350 0
 240              		@ sp needed
 241 0020 08BD     		pop	{r3, pc}
 242              		.cfi_endproc
 243              	.LFE39:
 244              		.size	Alarm, .-Alarm
 245 0022 C046     		.section	.text.Initialize_Project,"ax",%progbits
 246              		.align	2
 247              		.global	Initialize_Project
 248              		.code	16
 249              		.thumb_func
 250              		.type	Initialize_Project, %function
 251              	Initialize_Project:
 252              	.LFB40:
 351:.\main.c      **** 
 352:.\main.c      **** 
 353:.\main.c      **** /*******************************************************************************
 354:.\main.c      **** * Function Name: Initialize_Project
 355:.\main.c      **** ********************************************************************************
 356:.\main.c      **** * Summary:
 357:.\main.c      **** *  Starts and initializes all the Components for the accelerometer.
 358:.\main.c      **** *
 359:.\main.c      **** * Parameters:
 360:.\main.c      **** *  void
 361:.\main.c      **** *
 362:.\main.c      **** * Return:
 363:.\main.c      **** *  void
 364:.\main.c      **** *
 365:.\main.c      **** *******************************************************************************/
ARM GAS  C:\Users\merlin\AppData\Local\Temp\ccsSLXlh.s 			page 12


 366:.\main.c      **** void Initialize_Project(void)
 367:.\main.c      **** {
 253              		.loc 1 367 0
 254              		.cfi_startproc
 255 0000 08B5     		push	{r3, lr}
 256              		.cfi_def_cfa_offset 8
 257              		.cfi_offset 3, -8
 258              		.cfi_offset 14, -4
 368:.\main.c      **** 	/* Enable and start accelerometer I2C block. */	
 369:.\main.c      **** 	I2C_Start();
 259              		.loc 1 369 0
 260 0002 FFF7FEFF 		bl	I2C_Start
 261              	.LVL29:
 370:.\main.c      **** 	
 371:.\main.c      **** 	/* Wait for 700ms for the accelerometer to start up. */
 372:.\main.c      **** 	CyDelay(ACC_STARTUP_TIME);
 262              		.loc 1 372 0
 263 0006 AF20     		mov	r0, #175
 264 0008 8000     		lsl	r0, r0, #2
 265 000a FFF7FEFF 		bl	CyDelay
 266              	.LVL30:
 373:.\main.c      **** }
 267              		.loc 1 373 0
 268              		@ sp needed
 269 000e 08BD     		pop	{r3, pc}
 270              		.cfi_endproc
 271              	.LFE40:
 272              		.size	Initialize_Project, .-Initialize_Project
 273              		.section	.text.UpdateLEDColor,"ax",%progbits
 274              		.align	2
 275              		.global	UpdateLEDColor
 276              		.code	16
 277              		.thumb_func
 278              		.type	UpdateLEDColor, %function
 279              	UpdateLEDColor:
 280              	.LFB41:
 374:.\main.c      **** 
 375:.\main.c      **** /*******************************************************************************
 376:.\main.c      **** * Function Name: UpdateLEDColor
 377:.\main.c      **** ********************************************************************************
 378:.\main.c      **** * Summary:
 379:.\main.c      **** * 	Updates the LED color based on the accelerometer value.
 380:.\main.c      **** *
 381:.\main.c      **** * Parameters:
 382:.\main.c      **** *  void
 383:.\main.c      **** *
 384:.\main.c      **** * Return:
 385:.\main.c      **** *  void
 386:.\main.c      **** *
 387:.\main.c      **** *******************************************************************************/
 388:.\main.c      **** void UpdateLEDColor(void)
 389:.\main.c      **** {
 281              		.loc 1 389 0
 282              		.cfi_startproc
 283 0000 10B5     		push	{r4, lr}
 284              		.cfi_def_cfa_offset 8
 285              		.cfi_offset 4, -8
ARM GAS  C:\Users\merlin\AppData\Local\Temp\ccsSLXlh.s 			page 13


 286              		.cfi_offset 14, -4
 287              	.LVL31:
 390:.\main.c      **** 	/* Variables to store previous state between function calls. */
 391:.\main.c      **** 	static int16 prev_x_value = ZERO;
 392:.\main.c      **** 	static int16 prev_y_value = ZERO;
 393:.\main.c      **** 	
 394:.\main.c      **** 	/* Variables to calculate the absolute acceleration difference. */
 395:.\main.c      **** 	int16 diffVal1 = ZERO;
 396:.\main.c      **** 	int16 diffVal2 = ZERO;
 397:.\main.c      **** 	uint16 positiveDiffVal = ZERO;
 398:.\main.c      **** 	
 399:.\main.c      **** 	/* Determine the acceleration difference and store the current 
 400:.\main.c      **** 	 * acceleration data in the static variable. */
 401:.\main.c      **** 	diffVal1 = uC_Probe_x_dirMovement - prev_x_value;
 288              		.loc 1 401 0
 289 0002 1249     		ldr	r1, .L17
 290 0004 0888     		ldrh	r0, [r1]
 291 0006 84B2     		uxth	r4, r0
 292 0008 4B88     		ldrh	r3, [r1, #2]
 293 000a E21A     		sub	r2, r4, r3
 294 000c 92B2     		uxth	r2, r2
 295              	.LVL32:
 402:.\main.c      **** 	diffVal2 = prev_x_value - uC_Probe_x_dirMovement;
 296              		.loc 1 402 0
 297 000e 1B1B     		sub	r3, r3, r4
 298 0010 9BB2     		uxth	r3, r3
 299              	.LVL33:
 403:.\main.c      **** 	prev_x_value = uC_Probe_x_dirMovement;
 300              		.loc 1 403 0
 301 0012 4880     		strh	r0, [r1, #2]
 404:.\main.c      **** 	
 405:.\main.c      **** 	/* Determine the absolute value. */
 406:.\main.c      **** 	if(diffVal1 > diffVal2)
 302              		.loc 1 406 0
 303 0014 10B2     		sxth	r0, r2
 304 0016 19B2     		sxth	r1, r3
 305 0018 8842     		cmp	r0, r1
 306 001a 00DD     		ble	.L13
 407:.\main.c      **** 	{
 408:.\main.c      **** 		positiveDiffVal = diffVal1;
 307              		.loc 1 408 0
 308 001c 131C     		mov	r3, r2
 309              	.LVL34:
 310              	.L13:
 409:.\main.c      **** 	}
 410:.\main.c      **** 	else
 411:.\main.c      **** 	{
 412:.\main.c      **** 		positiveDiffVal = diffVal2;
 413:.\main.c      **** 	}
 414:.\main.c      **** 	
 415:.\main.c      **** 	/* Modulate the PWM corresponding to the magnitude of acceleration data
 416:.\main.c      **** 	 if acceleration is greater than threshold value. */
 417:.\main.c      **** 	if(positiveDiffVal > ACC_THRESHOLD_VALUE)
 311              		.loc 1 417 0
 312 001e 102B     		cmp	r3, #16
 313 0020 01D9     		bls	.L14
 418:.\main.c      **** 	{
ARM GAS  C:\Users\merlin\AppData\Local\Temp\ccsSLXlh.s 			page 14


 419:.\main.c      **** 		Alarm();
 314              		.loc 1 419 0
 315 0022 FFF7FEFF 		bl	Alarm
 316              	.LVL35:
 317              	.L14:
 420:.\main.c      **** 	}
 421:.\main.c      **** 	else
 422:.\main.c      **** 	{
 423:.\main.c      **** 	}
 424:.\main.c      **** 	
 425:.\main.c      **** 	/* Determine the acceleration difference and store the current 
 426:.\main.c      **** 	 * acceleration data in the static variable. */
 427:.\main.c      **** 	diffVal1 = uC_Probe_y_dirMovement - prev_y_value;
 318              		.loc 1 427 0
 319 0026 0949     		ldr	r1, .L17
 320 0028 8888     		ldrh	r0, [r1, #4]
 321 002a 84B2     		uxth	r4, r0
 322 002c CB88     		ldrh	r3, [r1, #6]
 323 002e E21A     		sub	r2, r4, r3
 324 0030 92B2     		uxth	r2, r2
 325              	.LVL36:
 428:.\main.c      **** 	diffVal2 = prev_y_value - uC_Probe_y_dirMovement;
 326              		.loc 1 428 0
 327 0032 1B1B     		sub	r3, r3, r4
 328 0034 9BB2     		uxth	r3, r3
 329              	.LVL37:
 429:.\main.c      **** 	prev_y_value = uC_Probe_y_dirMovement;
 330              		.loc 1 429 0
 331 0036 C880     		strh	r0, [r1, #6]
 430:.\main.c      **** 	
 431:.\main.c      **** 	/* Determine the absolute value. */
 432:.\main.c      **** 	if(diffVal1 > diffVal2)
 332              		.loc 1 432 0
 333 0038 10B2     		sxth	r0, r2
 334 003a 19B2     		sxth	r1, r3
 335 003c 8842     		cmp	r0, r1
 336 003e 00DD     		ble	.L15
 433:.\main.c      **** 	{
 434:.\main.c      **** 		positiveDiffVal = diffVal1;
 337              		.loc 1 434 0
 338 0040 131C     		mov	r3, r2
 339              	.LVL38:
 340              	.L15:
 435:.\main.c      **** 	}
 436:.\main.c      **** 	else
 437:.\main.c      **** 	{
 438:.\main.c      **** 		positiveDiffVal = diffVal2;
 439:.\main.c      **** 	}
 440:.\main.c      **** 	
 441:.\main.c      **** 	/* Modulate the PWM corresponding to the magnitude of acceleration data
 442:.\main.c      **** 	 if acceleration is greater than threshold value. */
 443:.\main.c      **** 	if(positiveDiffVal > ACC_THRESHOLD_VALUE)
 341              		.loc 1 443 0
 342 0042 102B     		cmp	r3, #16
 343 0044 01D9     		bls	.L12
 444:.\main.c      **** 	{
 445:.\main.c      **** 		Alarm();
ARM GAS  C:\Users\merlin\AppData\Local\Temp\ccsSLXlh.s 			page 15


 344              		.loc 1 445 0
 345 0046 FFF7FEFF 		bl	Alarm
 346              	.LVL39:
 347              	.L12:
 446:.\main.c      **** 	}
 447:.\main.c      **** 	else
 448:.\main.c      **** 	{
 449:.\main.c      **** 	}
 450:.\main.c      ****     
 451:.\main.c      **** }
 348              		.loc 1 451 0
 349              		@ sp needed
 350 004a 10BD     		pop	{r4, pc}
 351              	.L18:
 352              		.align	2
 353              	.L17:
 354 004c 00000000 		.word	.LANCHOR0
 355              		.cfi_endproc
 356              	.LFE41:
 357              		.size	UpdateLEDColor, .-UpdateLEDColor
 358              		.section	.text.main,"ax",%progbits
 359              		.align	2
 360              		.global	main
 361              		.code	16
 362              		.thumb_func
 363              		.type	main, %function
 364              	main:
 365              	.LFB34:
  80:.\main.c      ****     /* Start all the Components and enable the global interrupt. */
 366              		.loc 1 80 0
 367              		.cfi_startproc
 368 0000 38B5     		push	{r3, r4, r5, lr}
 369              		.cfi_def_cfa_offset 16
 370              		.cfi_offset 3, -16
 371              		.cfi_offset 4, -12
 372              		.cfi_offset 5, -8
 373              		.cfi_offset 14, -4
  82:.\main.c      ****     
 374              		.loc 1 82 0
 375 0002 FFF7FEFF 		bl	Initialize_Project
 376              	.LVL40:
  85:.\main.c      ****     
 377              		.loc 1 85 0
 378 0006 FFF7FEFF 		bl	InitializeAccelerometer
 379              	.LVL41:
 102:.\main.c      **** 
 380              		.loc 1 102 0
 381              	@ 102 ".\main.c" 1
 382 000a 62B6     		CPSIE   i
 383              	@ 0 "" 2
 105:.\main.c      **** 	
 384              		.loc 1 105 0
 385              		.code	16
 386 000c FFF7FEFF 		bl	CapSense_Start
 387              	.LVL42:
 108:.\main.c      **** 	
 388              		.loc 1 108 0
ARM GAS  C:\Users\merlin\AppData\Local\Temp\ccsSLXlh.s 			page 16


 389 0010 0020     		mov	r0, #0
 390 0012 FFF7FEFF 		bl	CapSense_InitializeSensorBaseline
 391              	.LVL43:
 111:.\main.c      **** 	
 392              		.loc 1 111 0
 393 0016 FFF7FEFF 		bl	PWM_Green_Start
 394              	.LVL44:
 114:.\main.c      **** 	
 395              		.loc 1 114 0
 396 001a 0020     		mov	r0, #0
 397 001c FFF7FEFF 		bl	LED_SetBrightness
 398              	.LVL45:
  99:.\main.c      **** 	
 399              		.loc 1 99 0
 400 0020 0225     		mov	r5, #2
  93:.\main.c      **** 	
 401              		.loc 1 93 0
 402 0022 0024     		mov	r4, #0
 403 0024 00E0     		b	.L20
 404              	.LVL46:
 405              	.L29:
 169:.\main.c      ****             
 406              		.loc 1 169 0
 407 0026 0024     		mov	r4, #0
 408              	.LVL47:
 409              	.L20:
 119:.\main.c      **** 		
 410              		.loc 1 119 0
 411 0028 0020     		mov	r0, #0
 412 002a FFF7FEFF 		bl	CapSense_UpdateSensorBaseline
 413              	.LVL48:
 122:.\main.c      **** 		
 414              		.loc 1 122 0
 415 002e 0020     		mov	r0, #0
 416 0030 FFF7FEFF 		bl	CapSense_ScanSensor
 417              	.LVL49:
 125:.\main.c      **** 		{
 418              		.loc 1 125 0
 419 0034 01E0     		b	.L21
 420              	.L22:
 130:.\main.c      **** 		}
 421              		.loc 1 130 0
 422 0036 FFF7FEFF 		bl	CySysPmSleep
 423              	.LVL50:
 424              	.L21:
 125:.\main.c      **** 		{
 425              		.loc 1 125 0
 426 003a FFF7FEFF 		bl	CapSense_IsBusy
 427              	.LVL51:
 428 003e 0028     		cmp	r0, #0
 429 0040 F9D1     		bne	.L22
 134:.\main.c      **** 
 430              		.loc 1 134 0
 431 0042 FFF7FEFF 		bl	CapSense_CheckIsSensorActive
 432              	.LVL52:
 433 0046 C0B2     		uxtb	r0, r0
 434              	.LVL53:
ARM GAS  C:\Users\merlin\AppData\Local\Temp\ccsSLXlh.s 			page 17


 136:.\main.c      **** 		{
 435              		.loc 1 136 0
 436 0048 0128     		cmp	r0, #1
 437 004a 26D1     		bne	.L23
 140:.\main.c      ****             UpdateLEDColor();
 438              		.loc 1 140 0
 439 004c FFF7FEFF 		bl	LED_SetBrightness
 440              	.LVL54:
 141:.\main.c      **** 			
 441              		.loc 1 141 0
 442 0050 FFF7FEFF 		bl	UpdateLEDColor
 443              	.LVL55:
 144:.\main.c      **** 			{
 444              		.loc 1 144 0
 445 0054 012D     		cmp	r5, #1
 446 0056 12D1     		bne	.L24
 147:.\main.c      **** 				
 447              		.loc 1 147 0
 448 0058 F024     		mov	r4, #240
 449              	.LVL56:
 450 005a A400     		lsl	r4, r4, #2
 451 005c 0020     		mov	r0, #0
 452 005e 211C     		mov	r1, r4
 453 0060 FFF7FEFF 		bl	CySysWdtSetMatch
 454              	.LVL57:
 150:.\main.c      **** 				
 455              		.loc 1 150 0
 456 0064 0020     		mov	r0, #0
 457 0066 FFF7FEFF 		bl	CySysWdtGetCount
 458              	.LVL58:
 459 006a 80B2     		uxth	r0, r0
 460              	.LVL59:
 154:.\main.c      **** 			    {
 461              		.loc 1 154 0
 462 006c A042     		cmp	r0, r4
 463 006e 02D9     		bls	.L25
 156:.\main.c      **** 				}
 464              		.loc 1 156 0
 465 0070 0820     		mov	r0, #8
 466              	.LVL60:
 467 0072 FFF7FEFF 		bl	CySysWdtResetCounters
 468              	.LVL61:
 469              	.L25:
 161:.\main.c      **** 				
 470              		.loc 1 161 0
 471 0076 7D20     		mov	r0, #125
 472 0078 FFF7FEFF 		bl	CyDelayUs
 473              	.LVL62:
 165:.\main.c      **** 			}
 474              		.loc 1 165 0
 475 007c 0225     		mov	r5, #2
 476              	.LVL63:
 477              	.L24:
 171:.\main.c      **** 		    {
 478              		.loc 1 171 0
 479 007e 184B     		ldr	r3, .L31
 480 0080 1B7A     		ldrb	r3, [r3, #8]
ARM GAS  C:\Users\merlin\AppData\Local\Temp\ccsSLXlh.s 			page 18


 481 0082 012B     		cmp	r3, #1
 482 0084 CFD1     		bne	.L29
 175:.\main.c      **** 			
 483              		.loc 1 175 0
 484 0086 1648     		ldr	r0, .L31
 485 0088 011D     		add	r1, r0, #4
 486 008a 021C     		mov	r2, r0
 487 008c 0A32     		add	r2, r2, #10
 488 008e FFF7FEFF 		bl	ReadAccelerometer
 489              	.LVL64:
 178:.\main.c      **** 		    }
 490              		.loc 1 178 0
 491 0092 FFF7FEFF 		bl	UpdateLEDColor
 492              	.LVL65:
 169:.\main.c      ****             
 493              		.loc 1 169 0
 494 0096 0024     		mov	r4, #0
 495 0098 C6E7     		b	.L20
 496              	.LVL66:
 497              	.L23:
 188:.\main.c      **** 			
 498              		.loc 1 188 0
 499 009a 0020     		mov	r0, #0
 500              	.LVL67:
 501 009c FFF7FEFF 		bl	LED_SetBrightness
 502              	.LVL68:
 191:.\main.c      **** 			
 503              		.loc 1 191 0
 504 00a0 0134     		add	r4, r4, #1
 505              	.LVL69:
 506 00a2 E4B2     		uxtb	r4, r4
 507              	.LVL70:
 194:.\main.c      **** 			{
 508              		.loc 1 194 0
 509 00a4 632C     		cmp	r4, #99
 510 00a6 17D9     		bls	.L27
 511              	.LVL71:
 200:.\main.c      **** 				{
 512              		.loc 1 200 0
 513 00a8 022D     		cmp	r5, #2
 514 00aa 14D1     		bne	.L30
 204:.\main.c      **** 					
 515              		.loc 1 204 0
 516 00ac C824     		mov	r4, #200
 517 00ae 2401     		lsl	r4, r4, #4
 518 00b0 0020     		mov	r0, #0
 519 00b2 211C     		mov	r1, r4
 520 00b4 FFF7FEFF 		bl	CySysWdtSetMatch
 521              	.LVL72:
 207:.\main.c      **** 					
 522              		.loc 1 207 0
 523 00b8 0020     		mov	r0, #0
 524 00ba FFF7FEFF 		bl	CySysWdtGetCount
 525              	.LVL73:
 526 00be 80B2     		uxth	r0, r0
 527              	.LVL74:
 211:.\main.c      **** 				    {
ARM GAS  C:\Users\merlin\AppData\Local\Temp\ccsSLXlh.s 			page 19


 528              		.loc 1 211 0
 529 00c0 A042     		cmp	r0, r4
 530 00c2 02D9     		bls	.L28
 213:.\main.c      **** 					}
 531              		.loc 1 213 0
 532 00c4 0820     		mov	r0, #8
 533              	.LVL75:
 534 00c6 FFF7FEFF 		bl	CySysWdtResetCounters
 535              	.LVL76:
 536              	.L28:
 218:.\main.c      **** 					
 537              		.loc 1 218 0
 538 00ca 7D20     		mov	r0, #125
 539 00cc FFF7FEFF 		bl	CyDelayUs
 540              	.LVL77:
 222:.\main.c      **** 				}
 541              		.loc 1 222 0
 542 00d0 0125     		mov	r5, #1
 197:.\main.c      **** 				
 543              		.loc 1 197 0
 544 00d2 6424     		mov	r4, #100
 545 00d4 00E0     		b	.L27
 546              	.LVL78:
 547              	.L30:
 548 00d6 6424     		mov	r4, #100
 549              	.LVL79:
 550              	.L27:
 231:.\main.c      **** 			#endif
 551              		.loc 1 231 0
 552 00d8 FFF7FEFF 		bl	EnterDeepSleepLowPowerMode
 553              	.LVL80:
 554 00dc A4E7     		b	.L20
 555              	.L32:
 556 00de C046     		.align	2
 557              	.L31:
 558 00e0 00000000 		.word	.LANCHOR0
 559              		.cfi_endproc
 560              	.LFE34:
 561              		.size	main, .-main
 562              		.global	acclerometer_configured
 563              		.global	uC_Probe_z_dirMovement
 564              		.global	uC_Probe_y_dirMovement
 565              		.global	uC_Probe_x_dirMovement
 566              		.global	uC_Probe_Prox_Indicator
 567              		.bss
 568              		.align	2
 569              		.set	.LANCHOR0,. + 0
 570              		.type	uC_Probe_x_dirMovement, %object
 571              		.size	uC_Probe_x_dirMovement, 2
 572              	uC_Probe_x_dirMovement:
 573 0000 0000     		.space	2
 574              		.type	prev_x_value.5825, %object
 575              		.size	prev_x_value.5825, 2
 576              	prev_x_value.5825:
 577 0002 0000     		.space	2
 578              		.type	uC_Probe_y_dirMovement, %object
 579              		.size	uC_Probe_y_dirMovement, 2
ARM GAS  C:\Users\merlin\AppData\Local\Temp\ccsSLXlh.s 			page 20


 580              	uC_Probe_y_dirMovement:
 581 0004 0000     		.space	2
 582              		.type	prev_y_value.5826, %object
 583              		.size	prev_y_value.5826, 2
 584              	prev_y_value.5826:
 585 0006 0000     		.space	2
 586              		.type	acclerometer_configured, %object
 587              		.size	acclerometer_configured, 1
 588              	acclerometer_configured:
 589 0008 00       		.space	1
 590 0009 00       		.space	1
 591              		.type	uC_Probe_z_dirMovement, %object
 592              		.size	uC_Probe_z_dirMovement, 2
 593              	uC_Probe_z_dirMovement:
 594 000a 0000     		.space	2
 595              		.type	uC_Probe_Prox_Indicator, %object
 596              		.size	uC_Probe_Prox_Indicator, 4
 597              	uC_Probe_Prox_Indicator:
 598 000c 00000000 		.space	4
 599              		.text
 600              	.Letext0:
 601              		.file 2 "Generated_Source\\PSoC4/cytypes.h"
 602              		.file 3 "Generated_Source\\PSoC4/CapSense.h"
 603              		.file 4 "Generated_Source\\PSoC4/CapSense_CSHL.h"
 604              		.file 5 "Generated_Source\\PSoC4/PWM_Green.h"
 605              		.file 6 "Generated_Source\\PSoC4/cyPm.h"
 606              		.file 7 "Generated_Source\\PSoC4/Pin_GreenLED.h"
 607              		.file 8 "Generated_Source\\PSoC4/Pin_Vibe.h"
 608              		.file 9 "Generated_Source\\PSoC4/Pin_EMiddle.h"
 609              		.file 10 "Generated_Source\\PSoC4/Pin_EBottom.h"
 610              		.file 11 "Generated_Source\\PSoC4/Pin_ETop.h"
 611              		.file 12 "Generated_Source\\PSoC4/CyLib.h"
 612              		.file 13 "Generated_Source\\PSoC4/I2C.h"
 613              		.file 14 ".\\accelerometer.h"
 614              		.file 15 "Generated_Source\\PSoC4/CyLFClk.h"